(lp0
(S'Domi'
p1
S'played'
p2
Ntp3
a(S'Domi'
p4
S'made'
p5
S'debut'
p6
tp7
a(S'He'
p8
S'scored'
p9
Ntp10
a(S'He'
p11
S'helped'
p12
S'Championship'
p13
tp14
a(S'Knights'
p15
S'win'
p16
g13
tp17
a(S'Domi'
p18
S'won'
p19
S'medal'
p20
tp21
a(S'He'
p22
S'helped'
p23
S'Championship'
p24
tp25
a(S'Knights'
p26
S'win'
p27
g24
tp28
a(S'Coyotes'
p29
S'drafted'
p30
S'He'
p31
tp32
a(S'He'
p33
S'signed'
p34
S'contract'
p35
tp36
a(S'Domi'
p37
S'made'
p38
S'debut'
p39
tp40
a(S'He'
p41
S'wears'
p42
S'16'
p43
tp44
a(S'player'
p45
S'had'
p46
S'disease'
p47
tp48
a(S'You'
p49
S'help'
p50
S'Wikipedia'
p51
tp52
a(S'You'
p53
S'help'
p54
S'Wikipedia'
p55
tp56
a(S'It'
p57
S'is_principle'
p58
Ntp59
a(S'This'
p60
S'places'
p61
S'burden'
p62
tp63
a(S'doubt'
p64
S'remains'
p65
Ntp66
a(S'the'
p67
S'is'
p68
Ntp69
a(S'the'
p70
S'ted'
p71
Ntp72
a(S'Proof'
p73
S'is_the'
p74
Ntp75
a(S'law'
p76
S'is_type'
p77
Ntp78
a(S'It'
p79
S'has'
p80
S'presumption'
p81
tp82
a(S'finch'
p83
S'is_bird'
p84
Ntp85
a(S'You'
p86
S'help'
p87
S'Wikipedia'
p88
tp89
a(S'ballad'
p90
S'features'
p91
S'album'
p92
tp93
a(S'album'
p94
S'Language'
p95
g92
tp96
a(S'Houston'
p97
S'titled'
p98
g92
tp99
a(S'page'
p100
S'is'
p101
Ntp102
a(S'Magic'
p103
S'is_You'
p104
Ntp105
a(S'Houston'
p106
S'popularized'
p107
S'song'
p108
tp109
a(S'artist'
p110
S'recorded'
p111
S'song'
p112
tp113
a(S'Records'
p114
S'released'
p115
S'artist'
p116
tp117
a(S'Creed'
p118
S'wrote'
p119
S'lyrics'
p120
tp121
a(S'words'
p122
S'describe'
p123
S'feelings'
p124
tp125
a(S'one'
p126
S'is_face'
p127
Ntp128
a(S'you'
p129
S'succeed'
p130
S'strength'
p131
tp132
a(S'Creed'
p133
S'is_succumbed'
p134
Ntp135
a(S'song'
p136
S'is_hit'
p137
Ntp138
a(S'song'
p139
S'is_hit'
p140
Ntp141
a(S'Davis'
p142
S'was'
p143
S'song'
p144
tp145
a(S'Houston'
p146
S'recording'
p147
g144
tp148
a(S'he'
p149
S'gave'
p150
Ntp151
a(S'Houston'
p152
S'released'
p153
S'It'
p154
tp155
a(S'You'
p156
S'Give'
p157
Ntp158
a(S'song'
p159
S'is_release'
p160
Ntp161
a(S'version'
p162
S'features'
p163
S'intro'
p164
tp165
a(S'version'
p166
S'begins'
p167
Ntp168
a(S'single'
p169
S'is_success'
p170
Ntp171
a(S'it'
p172
S'replaced'
p173
S'version'
p174
tp175
a(S'It'
p176
S'is_hit'
p177
Ntp178
a(S'Houston'
p179
S'done'
p180
S'cover'
p181
tp182
a(S'Records'
p183
S'released'
p184
S'which'
p185
tp186
a(S'song'
p187
S'is_single'
p188
Ntp189
a(S'it'
p190
S'receive'
p191
S'release'
p192
tp193
a(S'It'
p194
S'is_hit'
p195
Ntp196
a(S'song'
p197
S'is_ballad'
p198
Ntp199
a(S'lover'
p200
S'leaves'
p201
S'damage'
p202
tp203
a(S'it'
p204
S'does'
p205
Ntp206
a(S'Houston'
p207
S'performed'
p208
S'song'
p209
tp210
a(S'It'
p211
S'means'
p212
S'charges'
p213
tp214
a(S'necessity'
p215
S'lies'
p216
g213
tp217
a(S'person'
p218
S'lays'
p219
g213
tp220
a(S'burden'
p221
S'is'
p222
Ntp223
a(S'defendant'
p224
S'prove'
p225
S'innocence'
p226
tp227
a(S'standard'
p228
S'is_proof'
p229
Ntp230
a(S'prosecution'
p231
S'is_reach'
p232
Ntp233
a(S'burden'
p234
S'bringing'
p235
S'case'
p236
tp237
a(S'burden'
p238
S'is'
p239
Ntp240
a(S'defendant'
p241
S'wants'
p242
S'set'
p243
tp244
a(S'defendant'
p245
S'provide'
p246
g243
tp247
a(S'This'
p248
S'shifts'
p249
S'burden'
p250
tp251
a(S'defendant'
p252
S'seek'
p253
S'actions'
p254
tp255
a(S'actions'
p256
S'brought'
p257
S'lawsuit'
p258
tp259
a(S'defenses'
p260
S'include'
p261
S'entrapment'
p262
tp263
a(S'Preponderance'
p264
S'is_standard'
p265
Ntp266
a(S'proposition'
p267
S'is_likely'
p268
Ntp269
a(S'proposition'
p270
S'is_true'
p271
Ntp272
a(S'standard'
p273
S'is_satisfied'
p274
Ntp275
a(S'chance'
p276
S'is_is'
p277
Ntp278
a(S'proposition'
p279
S'is_true'
p280
Ntp281
a(S'this'
p282
S'is_standard'
p283
Ntp284
a(S'This'
p285
S'is_burden'
p286
Ntp287
a(S'prosecutor'
p288
S'meet'
p289
Ntp290
a(S'This'
p291
S'is_standard'
p292
Ntp293
a(S'It'
p294
S'applies'
p295
Ntp296
a(S'jury'
p297
S'has'
p298
S'doubt'
p299
tp300
a(S'doubts'
p301
S'is_doubts'
p302
Ntp303
a(S'prosecutor'
p304
S'is_proved'
p305
Ntp306
a(S'defendant'
p307
S'is_guilty'
p308
Ntp309
a(S'Clinton'
p310
S'is_town'
p311
Ntp312
a(S'You'
p313
S'help'
p314
S'Wikipedia'
p315
tp316
a(S'She'
p317
S'is_publisher'
p318
Ntp319
a(S'family'
p320
S'moved'
p321
Ntp322
a(S'she'
p323
S'attended'
p324
S'University'
p325
tp326
a(S'She'
p327
S'graduated'
p328
S'Kappa'
p329
tp330
a(S'she'
p331
S'married'
p332
S'Rathmer'
p333
tp334
a(S'She'
p335
S'refused'
p336
S'oath'
p337
tp338
a(S'She'
p339
S'take'
p340
g337
tp341
a(S'it'
p342
S'contained'
p343
S'phrase'
p344
tp345
a(S'She'
p346
S'regain'
p347
S'citizenship'
p348
tp349
a(S'She'
p350
S'is_widow'
p351
Ntp352
a(S'She'
p353
S'died'
p354
S'day'
p355
tp356
a(S'Caliber'
p357
S'is_hatchback'
p358
Ntp359
a(S'Caliber'
p360
S'replaced'
p361
S'Neon'
p362
tp363
a(S'He'
p364
S'served'
p365
Ntp366
a(S'she'
p367
S'is_President'
p368
Ntp369
a(S'She'
p370
S'died'
p371
Ntp372
a(S'game'
p373
S'show'
p374
Ntp375
a(S'Andrews'
p376
S'died'
p377
Ntp378
a(S'You'
p379
S'help'
p380
S'Wikipedia'
p381
tp382
a(S'Sheridan'
p383
S'played'
p384
Ntp385
a(S'Sheridan'
p386
S'died'
p387
Ntp388
a(S'You'
p389
S'help'
p390
S'Wikipedia'
p391
tp392
a(S'He'
p393
S'is_Representative'
p394
Ntp395
a(S'He'
p396
S'is_member'
p397
Ntp398
a(S'He'
p399
S'served'
p400
Ntp401
a(S'You'
p402
S'help'
p403
S'Wikipedia'
p404
tp405
a(S'Aln'
p406
S'died'
p407
S'Spain'
p408
tp409
a(S'You'
p410
S'help'
p411
S'Wikipedia'
p412
tp413
a(S'Filippenkov'
p414
S'died'
p415
Ntp416
a(S'You'
p417
S'help'
p418
S'Wikipedia'
p419
tp420
a(S'Burguera'
p421
S'served'
p422
S'district'
p423
tp424
a(S'Burguera'
p425
S'died'
p426
Ntp427
a(S'You'
p428
S'help'
p429
S'Wikipedia'
p430
tp431
a(S'You'
p432
S'help'
p433
S'Wikipedia'
p434
tp435
a(S'He'
p436
S'is_chancellor'
p437
Ntp438
a(S'Davis'
p439
S'serving'
p440
Ntp441
a(S'Vanderhoef'
p442
S'died'
p443
Ntp444
a(S'You'
p445
S'help'
p446
S'Wikipedia'
p447
tp448
a(S'It'
p449
S'is_last'
p450
Ntp451
a(S'Line'
p452
S'owned'
p453
S'It'
p454
tp455
a(S'It'
p456
S'went'
p457
Ntp458
a(S'You'
p459
S'help'
p460
S'Wikipedia'
p461
tp462
a.(lp0
.(lp0
(S'Stuxnet'
p1
S'is_weapon'
p2
Ntp3
a(S'It'
p4
S'sabotage'
p5
S'program'
p6
tp7
a(S'what'
p8
S'seem'
p9
Ntp10
a(S'error'
p11
S'led'
p12
S'computers'
p13
tp14
a(S'virus'
p15
S'spread'
p16
g13
tp17
a(S'US'
p18
S'confirmed'
p19
S'Stuxnet'
p20
tp21
a(S'it'
p22
S'developed'
p23
g20
tp24
a(S'Stuxnet'
p25
S'targets'
p26
S'PLCs'
p27
tp28
a(S'They'
p29
S'control'
p30
S'machinery'
p31
tp32
a(S'Stuxnet'
p33
S'works'
p34
S'machines'
p35
tp36
a(S'It'
p37
S'looks'
p38
Ntp39
a(S'Stuxnet'
p40
S'compromised'
p41
S'PLCs'
p42
tp43
a(S'Stuxnet'
p44
S'ruined'
p45
Ntp46
a(S'worm'
p47
S'spreads'
p48
S'PLC'
p49
tp50
a(S'it'
p51
S'doesn'
p52
S'target'
p53
tp54
a(S'Stuxnet'
p55
S'is_dormant'
p56
Ntp57
a(S'Stuxnet'
p58
S'is_special'
p59
Ntp60
a(S'it'
p61
S'targeted'
p62
S'PLCs'
p63
tp64
a(S'software'
p65
S'infect'
p66
S'set'
p67
tp68
a(S'it'
p69
S'infect'
p70
S'computer'
p71
tp72
a(S'You'
p73
S'help'
p74
S'Wikipedia'
p75
tp76
a(S'page'
p77
S'is'
p78
Ntp79
a(S'Kong'
p80
S'see'
p81
Ntp82
a(S'Kong'
p83
S'is_monster'
p84
Ntp85
a(S'character'
p86
S'appeared'
p87
Ntp88
a(S'movie'
p89
S'is_adventure'
p90
Ntp91
a(S'character'
p92
S'is_one'
p93
Ntp94
a(S'Kong'
p95
S'inspired'
p96
S'books'
p97
tp98
a(S'play'
p99
S'was'
p100
Ntp101
a(S'role'
p102
S'varies'
p103
Ntp104
a(S'vegetarian'
p105
S'wants'
p106
Ntp107
a(S'vegetarian'
p108
S'left'
p109
Ntp110
a(S'You'
p111
S'help'
p112
S'Wikipedia'
p113
tp114
a(S'Hurricane'
p115
S'is_album'
p116
Ntp117
a(S'Hurricane'
p118
S'is_album'
p119
Ntp120
a(S'She'
p121
S'tried'
p122
S'albums'
p123
tp124
a(S'She'
p125
S'make'
p126
g123
tp127
a(S'Jones'
p128
S'decided'
p129
S'album'
p130
tp131
a(S'Jones'
p132
S'do'
p133
g130
tp134
a(S'Fad'
p135
S'is_actor'
p136
Ntp137
a(S'He'
p138
S'has'
p139
S'gift'
p140
tp141
a(S'NINJA'
p142
S'show'
p143
S'shows'
p144
tp145
a(S'fad'
p146
S'specialize'
p147
g144
tp148
a(S'You'
p149
S'help'
p150
S'Wikipedia'
p151
tp152
a(S'Collection'
p153
S'is_collection'
p154
Ntp155
a(S'Story'
p156
S'is_collection'
p157
Ntp158
a(S'Collection'
p159
S'is_collection'
p160
Ntp161
a(S'Collection'
p162
S'is_collection'
p163
Ntp164
a(S'It'
p165
S'features'
p166
S'songs'
p167
tp168
a(S'X'
p169
S'is_album'
p170
Ntp171
a(S'Records'
p172
S'released'
p173
S'it'
p174
tp175
a(S'group'
p176
S'chose'
p177
S'sound'
p178
tp179
a(S'sound'
p180
S'was'
p181
Ntp182
a(S'sessions'
p183
S'Bleed'
p184
S'place'
p185
tp186
a(S'Garbage'
p187
S'split'
p188
Ntp189
a(S'They'
p190
S'reunited'
p191
Ntp192
a(S'appearance'
p193
S'was'
p194
Ntp195
a(S'They'
p196
S'completed'
p197
S'album'
p198
tp199
a(S'band'
p200
S'received'
p201
S'praise'
p202
tp203
a(S'You'
p204
S'Love'
p205
Ntp206
a(S'It'
p207
S'debuted'
p208
Ntp209
a(S'You'
p210
S'help'
p211
S'Wikipedia'
p212
tp213
a(S'He'
p214
S'is_member'
p215
Ntp216
a(S'He'
p217
S'serves'
p218
Ntp219
a(S'He'
p220
S'served'
p221
Ntp222
a(S'You'
p223
S'help'
p224
S'Wikipedia'
p225
tp226
a(S'Treki'
p227
S'served'
p228
Ntp229
a(S'He'
p230
S'is_Minister'
p231
Ntp232
a(S'He'
p233
S'is_Representative'
p234
Ntp235
a(S'He'
p236
S'is_President'
p237
Ntp238
a(S'Treki'
p239
S'died'
p240
Ntp241
a(S'You'
p242
S'help'
p243
S'Wikipedia'
p244
tp245
a(S'VivaColombia'
p246
S'is_carrier'
p247
Ntp248
a(S'flight'
p249
S'was'
p250
Ntp251
a(S'Ryanair'
p252
S'is_owner'
p253
Ntp254
a(S'VivaColombia'
p255
S'flies'
p256
S'airplanes'
p257
tp258
a(S'You'
p259
S'help'
p260
S'Wikipedia'
p261
tp262
a(S'Airways'
p263
S'is_carrier'
p264
Ntp265
a(S'hub'
p266
S'is'
p267
Ntp268
a(S'Airways'
p269
S'started'
p270
Ntp271
a(S'It'
p272
S'flight'
p273
Ntp274
a(S'airline'
p275
S'bought'
p276
S'jet'
p277
tp278
a(S'Airways'
p279
S'has'
p280
S'airplanes'
p281
tp282
a(S'You'
p283
S'help'
p284
S'Wikipedia'
p285
tp286
a(S'summer'
p287
S'is_period'
p288
Ntp289
a(S'It'
p290
S'happens'
p291
Ntp292
a(S'Service'
p293
S'is_describes'
p294
Ntp295
a(S'conditions'
p296
S'is_sunny'
p297
Ntp298
a(S'That'
p299
S'occurs'
p300
Ntp301
a(S'term'
p302
S'came'
p303
Ntp304
a(S'It'
p305
S'been'
p306
Ntp307
a(S'Americans'
p308
S'hunted'
p309
Ntp310
a(S'You'
p311
S'help'
p312
S'Wikipedia'
p313
tp314
a(S'Edgefield'
p315
S'is_village'
p316
Ntp317
a(S'You'
p318
S'help'
p319
S'Wikipedia'
p320
tp321
a(S'Martin'
p322
S'is_village'
p323
Ntp324
a(S'You'
p325
S'help'
p326
S'Wikipedia'
p327
tp328
a(S'Summit'
p329
S'is_village'
p330
Ntp331
a(S'You'
p332
S'help'
p333
S'Wikipedia'
p334
tp335
a(S'It'
p336
S'went'
p337
Ntp338
a(S'Those'
p339
S'drowned'
p340
S'Adelin'
p341
tp342
a(S'Those'
p343
S'included'
p344
g341
tp345
a(S'death'
p346
S'led'
p347
S'history'
p348
tp349
a(S'events'
p350
S'changed'
p351
g348
tp352
a(S'FitzAirard'
p353
S'is_captain'
p354
Ntp355
a(S'he'
p356
S'invaded'
p357
S'England'
p358
tp359
a(S'FitzStephen'
p360
S'offered'
p361
S'ship'
p362
tp363
a(S'FitzStephen'
p364
S'use'
p365
g362
tp366
a(S'Henry'
p367
S'made'
p368
S'plans'
p369
tp370
a(S'This'
p371
S'included'
p372
S'son'
p373
tp374
a(S'crew'
p375
S'asked'
p376
S'Adelin'
p377
tp378
a(S'ship'
p379
S'is_ready'
p380
Ntp381
a(S'ship'
p382
S'is_leave'
p383
Ntp384
a(S'some'
p385
S'left'
p386
Ntp387
a(S'ship'
p388
S'sailed'
p389
Ntp390
a(S'revelers'
p391
S'ordered'
p392
S'captain'
p393
tp394
a(S'ship'
p395
S'sailed'
p396
Ntp397
a(S'This'
p398
S'made'
p399
S'captain'
p400
tp401
a(S'they'
p402
S'reach'
p403
S'England'
p404
tp405
a(S'ship'
p406
S'left'
p407
S'rock'
p408
tp409
a(S'side'
p410
S'struck'
p411
g408
tp412
a(S'boat'
p413
S'filled'
p414
S'themselves'
p415
tp416
a(S'others'
p417
S'tried'
p418
g415
tp419
a(S'others'
p420
S'get'
p421
g415
tp422
a(S'William'
p423
S'drowned'
p424
Ntp425
a(S'One'
p426
S'is_butcher'
p427
Ntp428
a(S'second'
p429
S'is_Geoffrey'
p430
Ntp431
a(S'chronicler'
p432
S'claimed'
p433
S'King'
p434
tp435
a(S'FitzStephen'
p436
S'came'
p437
g434
tp438
a(S'Adelin'
p439
S'survived'
p440
g434
tp441
a(S'he'
p442
S'let'
p443
g434
tp444
a(S'himself'
p445
S'drown'
p446
g434
tp447
a(S'legend'
p448
S'says'
p449
S'it'
p450
tp451
a(S'priests'
p452
S'board'
p453
g450
tp454
a(S'result'
p455
S'is_period'
p456
Ntp457
a(S'disaster'
p458
S'left'
p459
S'I'
p460
tp461
a(S'Henry'
p462
S'forced'
p463
S'oath'
p464
tp465
a(S'barons'
p466
S'swear'
p467
g464
tp468
a(S'woman'
p469
S'ruled'
p470
Ntp471
a(S'Matilda'
p472
S'is_unpopular'
p473
Ntp474
a(S'He'
p475
S'is_enemy'
p476
Ntp477
a(S'barons'
p478
S'is_sure'
p479
Ntp480
a(S'they'
p481
S'wanted'
p482
S'Matilda'
p483
tp484
a(S'One'
p485
S'usurped'
p486
S'Matilda'
p487
tp488
a(S'One'
p489
S'king'
p490
g487
tp491
a(S'Stephen'
p492
S'planned'
p493
S'this'
p494
tp495
a(S'Stephen'
p496
S'travel'
p497
g494
tp498
a(S'it'
p499
S'sailed'
p500
g494
tp501
a(S'Vitalis'
p502
S'attributes'
p503
g494
tp504
a(S'Matilda'
p505
S'started'
p506
S'long'
p507
tp508
a(S'period'
p509
S'called'
p510
Ntp511
a(S'Anarchy'
p512
S'lasted'
p513
Ntp514
a(S'historian'
p515
S'lived'
p516
Ntp517
a(S'historian'
p518
S'wrote'
p519
Ntp520
a(S'ship'
p521
S'brought'
p522
S'misery'
p523
tp524
a(S'Port'
p525
S'is_terms'
p526
Ntp527
a(S'Port'
p528
S'is_side'
p529
Ntp530
a(S'Starboard'
p531
S'is_side'
p532
Ntp533
a(S'they'
p534
S'is_change'
p535
Ntp536
a(S'references'
p537
S'depend'
p538
Ntp539
a(S'observer'
p540
S'facing'
p541
Ntp542
a(S'ships'
p543
S'had'
p544
S'rudders'
p545
tp546
a(S'oar'
p547
S'was'
p548
Ntp549
a(S'it'
p550
S'tie'
p551
Ntp552
a.(lp0
(S'Larboard'
p1
S'sounded'
p2
S'port'
p3
tp4
a(S'Navy'
p5
S'ordered'
p6
g3
tp7
a(S'light'
p8
S'indicated'
p9
S'side'
p10
tp11
a(S'side'
p12
S'has'
p13
S'one'
p14
tp15
a(S'side'
p16
S'help'
p17
g14
tp18
a(S'ship'
p19
S'give'
p20
S'way'
p21
tp22
a(S'safety'
p23
S'go'
p24
Ntp25
a(S'Evidence'
p26
S'is_is'
p27
Ntp28
a(S'Evidence'
p29
S'is_standard'
p30
Ntp31
a(S'prosecutor'
p32
S'has'
p33
S'burden'
p34
tp35
a(S'This'
p36
S'is_means'
p37
Ntp38
a(S'prosecution'
p39
S'proven'
p40
S'version'
p41
tp42
a(S'defendant'
p43
S'is_guilty'
p44
Ntp45
a(S'defendant'
p46
S'is_guilty'
p47
Ntp48
a(S'term'
p49
S'extends'
p50
Ntp51
a(S'doubt'
p52
S'does'
p53
S'belief'
p54
tp55
a(S'defendant'
p56
S'is_guilty'
p57
Ntp58
a(S'jury'
p59
S'is_satisfied'
p60
Ntp61
a(S'idea'
p62
S'is_formulation'
p63
Ntp64
a(S'It'
p65
S'is_better'
p66
Ntp67
a(S'persons'
p68
S'escape'
p69
S'that'
p70
tp71
a(S'one'
p72
S'suffer'
p73
Ntp74
a(S'This'
p75
S'is_list'
p76
Ntp77
a(S'list'
p78
S'includes'
p79
S'lakes'
p80
tp81
a(S'reservoirs'
p82
S'are'
p83
Ntp84
a(S'Sea'
p85
S'is_lake'
p86
Ntp87
a(S'Sea'
p88
S'is_is'
p89
Ntp90
a(S'which'
p91
S'borders'
p92
S'Azerbaijan'
p93
tp94
a(S'All'
p95
S'is_small'
p96
Ntp97
a(S'lakes'
p98
S'are'
p99
Ntp100
a(S'Most'
p101
S'is_water'
p102
Ntp103
a(S'some'
p104
S'is_lakes'
p105
Ntp106
a(S'system'
p107
S'is_system'
p108
Ntp109
a(S'It'
p110
S'is_system'
p111
Ntp112
a(S'advocates'
p113
S'represent'
p114
S'positions'
p115
tp116
a(S'This'
p117
S'is_jury'
p118
Ntp119
a(S'jury'
p120
S'attempt'
p121
S'truth'
p122
tp123
a(S'jury'
p124
S'determine'
p125
g122
tp126
a(S'This'
p127
S'is'
p128
S'inquiry'
p129
tp130
a(S'judge'
p131
S'opens'
p132
g129
tp133
a(S'system'
p134
S'is_system'
p135
Ntp136
a(S'courts'
p137
S'operate'
p138
Ntp139
a(S'prosecution'
p140
S'represents'
p141
S'government'
p142
tp143
a(S'side'
p144
S'is_defense'
p145
Ntp146
a(S'defense'
p147
S'represents'
p148
S'defendant'
p149
tp150
a(S'party'
p151
S'call'
p152
S'witnesses'
p153
tp154
a(S'party'
p155
S'present'
p156
S'evidence'
p157
tp158
a(S'court'
p159
S'approved'
p160
S'that'
p161
tp162
a(S'ethics'
p163
S'prevent'
p164
S'lawyer'
p165
tp166
a(S'witness'
p167
S'lie'
p168
Ntp169
a(S'they'
p170
S'know'
p171
Ntp172
a(S'adversary'
p173
S'is_able'
p174
Ntp175
a(S'adversary'
p176
S'is_convince'
p177
Ntp178
a(S'case'
p179
S'is_one'
p180
Ntp181
a(S'he'
p182
S'served'
p183
Ntp184
a(S'He'
p185
S'is_one'
p186
Ntp187
a(S'He'
p188
S'is_one'
p189
Ntp190
a(S'You'
p191
S'help'
p192
S'Wikipedia'
p193
tp194
a(S'He'
p195
S'is_lecturer'
p196
Ntp197
a(S'You'
p198
S'help'
p199
S'Wikipedia'
p200
tp201
a(S'lake'
p202
S'lies'
p203
Ntp204
a(S'It'
p205
S'reaches'
p206
S'length'
p207
tp208
a(S'It'
p209
S'is_one'
p210
Ntp211
a(S'water'
p212
S'is_water'
p213
Ntp214
a(S'groundwater'
p215
S'filled'
p216
S'It'
p217
tp218
a(S'It'
p219
S'outflows'
p220
Ntp221
a(S'water'
p222
S'regulated'
p223
S'outflow'
p224
tp225
a(S'You'
p226
S'help'
p227
S'Wikipedia'
p228
tp229
a(S'Statutes'
p230
S'is_laws'
p231
Ntp232
a(S'period'
p233
S'passes'
p234
Ntp235
a(S'intention'
p236
S'is'
p237
Ntp238
a(S'intention'
p239
S'make'
p240
Ntp241
a(S'time'
p242
S'run'
p243
Ntp244
a(S'cases'
p245
S'need'
p246
Ntp247
a(S'cases'
p248
S'resolved'
p249
Ntp250
a(S'He'
p251
S'is_member'
p252
Ntp253
a(S'He'
p254
S'is_Representative'
p255
Ntp256
a(S'You'
p257
S'help'
p258
S'Wikipedia'
p259
tp260
a(S'Wells'
p261
S'died'
p262
S'York'
p263
tp264
a(S'You'
p265
S'help'
p266
S'Wikipedia'
p267
tp268
a(S'cause'
p269
S'is_set'
p270
Ntp271
a(S'It'
p272
S'means'
p273
S'cause'
p274
tp275
a(S'party'
p276
S'make'
p277
S'case'
p278
tp279
a(S'document'
p280
S'carries'
p281
Ntp282
a(S'complaint'
p283
S'identifies'
p284
S'jurisdiction'
p285
tp286
a(S'plaintiff'
p287
S'wants'
p288
Ntp289
a(S'It'
p290
S'is_communication'
p291
Ntp292
a(S'fault'
p293
S'resulted'
p294
Ntp295
a(S'party'
p296
S'pay'
p297
Ntp298
a(S'plaintiff'
p299
S'pleads'
p300
S'facts'
p301
tp302
a(S'pleading'
p303
S'starts'
p304
S'lawsuit'
p305
tp306
a(S'facts'
p307
S'create'
p308
S'person'
p309
tp310
a(S'circumstances'
p311
S'allow'
p312
g309
tp313
a(S'it'
p314
S'is_easy'
p315
Ntp316
a(S'it'
p317
S'is_file'
p318
Ntp319
a(S'party'
p320
S'lose'
p321
S'case'
p322
tp323
a(S'number'
p324
S'are'
p325
Ntp326
a(S'plaintiff'
p327
S'prove'
p328
S'type'
p329
tp330
a(S'plaintiff'
p331
S'win'
p332
g329
tp333
a(S'complaint'
p334
S'allege'
p335
S'facts'
p336
tp337
a(S'court'
p338
S'dismiss'
p339
S'complaint'
p340
tp341
a(S'defendant'
p342
S'file'
p343
Ntp344
a(S'answer'
p345
S'contain'
p346
S'counterclaims'
p347
tp348
a(S'answer'
p349
S'contain'
p350
S'defenses'
p351
tp352
a(S'Narayani'
p353
S'occupies'
p354
S'parts'
p355
tp356
a(S'it'
p357
S'doesn'
p358
S'any'
p359
tp360
a(S'Narayani'
p361
S'is_rich'
p362
Ntp363
a(S'River'
p364
S'is_rivers'
p365
Ntp366
a(S'Bisharari'
p367
S'is_some'
p368
Ntp369
a(S'Narayani'
p370
S'is_area'
p371
Ntp372
a(S'cities'
p373
S'is_Birganj'
p374
Ntp375
a(S'County'
p376
S'is_county'
p377
Ntp378
a(S'seat'
p379
S'is_Indianapolis'
p380
Ntp381
a(S'You'
p382
S'help'
p383
S'Wikipedia'
p384
tp385
a(S'what'
p386
S'is_Avenue'
p387
Ntp388
a(S'immigrants'
p389
S'settled'
p390
S'It'
p391
tp392
a(S'It'
p393
S'is_part'
p394
Ntp395
a(S'Nederland'
p396
S'is_part'
p397
Ntp398
a(S'city'
p399
S'is_next'
p400
Ntp401
a(S'Arthur'
p402
S'serves'
p403
S'cities'
p404
tp405
a(S'city'
p406
S'has'
p407
S'area'
p408
tp409
a(S'sqmi'
p410
S'is_land'
p411
Ntp412
a(S'It'
p413
S'is_east'
p414
Ntp415
a(S'settlers'
p416
S'founded'
p417
S'Nederland'
p418
tp419
a(S'bankers'
p420
S'financed'
p421
S'line'
p422
tp423
a(S'line'
p424
S'runs'
p425
Ntp426
a(S'farming'
p427
S'driven'
p428
S'economy'
p429
tp430
a(S'depression'
p431
S'caused'
p432
S'industry'
p433
tp434
a(S'town'
p435
S'fail'
p436
Ntp437
a(S'City'
p438
S'completed'
p439
S'building'
p440
tp441
a(S'Nederland'
p442
S'has'
p443
S'system'
p444
tp445
a(S'officials'
p446
S'are'
p447
Ntp448
a(S'You'
p449
S'help'
p450
S'Wikipedia'
p451
tp452
a(S'He'
p453
S'played'
p454
Ntp455
a(S'He'
p456
S'started'
p457
S'music'
p458
tp459
a(S'he'
p460
S'is_old'
p461
Ntp462
a(S'He'
p463
S'joined'
p464
S'Obituary'
p465
tp466
a(S'Watkins'
p467
S'decided'
p468
S'company'
p469
tp470
a(S'Watkins'
p471
S'form'
p472
g469
tp473
a(S'which'
p474
S'tries'
p475
S'career'
p476
tp477
a(S'which'
p478
S'help'
p479
g476
tp480
a(S'bands'
p481
S'create'
p482
g476
tp483
a(S'Watkins'
p484
S'joined'
p485
S'Gorgoroth'
p486
tp487
a(S'He'
p488
S'debuted'
p489
Ntp490
a(S'Watkins'
p491
S'died'
p492
Ntp493
a(S'You'
p494
S'help'
p495
S'Wikipedia'
p496
tp497
a(S'East'
p498
S'is_constituency'
p499
Ntp500
a(S'It'
p501
S'elects'
p502
S'MEPs'
p503
tp504
a(S'constituency'
p505
S'corresponds'
p506
Ntp507
a(S'residents'
p508
S'are'
p509
Ntp510
a(S'million'
p511
S'speak'
p512
Ntp513
a(S'residents'
p514
S'speak'
p515
S'language'
p516
tp517
a(S'Americans'
p518
S'make'
p519
S'percentage'
p520
tp521
a(S'Americans'
p522
S'is_visible'
p523
Ntp524
a(S'tendency'
p525
S'is'
p526
Ntp527
a(S'These'
p528
S'include'
p529
S'Qubcois'
p530
tp531
a(S'This'
p532
S'prevented'
p533
S'development'
p534
tp535
a(S'You'
p536
S'help'
p537
S'Wikipedia'
p538
tp539
a(S'Brunner'
p540
S'is_politician'
p541
Ntp542
a(S'He'
p543
S'is_member'
p544
Ntp545
a(S'You'
p546
S'help'
p547
S'Wikipedia'
p548
tp549
a(S'Hills'
p550
S'is_neighborhood'
p551
Ntp552
a(S'You'
p553
S'help'
p554
S'Wikipedia'
p555
tp556
a.(lp0
(S'Brunswick'
p1
S'is_township'
p2
Ntp3
a(S'Jersey'
p4
S'is_township'
p5
Ntp6
a(S'You'
p7
S'help'
p8
S'Wikipedia'
p9
tp10
a(S'The'
p11
S'is_people'
p12
Ntp13
a(S'who'
p14
S'gained'
p15
S'prominence'
p16
tp17
a(S'list'
p18
S'Following'
p19
Ntp20
a(S'people'
p21
S'born'
p22
Ntp23
a(S'York'
p24
S'is_part'
p25
Ntp26
a(S'following'
p27
S'is_list'
p28
Ntp29
a(S'people'
p30
S'spent'
p31
S'periods'
p32
tp33
a(S'County'
p34
S'refer'
p35
Ntp36
a(S'It'
p37
S'is_name'
p38
Ntp39
a(S'It'
p40
S'is'
p41
Ntp42
a(S'It'
p43
S'hold'
p44
S'people'
p45
tp46
a(S'It'
p47
S'hosts'
p48
S'games'
p49
tp50
a(S'You'
p51
S'help'
p52
S'Wikipedia'
p53
tp54
a(S'procedure'
p55
S'refers'
p56
S'trial'
p57
tp58
a(S'rules'
p59
S'determine'
p60
g57
tp61
a(S'courts'
p62
S'process'
p63
g57
tp64
a(S'procedure'
p65
S'differs'
p66
Ntp67
a(S'process'
p68
S'begins'
p69
Ntp70
a(S'countries'
p71
S'have'
p72
S'system'
p73
tp74
a(S'number'
p75
S'are'
p76
Ntp77
a(S'burden'
p78
S'is'
p79
Ntp80
a(S'That'
p81
S'is_means'
p82
Ntp83
a(S'it'
p84
S'is_is'
p85
Ntp86
a(S'it'
p87
S'is_prove'
p88
Ntp89
a(S'defendant'
p90
S'is_guilty'
p91
Ntp92
a(S'defendant'
p93
S'prove'
p94
S'he'
p95
tp96
a(S'she'
p97
S'is_innocent'
p98
Ntp99
a(S'It'
p100
S'means'
p101
Ntp102
a(S'defendants'
p103
S'have'
p104
S'rights'
p105
tp106
a(S'Jamesburg'
p107
S'is_borough'
p108
Ntp109
a(S'Jersey'
p110
S'is_borough'
p111
Ntp112
a(S'You'
p113
S'help'
p114
S'Wikipedia'
p115
tp116
a(S'Amboy'
p117
S'is_city'
p118
Ntp119
a(S'Jersey'
p120
S'is_city'
p121
Ntp122
a(S'You'
p123
S'help'
p124
S'Wikipedia'
p125
tp126
a(S'Plainfield'
p127
S'is_borough'
p128
Ntp129
a(S'Jersey'
p130
S'is_borough'
p131
Ntp132
a(S'You'
p133
S'help'
p134
S'Wikipedia'
p135
tp136
a(S'Balboa'
p137
S'is_neighborhood'
p138
Ntp139
a(S'You'
p140
S'help'
p141
S'Wikipedia'
p142
tp143
a(S'This'
p144
S'is_list'
p145
Ntp146
a(S'Angeles'
p147
S'is_district'
p148
Ntp149
a(S'You'
p150
S'help'
p151
S'Wikipedia'
p152
tp153
a(S'I'
p154
S'Believer'
p155
Ntp156
a(S'Diamond'
p157
S'composed'
p158
S'It'
p159
tp160
a(S'Monkees'
p161
S'recorded'
p162
S'It'
p163
tp164
a(S'It'
p165
S'remained'
p166
Ntp167
a(S'Mouth'
p168
S'did'
p169
S'covers'
p170
tp171
a(S'Mandrell'
p172
S'did'
p173
S'version'
p174
tp175
a(S'You'
p176
S'help'
p177
S'Wikipedia'
p178
tp179
a(S'Garfield'
p180
S'is_character'
p181
Ntp182
a(S'He'
p183
S'Garfield'
p184
Ntp185
a(S'He'
p186
S'loves'
p187
S'lasagna'
p188
tp189
a(S'He'
p190
S'hates'
p191
S'Mondays'
p192
tp193
a(S'he'
p194
S'loved'
p195
S'lasagna'
p196
tp197
a(S'Garfield'
p198
S'causes'
p199
S'mischief'
p200
tp201
a(S'defense'
p202
S'is_claim'
p203
Ntp204
a(S'defendant'
p205
S'is_responsible'
p206
Ntp207
a(S'People'
p208
S'is_insane'
p209
Ntp210
a(S'People'
p211
S'is_exempt'
p212
Ntp213
a(S'definitions'
p214
S'are'
p215
Ntp216
a(S'finding'
p217
S'results'
p218
Ntp219
a(S'pleas'
p220
S'increased'
p221
Ntp222
a(S'question'
p223
S'issue'
p224
S'burden'
p225
tp226
a(S'who'
p227
S'bears'
p228
g225
tp229
a(S'burden'
p230
S'rested'
p231
Ntp232
a(S'many'
p233
S'required'
p234
S'defense'
p235
tp236
a(S'defendant'
p237
S'is_insane'
p238
Ntp239
a(S'state'
p240
S'bears'
p241
S'burden'
p242
tp243
a(S'standard'
p244
S'is'
p245
Ntp246
a(S'defense'
p247
S'is'
p248
Ntp249
a(S'they'
p250
S'testify'
p251
Ntp252
a(S'This'
p253
S'is'
p254
Ntp255
a(S'This'
p256
S'decide'
p257
Ntp258
a(S'experts'
p259
S'testify'
p260
S'crime'
p261
tp262
a(S'defendant'
p263
S'is_understood'
p264
Ntp265
a(S'he'
p266
S'is_wrong'
p267
Ntp268
a(S'defendant'
p269
S'is_acting'
p270
Ntp271
a(S'he'
p272
S'is_insane'
p273
Ntp274
a(S'This'
p275
S'is_list'
p276
Ntp277
a(S'City'
p278
S'is_neighborhood'
p279
Ntp280
a(S'Angeles'
p281
S'is_neighborhood'
p282
Ntp283
a(S'You'
p284
S'help'
p285
S'Wikipedia'
p286
tp287
a(S'Stadium'
p288
S'is_stadium'
p289
Ntp290
a(S'They'
p291
S'is_team'
p292
Ntp293
a(S'It'
p294
S'has'
p295
S'capacity'
p296
tp297
a(S'expansions'
p298
S'planning'
p299
S'it'
p300
tp301
a(S'expansions'
p302
S'able'
p303
g300
tp304
a(S'statue'
p305
S'is'
p306
Ntp307
a(S'You'
p308
S'help'
p309
S'Wikipedia'
p310
tp311
a(S'Litigation'
p312
S'is_expensive'
p313
Ntp314
a(S'parties'
p315
S'agree'
p316
Ntp317
a(S'parties'
p318
S'have'
p319
Ntp320
a(S'disagreement'
p321
S'decided'
p322
Ntp323
a(S'this'
p324
S'is_panel'
p325
Ntp326
a(S'party'
p327
S'suggests'
p328
S'one'
p329
tp330
a(S'arbitrators'
p331
S'agree'
p332
Ntp333
a(S'decision'
p334
S'is_result'
p335
Ntp336
a(S'process'
p337
S'includes'
p338
S'hearing'
p339
tp340
a(S'One'
p341
S'binding'
p342
Ntp343
a(S'form'
p344
S'is_mediation'
p345
Ntp346
a(S'Mediation'
p347
S'use'
p348
S'parties'
p349
tp350
a(S'difference'
p351
S'is'
p352
S'decisions'
p353
tp354
a(S'mediator'
p355
S'make'
p356
g353
tp357
a(S'mediator'
p358
S'works'
p359
Ntp360
a(S'parties'
p361
S'agree'
p362
Ntp363
a(S'mediator'
p364
S'is'
p365
Ntp366
a(S'difference'
p367
S'is'
p368
Ntp369
a(S'case'
p370
S'come'
p371
Ntp372
a(S'topology'
p373
S'is_branch'
p374
Ntp375
a(S'branch'
p376
S'uses'
p377
S'tools'
p378
tp379
a(S'branch'
p380
S'study'
p381
g378
tp382
a(S'You'
p383
S'help'
p384
S'Wikipedia'
p385
tp386
a(S'He'
p387
S'is_one'
p388
Ntp389
a(S'aski'
p390
S'died'
p391
S'Austria'
p392
tp393
a(S'You'
p394
S'help'
p395
S'Wikipedia'
p396
tp397
a(g154
S'Dickens'
p398
Ntp399
a(S'He'
p400
S'voiced'
p401
S'characters'
p402
tp403
a(S'He'
p404
S'began'
p405
S'career'
p406
tp407
a(S'He'
p408
S'married'
p409
S'Jones'
p410
tp411
a(S'Ingels'
p412
S'died'
p413
Ntp414
a(S'You'
p415
S'help'
p416
S'Wikipedia'
p417
tp418
a(S'he'
p419
S'had'
p420
S'nominations'
p421
tp422
a(S'Murphy'
p423
S'died'
p424
Ntp425
a(S'You'
p426
S'help'
p427
S'Wikipedia'
p428
tp429
a(S'He'
p430
S'served'
p431
Ntp432
a(S'He'
p433
S'served'
p434
Ntp435
a(S'Biesheuvel'
p436
S'served'
p437
Ntp438
a(S'leader'
p439
S'served'
p440
Ntp441
a(S'He'
p442
S'served'
p443
S'positions'
p444
tp445
a(S'he'
p446
S'resigned'
p447
g444
tp448
a(S'Aantjes'
p449
S'died'
p450
S'Netherlands'
p451
tp452
a(S'You'
p453
S'help'
p454
S'Wikipedia'
p455
tp456
a(S'Bills'
p457
S'drafted'
p458
S'He'
p459
tp460
a(S'style'
p461
S'earned'
p462
S'him'
p463
tp464
a(S'Marshawn'
p465
S'grew'
p466
S'California'
p467
tp468
a(S'mother'
p469
S'had'
p470
S'jobs'
p471
tp472
a(S'mother'
p473
S'work'
p474
g471
tp475
a(S'family'
p476
S'moving'
p477
Ntp478
a(S'Lynch'
p479
S'played'
p480
S'positions'
p481
tp482
a(S'He'
p483
S'is_member'
p484
Ntp485
a(S'He'
p486
S'served'
p487
Ntp488
a(S'Beccaria'
p489
S'died'
p490
Ntp491
a.(lp0
.(lp0
(S'she'
p1
S'shooting'
p2
Ntp3
a(S'father'
p4
S'is_worked'
p5
Ntp6
a(S'mother'
p7
S'is_teacher'
p8
Ntp9
a(S'She'
p10
S'has'
p11
S'brother'
p12
tp13
a(S'Barve'
p14
S'is_artist'
p15
Ntp16
a(S'Barve'
p17
S'completed'
p18
S'11'
p19
tp20
a(S'she'
p21
S'graduated'
p22
S'degree'
p23
tp24
a(S'Barve'
p25
S'is_admitted'
p26
Ntp27
a(S'Barve'
p28
S'is_awkward'
p29
Ntp30
a(S'she'
p31
S'moved'
p32
Ntp33
a(S'she'
p34
S'focus'
p35
Ntp36
a(S'Mukta'
p37
S'started'
p38
Ntp39
a(S'she'
p40
S'played'
p41
S'Lawyer'
p42
tp43
a(S'Mukta'
p44
S'won'
p45
S'acclaim'
p46
tp47
a(S'she'
p48
S'won'
p49
S'award'
p50
tp51
a(S'sitcom'
p52
S'is_reviews'
p53
Ntp54
a(S'rating'
p55
S'is_reviews'
p56
Ntp57
a(S'critics'
p58
S'acclaimed'
p59
S'performance'
p60
tp61
a(S'Mukta'
p62
S'made'
p63
S'it'
p64
tp65
a(S'debut'
p66
S'Chakwa'
p67
g64
tp68
a(S'Mukta'
p69
S'acted'
p70
S'film'
p71
tp72
a(S'Mukta'
p73
S'played'
p74
S'Suli'
p75
tp76
a(S'Limaye'
p77
S'forced'
p78
S'girl'
p79
tp80
a(S'deity'
p81
S'enters'
p82
S'relationship'
p83
tp84
a(S'Mukta'
p85
S'studied'
p86
S'life'
p87
tp88
a(S'Mukta'
p89
S'starred'
p90
Ntp91
a(S'He'
p92
S'played'
p93
Ntp94
a(S'McNabb'
p95
S'played'
p96
S'medal'
p97
tp98
a(S'Sabres'
p99
S'drafted'
p100
S'He'
p101
tp102
a(S'He'
p103
S'signed'
p104
S'contract'
p105
tp106
a(S'McNabb'
p107
S'made'
p108
S'debut'
p109
tp110
a(S'he'
p111
S'scored'
p112
S'goal'
p113
tp114
a(S'Sabres'
p115
S'traded'
p116
S'McNabb'
p117
tp118
a(S'You'
p119
S'help'
p120
S'Wikipedia'
p121
tp122
a(S'You'
p123
S'help'
p124
S'Wikipedia'
p125
tp126
a(S'Pseudogenes'
p127
S'is_genes'
p128
Ntp129
a(S'genes'
p130
S'lost'
p131
S'function'
p132
tp133
a(S'They'
p134
S'lost'
p135
S'expression'
p136
tp137
a(S'Pseudogenes'
p138
S'result'
p139
Ntp140
a(S'DNA'
p141
S'is_functional'
p142
Ntp143
a(S'It'
p144
S'is_similar'
p145
Ntp146
a(S'kinds'
p147
S'have'
p148
S'role'
p149
tp150
a(S'Most'
p151
S'have'
p152
S'gene'
p153
tp154
a(S'material'
p155
S'is'
p156
Ntp157
a(S'material'
p158
S'removed'
p159
Ntp160
a(S'Pseudogenes'
p161
S'contain'
p162
S'biological'
p163
tp164
a(S'This'
p165
S'is_due'
p166
Ntp167
a(S'seat'
p168
S'is_Haute'
p169
Ntp170
a(S'You'
p171
S'help'
p172
S'Wikipedia'
p173
tp174
a(S'He'
p175
S'served'
p176
Ntp177
a(S'He'
p178
S'died'
p179
Ntp180
a(S'You'
p181
S'help'
p182
S'Wikipedia'
p183
tp184
a(S'They'
p185
S'include'
p186
Ntp187
a(S'Testament'
p188
S'works'
p189
Ntp190
a(S'They'
p191
S'is_group'
p192
Ntp193
a(S'These'
p194
S'is_works'
p195
Ntp196
a(S'books'
p197
S'appear'
p198
Ntp199
a(S'It'
p200
S'is_answer'
p201
Ntp202
a(S'It'
p203
S'is_answer'
p204
Ntp205
a(S'defendant'
p206
S'raise'
p207
S'any'
p208
tp209
a(S'defendant'
p210
S'limit'
p211
g208
tp212
a(S'These'
p213
S'include'
p214
Ntp215
a(S'variety'
p216
S'are'
p217
Ntp218
a(S'Some'
p219
S'include'
p220
Ntp221
a(S'burden'
p222
S'be'
p223
S'innocence'
p224
tp225
a(S'burden'
p226
S'prove'
p227
g224
tp228
a(S'burden'
p229
S'rests'
p230
Ntp231
a(S'They'
p232
S'is_prove'
p233
Ntp234
a(S'defendant'
p235
S'is_guilty'
p236
Ntp237
a(S'Defense'
p238
S'refer'
p239
Ntp240
a(S'Drama'
p241
S'is_album'
p242
Ntp243
a(S'Records'
p244
S'released'
p245
S'It'
p246
tp247
a(S'You'
p248
S'is_album'
p249
Ntp250
a(S'Records'
p251
S'released'
p252
S'It'
p253
tp254
a(S'Gubbins'
p255
S'is_responsible'
p256
Ntp257
a(S'Queen'
p258
S'approved'
p259
S'proposal'
p260
tp261
a(S'It'
p262
S'reached'
p263
S'22'
p264
tp265
a(S'It'
p266
S'number'
p267
g264
tp268
a(S'it'
p269
S'reached'
p270
S'number'
p271
tp272
a(S'You'
p273
S'help'
p274
S'Wikipedia'
p275
tp276
a(S'Ashland'
p277
S'is_community'
p278
Ntp279
a(S'You'
p280
S'help'
p281
S'Wikipedia'
p282
tp283
a(S'Ashland'
p284
S'is_village'
p285
Ntp286
a(S'population'
p287
S'is_291'
p288
Ntp289
a(S'age'
p290
S'is_years'
p291
Ntp292
a(S'Ashland'
p293
S'is_part'
p294
Ntp295
a(S'mayor'
p296
S'is_Lee'
p297
Ntp298
a(S'council'
p299
S'consists'
p300
Ntp301
a(S'chief'
p302
S'is_Holland'
p303
Ntp304
a(S'fire'
p305
S'destroyed'
p306
S'houses'
p307
tp308
a(S'residents'
p309
S'escaped'
p310
S'injury'
p311
tp312
a(S'blaze'
p313
S'scorched'
p314
S'acres'
p315
tp316
a(S'It'
p317
S'is_tactic'
p318
Ntp319
a(S'tactic'
p320
S'buys'
p321
S'time'
p322
tp323
a(S'It'
p324
S'causes'
p325
S'casualties'
p326
tp327
a(S'defense'
p328
S'slow'
p329
S'army'
p330
tp331
a(S'them'
p332
S'lose'
p333
S'momentum'
p334
tp335
a(S'army'
p336
S'used'
p337
S'tactic'
p338
tp339
a(S'Germans'
p340
S'used'
p341
S'it'
p342
tp343
a(S'arrival'
p344
S'ended'
p345
S'French'
p346
tp347
a(S'defense'
p348
S'reduce'
p349
S'force'
p350
tp351
a(S'This'
p352
S'includes'
p353
S'numbers'
p354
tp355
a(S'defender'
p356
S'places'
p357
S'object'
p358
tp359
a(S'defenders'
p360
S'let'
p361
S'forces'
p362
tp363
a(S'attacker'
p364
S'wear'
p365
g362
tp366
a(S'they'
p367
S'give'
p368
S'ground'
p369
tp370
a(S'object'
p371
S'is'
p372
S'force'
p373
tp374
a(S'they'
p375
S'can'
p376
S'them'
p377
tp378
a(S'purpose'
p379
S'is'
p380
S'enemy'
p381
tp382
a(S'purpose'
p383
S'allow'
p384
g381
tp385
a(S'force'
p386
S'disengage'
p387
g381
tp388
a(S'Roland'
p389
S'commanded'
p390
S'rearguard'
p391
tp392
a(S'nephew'
p393
S'commanded'
p394
g391
tp395
a(S'He'
p396
S'protected'
p397
S'rear'
p398
tp399
a(S'they'
p400
S'retreated'
p401
Ntp402
a(S'this'
p403
S'delaying'
p404
S'action'
p405
tp406
a(S'You'
p407
S'help'
p408
S'Wikipedia'
p409
tp410
a(S'defence'
p411
S'is_action'
p412
Ntp413
a(S'term'
p414
S'refer'
p415
Ntp416
a(S'It'
p417
S'is_team'
p418
Ntp419
a(S'responsibility'
p420
S'is_defense'
p421
Ntp422
a(S'player'
p423
S'is_player'
p424
Ntp425
a(S'defender'
p426
S'protects'
p427
S'goalkeeper'
p428
tp429
a(S'This'
p430
S'is'
p431
S'polo'
p432
tp433
a(S'hockey'
p434
S'water'
p435
g432
tp436
a(S'defense'
p437
S'is_part'
p438
Ntp439
a(S'defense'
p440
S'consists'
p441
Ntp442
a(S'You'
p443
S'help'
p444
S'Wikipedia'
p445
tp446
a(S'He'
p447
S'played'
p448
Ntp449
a(S'Capitals'
p450
S'drafted'
p451
S'He'
p452
tp453
a(S'He'
p454
S'signed'
p455
S'contract'
p456
tp457
a(S'Eakin'
p458
S'made'
p459
Ntp460
a(S'debut'
p461
S'win'
p462
Ntp463
a(S'Eakin'
p464
S'scored'
p465
S'goal'
p466
tp467
a(S'Capitals'
p468
S'traded'
p469
S'Eakin'
p470
tp471
a(S'You'
p472
S'help'
p473
S'Wikipedia'
p474
tp475
a(S'You'
p476
S'help'
p477
S'Wikipedia'
p478
tp479
a(S'It'
p480
S'is_plant'
p481
Ntp482
a(S'It'
p483
S'is'
p484
Ntp485
a(S'fruit'
p486
S'has'
p487
S'seeds'
p488
tp489
a(S'plants'
p490
S'is_both'
p491
Ntp492
a(S'You'
p493
S'help'
p494
S'Wikipedia'
p495
tp496
a(S'season'
p497
S'is_season'
p498
Ntp499
a(S'They'
p500
S'finished'
p501
Ntp502
a(S'They'
p503
S'finished'
p504
Ntp505
a(S'They'
p506
S'earned'
p507
S'seed'
p508
tp509
a(S'Giants'
p510
S'got'
p511
Ntp512
a(S'game'
p513
S'was'
p514
Ntp515
a(S'Giants'
p516
S'won'
p517
S'game'
p518
tp519
a(S'team'
p520
S'met'
p521
Ntp522
a(S'games'
p523
S'is_opponents'
p524
Ntp525
a(S'they'
p526
S'faced'
p527
Ntp528
a(S'game'
p529
S'was'
p530
Ntp531
a.(lp0
(S'Giants'
p1
S'lost'
p2
S'games'
p3
tp4
a(S'they'
p5
S'won'
p6
Ntp7
a(S'Romo'
p8
S'throw'
p9
S'interception'
p10
tp11
a(S'game'
p12
S'was'
p13
Ntp14
a(S'Favre'
p15
S'threw'
p16
S'interception'
p17
tp18
a(S'Giants'
p19
S'won'
p20
Ntp21
a(S'Giants'
p22
S'played'
p23
S'Patriots'
p24
tp25
a(S'Patriots'
p26
S'completed'
p27
S'season'
p28
tp29
a(S'Tyree'
p30
S'caught'
p31
S'ball'
p32
tp33
a(S'Giants'
p34
S'won'
p35
S'game'
p36
tp37
a(S'game'
p38
S'is_upset'
p39
Ntp40
a(S'It'
p41
S'stopped'
p42
S'Patriots'
p43
tp44
a(S'team'
p45
S'was'
p46
S'Bowl'
p47
tp48
a(S'participant'
p49
S'win'
p50
g47
tp51
a(S'They'
p52
S'played'
p53
S'Dolphins'
p54
tp55
a(S'That'
p56
S'is_game'
p57
Ntp58
a(S'Giants'
p59
S'is_team'
p60
Ntp61
a(S'Giants'
p62
S'wore'
p63
S'jerseys'
p64
tp65
a(S'He'
p66
S'is_singer'
p67
Ntp68
a(S'He'
p69
S'starred'
p70
Ntp71
a(S'He'
p72
S'died'
p73
Ntp74
a(S'You'
p75
S'help'
p76
S'Wikipedia'
p77
tp78
a(S'Hits'
p79
S'is_album'
p80
Ntp81
a(S'Jamelia'
p82
S'is_said'
p83
Ntp84
a(S'It'
p85
S'is_time'
p86
Ntp87
a(S'I'
p88
S'recorded'
p89
Ntp90
a(S'Collection'
p91
S'is_album'
p92
Ntp93
a(S'Wikipedias'
p94
S'are'
p95
Ntp96
a(S'It'
p97
S'is_edition'
p98
Ntp99
a(S'You'
p100
S'help'
p101
S'Wikipedia'
p102
tp103
a(S'Wikipedia'
p104
S'is_version'
p105
Ntp106
a(S'It'
p107
S'is_edition'
p108
Ntp109
a(S'You'
p110
S'help'
p111
S'Wikipedia'
p112
tp113
a(S'family'
p114
S'is_set'
p115
Ntp116
a(S'They'
p117
S'occur'
p118
Ntp119
a(S'they'
p120
S'have'
p121
S'functions'
p122
tp123
a(S'idea'
p124
S'is_old'
p125
Ntp126
a(S'family'
p127
S'is_genes'
p128
Ntp129
a(S'genes'
p130
S'are'
p131
Ntp132
a(S'clusters'
p133
S'arisen'
p134
Ntp135
a(S'family'
p136
S'is_genes'
p137
Ntp138
a(S'genes'
p139
S'is_group'
p140
Ntp141
a(S'Genes'
p142
S'include'
p143
S'families'
p144
tp145
a(S'They'
p146
S'code'
p147
Ntp148
a(S'toll'
p149
S'is_sensors'
p150
Ntp151
a(S'season'
p152
S'is_season'
p153
Ntp154
a(S'Patriots'
p155
S'won'
p156
S'East'
p157
tp158
a(S'Patriots'
p159
S'won'
p160
S'sixteen'
p161
tp162
a(S'They'
p163
S'is_team'
p164
Ntp165
a(S'They'
p166
S'is_team'
p167
Ntp168
a(S'Lions'
p169
S'do'
p170
S'opposite'
p171
tp172
a(S'Patriots'
p173
S'have'
p174
Ntp175
a(S'Patriots'
p176
S'play'
p177
Ntp178
a(S'Loy'
p179
S'studied'
p180
Ntp181
a(S'Loy'
p182
S'died'
p183
Ntp184
a(S'You'
p185
S'help'
p186
S'Wikipedia'
p187
tp188
a(S'he'
p189
S'missed'
p190
S'an'
p191
tp192
a(S'He'
p193
S'holds'
p194
S'record'
p195
tp196
a(S'game'
p197
S'is_game'
p198
Ntp199
a(S'He'
p200
S'retired'
p201
Ntp202
a(S'You'
p203
S'help'
p204
S'Wikipedia'
p205
tp206
a(S'he'
p207
S'coached'
p208
S'Timberwolves'
p209
tp210
a(S'He'
p211
S'began'
p212
S'career'
p213
tp214
a(S'He'
p215
S'retired'
p216
Ntp217
a(S'He'
p218
S'studied'
p219
Ntp220
a(S'Saunders'
p221
S'died'
p222
Ntp223
a(S'You'
p224
S'help'
p225
S'Wikipedia'
p226
tp227
a(S'He'
p228
S'played'
p229
Ntp230
a(S'Polk'
p231
S'played'
p232
Ntp233
a(S'He'
p234
S'won'
p235
S'medal'
p236
tp237
a(S'Blues'
p238
S'drafted'
p239
S'He'
p240
tp241
a(S'Polk'
p242
S'made'
p243
S'debut'
p244
tp245
a(S'he'
p246
S'scored'
p247
S'goal'
p248
tp249
a(S'Blues'
p250
S'resigned'
p251
S'Polk'
p252
tp253
a(S'Blues'
p254
S'traded'
p255
S'Polk'
p256
tp257
a(S'You'
p258
S'help'
p259
S'Wikipedia'
p260
tp261
a(S'evidence'
p262
S'is_object'
p263
Ntp264
a(S'Evidence'
p265
S'is_show'
p266
Ntp267
a(S'something'
p268
S'is_true'
p269
Ntp270
a(S'Evidence'
p271
S'has'
p272
S'rules'
p273
tp274
a(S'Evidence'
p275
S'follow'
p276
g273
tp277
a(S'evidence'
p278
S'was'
p279
Ntp280
a(S'Congress'
p281
S'created'
p282
S'Rules'
p283
tp284
a(S'They'
p285
S'is_rules'
p286
Ntp287
a(S'forms'
p288
S'follow'
p289
Ntp290
a(S'China'
p291
S'followed'
p292
S'much'
p293
tp294
a(S'rules'
p295
S'are'
p296
S'kinds'
p297
tp298
a(S'rules'
p299
S'suppress'
p300
g297
tp301
a(S'this'
p302
S'is_evidence'
p303
Ntp304
a(S'that'
p305
S'violates'
p306
S'rights'
p307
tp308
a(S'evidence'
p309
S'is_relevant'
p310
Ntp311
a(S'it'
p312
S'is_reliable'
p313
Ntp314
a(S'cases'
p315
S'prejudice'
p316
S'jury'
p317
tp318
a(S'Gourds'
p319
S'are'
p320
Ntp321
a(S'They'
p322
S'are'
p323
Ntp324
a(S'shape'
p325
S'is'
p326
Ntp327
a(S'color'
p328
S'is_orange'
p329
Ntp330
a(S'You'
p331
S'help'
p332
S'Wikipedia'
p333
tp334
a(S'part'
p335
S'is_impartiality'
p336
Ntp337
a(S'It'
p338
S'is_important'
p339
Ntp340
a(S'judges'
p341
S'is_impartial'
p342
Ntp343
a(S'It'
p344
S'is_important'
p345
Ntp346
a(S'systems'
p347
S'is_impartial'
p348
Ntp349
a(S'themselves'
p350
S'is_impartial'
p351
Ntp352
a(S'Judges'
p353
S'cannot'
p354
S'party'
p355
tp356
a(S'Judges'
p357
S'learn'
p358
Ntp359
a(S'trial'
p360
S'begins'
p361
Ntp362
a(S'judge'
p363
S'have'
p364
S'opinion'
p365
tp366
a(S'judge'
p367
S'expresses'
p368
S'he'
p369
tp370
a(S'she'
p371
S'is_impartial'
p372
Ntp373
a(S'process'
p374
S'screened'
p375
S'juries'
p376
tp377
a(S'This'
p378
S'is_is'
p379
Ntp380
a(S'This'
p381
S'is_see'
p382
Ntp383
a(S'they'
p384
S'is_impartial'
p385
Ntp386
a(S'person'
p387
S'having'
p388
S'interest'
p389
tp390
a(S'It'
p391
S'is_rare'
p392
Ntp393
a(S'It'
p394
S'is_have'
p395
Ntp396
a(S'Trial'
p397
S'began'
p398
Ntp399
a(S'provision'
p400
S'is'
p401
S'trial'
p402
tp403
a(S'it'
p404
S'is'
p405
g402
tp406
a(S'Magistrates'
p407
S'tried'
p408
S'crimes'
p409
tp410
a(S'Charter'
p411
S'guarantees'
p412
S'right'
p413
tp414
a(S'who'
p415
S'is_triers'
p416
Ntp417
a(S'Judges'
p418
S'have'
p419
S'option'
p420
tp421
a(S'12'
p422
S'vote'
p423
Ntp424
a(S'Juries'
p425
S'have'
p426
S'jurors'
p427
tp428
a(S'council'
p429
S'is_able'
p430
Ntp431
a(S'council'
p432
S'is_strike'
p433
Ntp434
a(S'Many'
p435
S'believe'
p436
S'right'
p437
tp438
a(S'Carta'
p439
S'guaranteed'
p440
g437
tp441
a(S'term'
p442
S'is_class'
p443
Ntp444
a(S'it'
p445
S'mean'
p446
S'person'
p447
tp448
a(S'He'
p449
S'began'
p450
S'people'
p451
tp452
a(S'report'
p453
S'claimed'
p454
S'people'
p455
tp456
a(S'he'
p457
S'robbed'
p458
g455
tp459
a(S'government'
p460
S'set'
p461
S'escort'
p462
tp463
a(S'One'
p464
S'was'
p465
S'tents'
p466
tp467
a(S'One'
p468
S'rob'
p469
g466
tp470
a(S'they'
p471
S'is_digging'
p472
Ntp473
a(S'mob'
p474
S'captured'
p475
S'He'
p476
tp477
a(S'They'
p478
S'going'
p479
S'bushrangers'
p480
tp481
a(S'They'
p482
S'punish'
p483
g480
tp484
a(S'police'
p485
S'arrived'
p486
S'them'
p487
tp488
a(S'He'
p489
S'served'
p490
S'terms'
p491
tp492
a(S'he'
p493
S'died'
p494
Ntp495
a(S'Guischard'
p496
S'wrote'
p497
S'book'
p498
tp499
a(S'Russell'
p500
S'forgotten'
p501
S'it'
p502
tp503
a(S'It'
p504
S'present'
p505
S'it'
p506
tp507
a(S'You'
p508
S'help'
p509
S'Wikipedia'
p510
tp511
a(S'Douglas'
p512
S'refer'
p513
Ntp514
a(S'She'
p515
S'is_sister'
p516
Ntp517
a(S'She'
p518
S'is_member'
p519
Ntp520
a(S'it'
p521
S'ended'
p522
Ntp523
a(S'She'
p524
S'was'
p525
Ntp526
a(S'She'
p527
S'died'
p528
Ntp529
a.(lp0
(S'You'
p1
S'help'
p2
S'Wikipedia'
p3
tp4
a(S'Institute'
p5
S'is_establishment'
p6
Ntp7
a(S'school'
p8
S'is'
p9
Ntp10
a(S'itself'
p11
S'specialized'
p12
Ntp13
a(S'Institute'
p14
S'is_specialist'
p15
Ntp16
a(S'You'
p17
S'help'
p18
S'Wikipedia'
p19
tp20
a(S'He'
p21
S'served'
p22
Ntp23
a(S'He'
p24
S'is_Ambassador'
p25
Ntp26
a(S'he'
p27
S'fallen'
p28
Ntp29
a(S'He'
p30
S'was'
p31
Ntp32
a(S'All'
p33
S'felt'
p34
Ntp35
a(S'he'
p36
S'felt'
p37
Ntp38
a(S'he'
p39
S'retire'
p40
Ntp41
a(S'MacArthur'
p42
S'is_governor'
p43
Ntp44
a(S'Yoshida'
p45
S'is_minister'
p46
Ntp47
a(S'You'
p48
S'help'
p49
S'Wikipedia'
p50
tp51
a(S'Bowl'
p52
S'led'
p53
S'Frogs'
p54
tp55
a(S'He'
p56
S'left'
p57
S'program'
p58
tp59
a(S'He'
p60
S'holds'
p61
S'records'
p62
tp63
a(S'He'
p64
S'signed'
p65
S'contract'
p66
tp67
a(S'Green'
p68
S'is_combination'
p69
Ntp70
a(S'Dalton'
p71
S'is_one'
p72
Ntp73
a(S'others'
p74
S'is_Newton'
p75
Ntp76
a(S'Dalton'
p77
S'is_one'
p78
Ntp79
a(S'He'
p80
S'joins'
p81
S'Wilson'
p82
tp83
a(S'Dalton'
p84
S'is_quarterback'
p85
Ntp86
a(S'He'
p87
S'is_one'
p88
Ntp89
a(S'He'
p90
S'is_holder'
p91
Ntp92
a(S'You'
p93
S'help'
p94
S'Wikipedia'
p95
tp96
a(S'She'
p97
S'studied'
p98
Ntp99
a(S'she'
p100
S'is_Professor'
p101
Ntp102
a(S'she'
p103
S'married'
p104
S'Jardine'
p105
tp106
a(S'she'
p107
S'had'
p108
S'son'
p109
tp110
a(S'she'
p111
S'married'
p112
S'Hare'
p113
tp114
a(S'she'
p115
S'had'
p116
S'son'
p117
tp118
a(S'She'
p119
S'is_cousin'
p120
Ntp121
a(S'Jardine'
p122
S'died'
p123
Ntp124
a(S'He'
p125
S'hosted'
p126
S'programs'
p127
tp128
a(S'Walker'
p129
S'began'
p130
Ntp131
a(S'Hickman'
p132
S'retired'
p133
Ntp134
a(S'show'
p135
S'is_started'
p136
Ntp137
a(S'show'
p138
S'is_program'
p139
Ntp140
a(S'show'
p141
S'is_ranks'
p142
Ntp143
a(S'audience'
p144
S'is_young'
p145
Ntp146
a(S'Walker'
p147
S'is_blind'
p148
Ntp149
a(S'Walker'
p150
S'died'
p151
S'Maryland'
p152
tp153
a(S'You'
p154
S'help'
p155
S'Wikipedia'
p156
tp157
a(S'executives'
p158
S'blacklisted'
p159
S'She'
p160
tp161
a(S'You'
p162
S'help'
p163
S'Wikipedia'
p164
tp165
a(S'You'
p166
S'help'
p167
S'Wikipedia'
p168
tp169
a(S'career'
p170
S'began'
p171
Ntp172
a(S'She'
p173
S'retired'
p174
Ntp175
a(S'You'
p176
S'help'
p177
S'Wikipedia'
p178
tp179
a(S'Jolson'
p180
S'Sings'
p181
Ntp182
a(S'She'
p183
S'won'
p184
S'Award'
p185
tp186
a(S'You'
p187
S'help'
p188
S'Wikipedia'
p189
tp190
a(S'Zwolle'
p191
S'is_town'
p192
Ntp193
a(S'You'
p194
S'help'
p195
S'Wikipedia'
p196
tp197
a(S'Ringgold'
p198
S'is_town'
p199
Ntp200
a(S'You'
p201
S'help'
p202
S'Wikipedia'
p203
tp204
a(S'Gibsland'
p205
S'is_town'
p206
Ntp207
a(S'You'
p208
S'help'
p209
S'Wikipedia'
p210
tp211
a(S'injunction'
p212
S'is_order'
p213
Ntp214
a(S'Injunctions'
p215
S'is_temporary'
p216
Ntp217
a(S'order'
p218
S'is_examples'
p219
Ntp220
a(S'anything'
p221
S'influence'
p222
S'outcome'
p223
tp224
a(S'It'
p225
S'enforces'
p226
S'decision'
p227
tp228
a(S'They'
p229
S'prevent'
p230
S'abuse'
p231
tp232
a(S'person'
p233
S'violates'
p234
S'AVO'
p235
tp236
a(S'Kingdom'
p237
S'has'
p238
S'injunctions'
p239
tp240
a(S'they'
p241
S'super'
p242
S'injunctions'
p243
tp244
a(S'It'
p245
S'prevents'
p246
S'them'
p247
tp248
a(S'injunction'
p249
S'prevents'
p250
S'details'
p251
tp252
a(S'injunctions'
p253
S'is_orders'
p254
Ntp255
a(S'injunction'
p256
S'prevent'
p257
S'party'
p258
tp259
a(S'Tullos'
p260
S'is_town'
p261
Ntp262
a(S'You'
p263
S'help'
p264
S'Wikipedia'
p265
tp266
a(S'Springs'
p267
S'is_town'
p268
Ntp269
a(S'You'
p270
S'help'
p271
S'Wikipedia'
p272
tp273
a(S'It'
p274
S'is_seat'
p275
Ntp276
a(S'You'
p277
S'help'
p278
S'Wikipedia'
p279
tp280
a(S'Vivian'
p281
S'is_town'
p282
Ntp283
a(S'You'
p284
S'help'
p285
S'Wikipedia'
p286
tp287
a(S'He'
p288
S'served'
p289
S'district'
p290
tp291
a(S'term'
p292
S'ended'
p293
Ntp294
a(S'He'
p295
S'is_Republican'
p296
Ntp297
a(S'Barr'
p298
S'died'
p299
S'Washington'
p300
tp301
a(S'You'
p302
S'help'
p303
S'Wikipedia'
p304
tp305
a(S'Coushatta'
p306
S'is_town'
p307
Ntp308
a(S'You'
p309
S'help'
p310
S'Wikipedia'
p311
tp312
a(S'Eyedentify'
p313
S'is_game'
p314
Ntp315
a(S'player'
p316
S'is_controller'
p317
Ntp318
a(S'You'
p319
S'help'
p320
S'Wikipedia'
p321
tp322
a(S'judgment'
p323
S'is_decision'
p324
Ntp325
a(S'Judgments'
p326
S'provide'
p327
S'explanation'
p328
tp329
a(S'it'
p330
S'chosen'
p331
S'decision'
p332
tp333
a(S'it'
p334
S'make'
p335
g332
tp336
a(S'former'
p337
S'refers'
p338
Ntp339
a(S'it'
p340
S'did'
p341
Ntp342
a(S'latter'
p343
S'refers'
p344
Ntp345
a(S'judgement'
p346
S'is_part'
p347
Ntp348
a(S'law'
p349
S'is_laws'
p350
Ntp351
a(S'it'
p352
S'is_uncodified'
p353
Ntp354
a(S'collections'
p355
S'are'
p356
Ntp357
a(S'they'
p358
S'rely'
p359
Ntp360
a(S'Precedents'
p361
S'is_cases'
p362
Ntp363
a(S'They'
p364
S'is_binding'
p365
Ntp366
a(S'facts'
p367
S'is_similar'
p368
Ntp369
a(S'countries'
p370
S'use'
p371
S'law'
p372
tp373
a(S'reliance'
p374
S'is'
p375
Ntp376
a(S'Judges'
p377
S'make'
p378
S'understanding'
p379
tp380
a(S'decisions'
p381
S'make'
p382
g379
tp383
a(S'precedents'
p384
S'are'
p385
Ntp386
a(S'This'
p387
S'is_judge'
p388
Ntp389
a(S'ledislatures'
p390
S'made'
p391
S'law'
p392
tp393
a(S'courts'
p394
S'rule'
p395
S'statutes'
p396
tp397
a(S'they'
p398
S'go'
p399
Ntp400
a(S'judiciary'
p401
S'is_coequal'
p402
Ntp403
a(S'Judges'
p404
S'used'
p405
S'one'
p406
tp407
a(S'Judges'
p408
S'make'
p409
S'decisions'
p410
tp411
a(S'judge'
p412
S'brings'
p413
S'charges'
p414
tp415
a(S'They'
p416
S'investigate'
p417
S'facts'
p418
tp419
a(S'They'
p420
S'learn'
p421
g418
tp422
a(S'they'
p423
S'make'
p424
S'decision'
p425
tp426
a(S'decisions'
p427
S'is_part'
p428
Ntp429
a(S'laws'
p430
S'is_are'
p431
Ntp432
a(S'it'
p433
S'is_difficult'
p434
Ntp435
a(S'lawyers'
p436
S'know'
p437
S'laws'
p438
tp439
a(S'they'
p440
S'found'
p441
g438
tp442
a(S'laws'
p443
S'apply'
p444
Ntp445
a(S'court'
p446
S'research'
p447
S'everything'
p448
tp449
a(S'it'
p450
S'can'
p451
S'decision'
p452
tp453
a(S'those'
p454
S'start'
p455
S'what'
p456
tp457
a(S'case'
p458
S'know'
p459
g456
tp460
a(S'decision'
p461
S'be'
p462
Ntp463
a(S'lien'
p464
S'is_record'
p465
Ntp466
a(S'lien'
p467
S'refers'
p468
Ntp469
a(S'It'
p470
S'includes'
p471
S'forms'
p472
tp473
a(S'lien'
p474
S'is_interests'
p475
Ntp476
a(S'holder'
p477
S'possess'
p478
S'property'
p479
tp480
a(S'lien'
p481
S'refers'
p482
Ntp483
a.(lp0
(S'it'
p1
S'refers'
p2
Ntp3
a(S'Joshi'
p4
S'launched'
p5
S'company'
p6
tp7
a(S'Joshi'
p8
S'launched'
p9
S'MajorFm'
p10
tp11
a(S'he'
p12
S'launched'
p13
S'UKRecordShop'
p14
tp15
a(S'he'
p16
S'founded'
p17
S'events'
p18
tp19
a(S'jurist'
p20
S'gave'
p21
S'career'
p22
tp23
a(S'jurist'
p24
S'monk'
p25
g22
tp26
a(S'he'
p27
S'is_Archbishop'
p28
Ntp29
a(S'This'
p30
S'is_peak'
p31
Ntp32
a(S'father'
p33
S'held'
p34
S'equivalent'
p35
tp36
a(S'He'
p37
S'crossed'
p38
S'Alps'
p39
tp40
a(S'1039'
p41
S'is_master'
p42
Ntp43
a(S'he'
p44
S'is_master'
p45
Ntp46
a(S'He'
p47
S'taught'
p48
Ntp49
a(S'he'
p50
S'gave'
p51
S'this'
p52
tp53
a(S'He'
p54
S'is_prior'
p55
Ntp56
a(S'He'
p57
S'is_friend'
p58
Ntp59
a(S'Lanfranc'
p60
S'is_abbot'
p61
Ntp62
a(S'Maurilius'
p63
S'died'
p64
S'position'
p65
tp66
a(S'Lanfrac'
p67
S'declined'
p68
g65
tp69
a(S'He'
p70
S'is_able'
p71
Ntp72
a(S'He'
p73
S'is_do'
p74
Ntp75
a(S'It'
p76
S'is_likely'
p77
Ntp78
a(S'William'
p79
S'had'
p80
S'something'
p81
tp82
a(S'legates'
p83
S'deposed'
p84
S'Archbishop'
p85
tp86
a(S'William'
p87
S'brought'
p88
S'Lanfranc'
p89
tp90
a(S'William'
p91
S'Archbishop'
p92
g89
tp93
a(S'He'
p94
S'studied'
p95
S'Degree'
p96
tp97
a(S'father'
p98
S'supported'
p99
S'royalty'
p100
tp101
a(S'Fighters'
p102
S'assinated'
p103
S'father'
p104
tp105
a(S'Pakistanis'
p106
S'Kept'
p107
S'Malik'
p108
tp109
a(S'Gwadar'
p110
S'joining'
p111
S'Balochistan'
p112
tp113
a(S'he'
p114
S'spent'
p115
S'rest'
p116
tp117
a(S'Government'
p118
S'provided'
p119
S'House'
p120
tp121
a(S'He'
p122
S'died'
p123
Ntp124
a(S'fall'
p125
S'Returned'
p126
Ntp127
a(S'He'
p128
S'is_Descendant'
p129
Ntp130
a(S'He'
p131
S'is'
p132
S'ruler'
p133
tp134
a(S'Uncle'
p135
S'Said'
p136
g133
tp137
a(S'nights'
p138
S'is'
p139
S'you'
p140
tp141
a(S'game'
p142
S'consists'
p143
g140
tp144
a(S'game'
p145
S'have'
p146
g140
tp147
a(S'game'
p148
S'close'
p149
g140
tp150
a(S'it'
p151
S'have'
p152
g140
tp153
a(S'it'
p154
S'close'
p155
g140
tp156
a(S'pizzeria'
p157
S'have'
p158
g140
tp159
a(S'pizzeria'
p160
S'close'
p161
g140
tp162
a(S'you'
p163
S'have'
p164
g140
tp165
a(S'you'
p166
S'close'
p167
g140
tp168
a(S'robots'
p169
S'have'
p170
g140
tp171
a(S'robots'
p172
S'close'
p173
g140
tp174
a(S'that'
p175
S'have'
p176
g140
tp177
a(S'that'
p178
S'close'
p179
g140
tp180
a(S'freddy'
p181
S'chica'
p182
g140
tp183
a(S'foxy'
p184
S'try'
p185
g140
tp186
a(S'foxy'
p187
S'stuff'
p188
g140
tp189
a(S'you'
p190
S'have'
p191
S'them'
p192
tp193
a(S'you'
p194
S'close'
p195
g192
tp196
a(S'them'
p197
S'have'
p198
g192
tp199
a(S'them'
p200
S'close'
p201
g192
tp202
a(S'you'
p203
S'have'
p204
g192
tp205
a(S'you'
p206
S'close'
p207
g192
tp208
a(S'power'
p209
S'shuts'
p210
Ntp211
a(S'it'
p212
S'consists'
p213
S'characters'
p214
tp215
a(S'that'
p216
S'are'
p217
S'mask'
p218
tp219
a(S'time'
p220
S'are'
p221
g218
tp222
a(S'doors'
p223
S'are'
p224
g218
tp225
a(S'you'
p226
S'have'
p227
g218
tp228
a(S'mask'
p229
S'needs'
p230
S'power'
p231
tp232
a(S'it'
p233
S'consists'
p234
S'characters'
p235
tp236
a(S'characters'
p237
S'is_chica'
p238
Ntp239
a(S'boy'
p240
S'is_puppet'
p241
Ntp242
a(S'all'
p243
S'is_dead'
p244
Ntp245
a(S'they'
p246
S'dont'
p247
S'you'
p248
tp249
a(S'character'
p250
S'is_able'
p251
Ntp252
a(S'character'
p253
S'is_kill'
p254
Ntp255
a(S'you'
p256
S'prevent'
p257
S'that'
p258
tp259
a(S'all'
p260
S'malfunction'
p261
S'them'
p262
tp263
a(S'you'
p264
S'have'
p265
g262
tp266
a(S'you'
p267
S'reeboot'
p268
g262
tp269
a(S'you'
p270
S'have'
p271
S'source'
p272
tp273
a(S'time'
p274
S'have'
p275
S'flashlight'
p276
tp277
a(S'time'
p278
S'survive'
p279
g276
tp280
a(S'you'
p281
S'have'
p282
g276
tp283
a(S'you'
p284
S'survive'
p285
g276
tp286
a(S'you'
p287
S'is_kid'
p288
Ntp289
a(S'kid'
p290
S'brought'
p291
S'animals'
p292
tp293
a(S'he'
p294
S'thinks'
p295
Ntp296
a(S'they'
p297
S'are'
p298
Ntp299
a(S'interest'
p300
S'is_claim'
p301
Ntp302
a(S'collateral'
p303
S'is_estate'
p304
Ntp305
a(S'Collateral'
p306
S'secure'
p307
S'loan'
p308
tp309
a(S'borrower'
p310
S'is_party'
p311
Ntp312
a(S'party'
p313
S'borrows'
p314
S'funds'
p315
tp316
a(S'lender'
p317
S'is_one'
p318
Ntp319
a(S'one'
p320
S'lends'
p321
S'money'
p322
tp323
a(S'lender'
p324
S'repossess'
p325
S'asset'
p326
tp327
a(S'borrower'
p328
S'fails'
p329
S'loan'
p330
tp331
a(S'borrower'
p332
S'repay'
p333
g330
tp334
a(S'lender'
p335
S'sell'
p336
S'asset'
p337
tp338
a(S'lender'
p339
S'repay'
p340
g337
tp341
a(S'nothing'
p342
S'is'
p343
S'nothing'
p344
tp345
a(S'lender'
p346
S'repossess'
p347
Ntp348
a(S'types'
p349
S'are'
p350
Ntp351
a(S'He'
p352
S'published'
p353
S'book'
p354
tp355
a(S'He'
p356
S'is_author'
p357
Ntp358
a(S'He'
p359
S'written'
p360
S'stories'
p361
tp362
a(S'he'
p363
S'is_filmmaker'
p364
Ntp365
a(S'He'
p366
S'is_instrumental'
p367
Ntp368
a(S'preacher'
p369
S'influenced'
p370
S'generation'
p371
tp372
a(S'Carpenter'
p373
S'inherited'
p374
S'belief'
p375
tp376
a(S'this'
p377
S'is_meant'
p378
Ntp379
a(S'causes'
p380
S'is_explanation'
p381
Ntp382
a(S'we'
p383
S'find'
p384
S'it'
p385
tp386
a(S'William'
p387
S'embraced'
p388
S'cosmogeny'
p389
tp390
a(S'researches'
p391
S'gave'
p392
S'impetus'
p393
tp394
a(S'He'
p395
S'observed'
p396
Ntp397
a(S'system'
p398
S'operates'
p399
Ntp400
a(S'Helmholtz'
p401
S'made'
p402
S'observations'
p403
tp404
a(S'views'
p405
S'were'
p406
Ntp407
a(S'Carpenter'
p408
S'noticed'
p409
S'mechanism'
p410
tp411
a(S'he'
p412
S'studied'
p413
g410
tp414
a(S'it'
p415
S'became'
p416
S'awareness'
p417
tp418
a(S'it'
p419
S'operates'
p420
g417
tp421
a(S'He'
p422
S'is_noticed'
p423
Ntp424
a(S'prejudices'
p425
S'is_stronger'
p426
Ntp427
a(S'they'
p428
S'is_dangerous'
p429
Ntp430
a(S'they'
p431
S'happen'
p432
Ntp433
a(S'He'
p434
S'noticed'
p435
Ntp436
a(S'reactions'
p437
S'occur'
p438
Ntp439
a(S'He'
p440
S'asserted'
p441
S'freedom'
p442
tp443
a(S'he'
p444
S'is_nown'
p445
Ntp446
a(S'he'
p447
S'won'
p448
S'prize'
p449
tp450
a(S'It'
p451
S'is_one'
p452
Ntp453
a(S'detector'
p454
S'detect'
p455
S'particles'
p456
tp457
a(S'device'
p458
S'detect'
p459
g456
tp460
a(S'track'
p461
S'detect'
p462
g456
tp463
a(S'decay'
p464
S'made'
p465
S'particles'
p466
tp467
a(S'They'
p468
S'measure'
p469
S'things'
p470
tp471
a(S'Detectors'
p472
S'is_big'
p473
Ntp474
a(S'They'
p475
S'is_expensive'
p476
Ntp477
a(S'they'
p478
S'count'
p479
S'particles'
p480
tp481
a(S'principles'
p482
S'detect'
p483
S'particles'
p484
tp485
a(S'detectors'
p486
S'measure'
p487
S'amount'
p488
tp489
a(S'people'
p490
S'protect'
p491
S'themselves'
p492
tp493
a(S'Others'
p494
S'study'
p495
S'physics'
p496
tp497
a(S'rights'
p498
S'include'
p499
Ntp500
a(S'rights'
p501
S'include'
p502
Ntp503
a(S'Wolfratshausen'
p504
S'is_town'
p505
Ntp506
a(S'You'
p507
S'help'
p508
S'Wikipedia'
p509
tp510
a(S'Raizada'
p511
S'is_character'
p512
Ntp513
a(S'Arnav'
p514
S'is_ruthless'
p515
Ntp516
a(S'He'
p517
S'loves'
p518
S'sister'
p519
tp520
a(S'Raizada'
p521
S'is_magnate'
p522
Ntp523
a(S'He'
p524
S'is_owner'
p525
Ntp526
a(S'He'
p527
S'is_ruthless'
p528
Ntp529
a(S'He'
p530
S'has'
p531
S'misconception'
p532
tp533
a(S'money'
p534
S'is_thing'
p535
Ntp536
a(S'He'
p537
S'is_atheist'
p538
Ntp539
a(S'He'
p540
S'believe'
p541
S'relationship'
p542
tp543
a(S'he'
p544
S'loves'
p545
S'Anjali'
p546
tp547
a(S'He'
p548
S'suffers'
p549
Ntp550
a(S'He'
p551
S'has'
p552
S'hobbies'
p553
tp554
a(S'Arnav'
p555
S'has'
p556
S'past'
p557
tp558
a(S'father'
p559
S'had'
p560
S'affair'
p561
tp562
a(S'mother'
p563
S'came'
p564
S'suicide'
p565
tp566
a(S'mother'
p567
S'know'
p568
g565
tp569
a(S'she'
p570
S'committed'
p571
g565
tp572
a(S'father'
p573
S'commits'
p574
S'suicide'
p575
tp576
a(S'Arnav'
p577
S'looses'
p578
Ntp579
a(S'uncle'
p580
S'thrown'
p581
S'parents'
p582
tp583
a(S'incidents'
p584
S'turn'
p585
S'Arnav'
p586
tp587
a(S'individual'
p588
S'believe'
p589
Ntp590
a(S'Arnav'
p591
S'struggles'
p592
S'empire'
p593
tp594
a(S'person'
p595
S'is_sister'
p596
Ntp597
a(S'he'
p598
S'is_loves'
p599
Ntp600
a(S'He'
p601
S'cares'
p602
S'lot'
p603
tp604
a(S'He'
p605
S'is'
p606
S'her'
p607
tp608
a(S'Gupta'
p609
S'works'
p610
Ntp611
a(S'he'
p612
S'does'
p613
S'marriage'
p614
tp615
a(S'Khushi'
p616
S'starts'
p617
Ntp618
a(S'two'
p619
S'fall'
p620
Ntp621
a(S'Arnav'
p622
S'is_comes'
p623
Ntp624
a(S'Arnav'
p625
S'is_know'
p626
Ntp627
a(S'Khushi'
p628
S'is_innocent'
p629
Ntp630
a(S'Shyam'
p631
S'is_culprit'
p632
Ntp633
a(S'aunt'
p634
S'is_lady'
p635
Ntp636
a(S'lady'
p637
S'was'
p638
Ntp639
a(S'Arnav'
p640
S'is'
p641
S'Khushi'
p642
tp643
a(S'he'
p644
S'is_understands'
p645
Ntp646
a(S'pasts'
p647
S'is_fault'
p648
Ntp649
a(S'Arav'
p650
S'enters'
p651
S'life'
p652
tp653
a(S'rav'
p654
S'resembles'
p655
Ntp656
a(S'Sheetal'
p657
S'misleads'
p658
S'Arnav'
p659
tp660
a(S'Arav'
p661
S'is_hers'
p662
Ntp663
a(S'Arnav'
p664
S'exposes'
p665
S'Sheetal'
p666
tp667
a(S'Arnav'
p668
S'adopts'
p669
S'Arav'
p670
tp671
a(S'This'
p672
S'is_one'
p673
Ntp674
a(S'Sobti'
p675
S'portrayed'
p676
S'awards'
p677
tp678
a(S'Raizada'
p679
S'achieved'
p680
g677
tp681
a(S'character'
p682
S'include'
p683
Ntp684
a(S'character'
p685
S'made'
p686
S'fan'
p687
tp688
a(S'him'
p689
S'increased'
p690
g687
tp691
a(S'family'
p692
S'is_merchants'
p693
Ntp694
a(S'he'
p695
S'started'
p696
Ntp697
a(S'Alquist'
p698
S'is_painter'
p699
Ntp700
a(S'he'
p701
S'is_student'
p702
Ntp703
a(S'he'
p704
S'is_representative'
p705
Ntp706
a(S'Schnars'
p707
S'made'
p708
S'voyages'
p709
tp710
a(S'Alquist'
p711
S'made'
p712
g709
tp713
a(S'voyages'
p714
S'taught'
p715
S'him'
p716
tp717
a(S'voyages'
p718
S'paint'
p719
g716
tp720
a(S'voyages'
p721
S'calm'
p722
g716
tp723
a(S'He'
p724
S'is_member'
p725
Ntp726
a(S'He'
p727
S'received'
p728
S'medal'
p729
tp730
a(S'Alquist'
p731
S'is_member'
p732
Ntp733
a(S'He'
p734
S'belonged'
p735
Ntp736
a(S'You'
p737
S'help'
p738
S'Wikipedia'
p739
tp740
a(S'Pleading'
p741
S'is_step'
p742
Ntp743
a(S'This'
p744
S'is'
p745
S'claims'
p746
tp747
a(S'parties'
p748
S'submit'
p749
g746
tp750
a(S'complaint'
p751
S'is_pleading'
p752
Ntp753
a(S'plaintiff'
p754
S'starts'
p755
S'lawsuit'
p756
tp757
a(S'complaint'
p758
S'lists'
p759
S'allegations'
p760
tp761
a(S'allegations'
p762
S'leads'
p763
Ntp764
a(S'It'
p765
S'has'
p766
S'prayer'
p767
tp768
a(S'party'
p769
S'is_respondent'
p770
Ntp771
a(S'pleading'
p772
S'called'
p773
S'bill'
p774
tp775
a(S'complaint'
p776
S'is_document'
p777
Ntp778
a(S'document'
p779
S'establishes'
p780
S'facts'
p781
tp782
a(S'complaint'
p783
S'list'
p784
S'reasons'
p785
tp786
a(S'it'
p787
S'ask'
p788
Ntp789
a(S'defendant'
p790
S'receives'
p791
S'notice'
p792
tp793
a(S'they'
p794
S'reply'
p795
Ntp796
a(S'Complaints'
p797
S'is_pleadings'
p798
Ntp799
a(S'pleadings'
p800
S'state'
p801
S'facts'
p802
tp803
a(S'this'
p804
S'requires'
p805
S'help'
p806
tp807
a(S'filing'
p808
S'started'
p809
S'types'
p810
tp811
a.(lp0
(S'This'
p1
S'is_authority'
p2
Ntp3
a(S'laws'
p4
S'were'
p5
S'statutes'
p6
tp7
a(S'who'
p8
S'enforces'
p9
g6
tp10
a(S'prosecutor'
p11
S'associated'
p12
S'complaint'
p13
tp14
a(S'It'
p15
S'has'
p16
S'role'
p17
tp18
a(S'It'
p19
S'is_one'
p20
Ntp21
a(S'bacteria'
p22
S'have'
p23
S'enzymes'
p24
tp25
a(S'animals'
p26
S'convert'
p27
S'it'
p28
tp29
a(S'they'
p30
S'need'
p31
Ntp32
a(S'foods'
p33
S'is_source'
p34
Ntp35
a(S'some'
p36
S'produced'
p37
S'It'
p38
tp39
a(S'Carnivores'
p40
S'eat'
p41
S'herbivores'
p42
tp43
a(S'algae'
p44
S'get'
p45
S'it'
p46
tp47
a(S'vitamin'
p48
S'is_largest'
p49
Ntp50
a(S'fermentation'
p51
S'produced'
p52
S'It'
p53
tp54
a(S'B12'
p55
S'is_group'
p56
Ntp57
a(S'It'
p58
S'contains'
p59
S'cobalt'
p60
tp61
a(S'relationship'
p62
S'discovered'
p63
S'B12'
p64
tp65
a(S'anemia'
p66
S'is_disease'
p67
Ntp68
a(S'factor'
p69
S'absorbed'
p70
S'deficiency'
p71
tp72
a(S'lack'
p73
S'causes'
p74
g71
tp75
a(S'Americas'
p76
S'is_important'
p77
Ntp78
a(S'reputation'
p79
S'is_good'
p80
Ntp81
a(S'he'
p82
S'fought'
p83
S'ideas'
p84
tp85
a(S'He'
p86
S'thought'
p87
Ntp88
a(S'races'
p89
S'were'
p90
Ntp91
a(S'comment'
p92
S'is_interesting'
p93
Ntp94
a(S'he'
p95
S'is_emigrated'
p96
Ntp97
a(S'He'
p98
S'founded'
p99
S'Museum'
p100
tp101
a(S'He'
p102
S'founded'
p103
S'glaciology'
p104
tp105
a(S'Group'
p106
S'acquired'
p107
S'it'
p108
tp109
a(S'Leader'
p110
S'is_Melnichek'
p111
Ntp112
a(S'It'
p113
S'is_one'
p114
Ntp115
a(S'It'
p116
S'is_capable'
p117
Ntp118
a(S'Construction'
p119
S'began'
p120
Ntp121
a(S'Cruachan'
p122
S'uses'
p123
S'water'
p124
tp125
a(S'electricity'
p126
S'generated'
p127
g124
tp128
a(S'electricity'
p129
S'pump'
p130
g124
tp131
a(S'It'
p132
S'provide'
p133
S'power'
p134
tp135
a(S'station'
p136
S'is_open'
p137
Ntp138
a(S'Geoglyphs'
p139
S'is_number'
p140
Ntp141
a(S'260'
p142
S'are'
p143
Ntp144
a(S'shapes'
p145
S'is_squares'
p146
Ntp147
a(S'figures'
p148
S'range'
p149
Ntp150
a(S'placing'
p151
S'dug'
p152
S'some'
p153
tp154
a(S'results'
p155
S'indicate'
p156
Ntp157
a(S'they'
p158
S'date'
p159
Ntp160
a(S'Dey'
p161
S'discovered'
p162
S'earthworks'
p163
tp164
a(S'He'
p165
S'found'
p166
S'them'
p167
tp168
a(S'he'
p169
S'looking'
p170
Ntp171
a(S'right'
p172
S'is'
p173
S'rule'
p174
tp175
a(S'right'
p176
S'respecting'
p177
g174
tp178
a(S'verdict'
p179
S'voided'
p180
Ntp181
a(S'law'
p182
S'is_is'
p183
Ntp184
a(S'law'
p185
S'is_defines'
p186
Ntp187
a(S'what'
p188
S'is_trial'
p189
Ntp190
a(S'right'
p191
S'vary'
p192
Ntp193
a(S'process'
p194
S'is_requirement'
p195
Ntp196
a(S'government'
p197
S'respect'
p198
S'rights'
p199
tp200
a(S'process'
p201
S'balances'
p202
S'power'
p203
tp204
a(S'government'
p205
S'harms'
p206
S'person'
p207
tp208
a(S'this'
p209
S'is_violation'
p210
Ntp211
a(S'violation'
p212
S'offends'
p213
S'rule'
p214
tp215
a(S'This'
p216
S'means'
p217
S'fairness'
p218
tp219
a(S'judgesinstead'
p220
S'define'
p221
g218
tp222
a(S'interpretation'
p223
S'is_proven'
p224
Ntp225
a(S'government'
p226
S'is_unfair'
p227
Ntp228
a(S'it'
p229
S'is_recognizes'
p230
Ntp231
a(S'concepts'
p232
S'is_justice'
p233
Ntp234
a(S'It'
p235
S'contains'
p236
S'rights'
p237
tp238
a(S'process'
p239
S'developed'
p240
Ntp241
a(S'Carta'
p242
S'is_called'
p243
Ntp244
a(S'it'
p245
S'is_law'
p246
Ntp247
a(S'Amendment'
p248
S'says'
p249
Ntp250
a(S'person'
p251
S'shallbe'
p252
Ntp253
a(S'Post'
p254
S'is_actress'
p255
Ntp256
a(S'Post'
p257
S'acted'
p258
Ntp259
a(S'family'
p260
S'moved'
p261
Ntp262
a(S'she'
p263
S'studied'
p264
S'acting'
p265
tp266
a(S'she'
p267
S'spent'
p268
S'year'
p269
tp270
a(S'Saskia'
p271
S'studied'
p272
S'drama'
p273
tp274
a(S'She'
p275
S'took'
p276
S'classes'
p277
tp278
a(S'Post'
p279
S'got'
p280
S'role'
p281
tp282
a(S'She'
p283
S'played'
p284
S'Sleven'
p285
tp286
a(S'program'
p287
S'is_series'
p288
Ntp289
a(S'Post'
p290
S'moved'
p291
S'1984'
p292
tp293
a(S'Post'
p294
S'work'
p295
g292
tp296
a(S'she'
p297
S'had'
p298
Ntp299
a(S'Post'
p300
S'appeared'
p301
Ntp302
a(S'Post'
p303
S'had'
p304
S'role'
p305
tp306
a(S'movie'
p307
S'is'
p308
S'house'
p309
tp310
a(S'Anna'
p311
S'is_addict'
p312
Ntp313
a(S'addict'
p314
S'dies'
p315
Ntp316
a(S'Post'
p317
S'acted'
p318
Ntp319
a(S'These'
p320
S'include'
p321
S'Train'
p322
tp323
a(S'I'
p324
S'Have'
p325
S'Dance'
p326
tp327
a(S'Bridge'
p328
S'is_bridge'
p329
Ntp330
a(S'It'
p331
S'is_bridge'
p332
Ntp333
a(S'It'
p334
S'connects'
p335
S'Island'
p336
tp337
a(S'It'
p338
S'crosses'
p339
S'Channel'
p340
tp341
a(S'bridge'
p342
S'is_route'
p343
Ntp344
a(S'It'
p345
S'opened'
p346
Ntp347
a(S'vehicles'
p348
S'access'
p349
S'elevator'
p350
tp351
a(S'Island'
p352
S'was'
p353
g350
tp354
a(S'Department'
p355
S'considered'
p356
S'Bridge'
p357
tp358
a(S'This'
p359
S'was'
p360
S'cost'
p361
tp362
a(S'This'
p363
S'reduce'
p364
g361
tp365
a(S'Most'
p366
S'occur'
p367
Ntp368
a(S'ships'
p369
S'go'
p370
S'distance'
p371
tp372
a(S'bridge'
p373
S'is_100'
p374
Ntp375
a(S'bridge'
p376
S'is_wide'
p377
Ntp378
a(S'length'
p379
S'is_2877'
p380
Ntp381
a(S'Bridge'
p382
S'provides'
p383
S'access'
p384
tp385
a(S'Garage'
p386
S'minimize'
p387
S'traffic'
p388
tp389
a(S'Below'
p390
S'is_list'
p391
Ntp392
a(S'countries'
p393
S'ratified'
p394
S'constitution'
p395
tp396
a(S'Chile'
p397
S'agreed'
p398
S'part'
p399
tp400
a(S'Chile'
p401
S'take'
p402
g399
tp403
a(S'It'
p404
S'is_part'
p405
Ntp406
a(S'list'
p407
S'continues'
p408
Ntp409
a(S'list'
p410
S'grow'
p411
Ntp412
a(S'places'
p413
S'are'
p414
Ntp415
a(S'places'
p416
S'are'
p417
Ntp418
a(S'sites'
p419
S'are'
p420
Ntp421
a(S'sites'
p422
S'are'
p423
Ntp424
a(S'List'
p425
S'consists'
p426
Ntp427
a(S'style'
p428
S'mixes'
p429
S'rhythms'
p430
tp431
a(S'concerts'
p432
S'is_notable'
p433
Ntp434
a(S'member'
p435
S'dances'
p436
Ntp437
a(S'Bosstones'
p438
S'grew'
p439
Ntp440
a(S'Answers'
p441
S'is_sold'
p442
Ntp443
a(S'they'
p444
S'appeared'
p445
S'copies'
p446
tp447
a(S'band'
p448
S'Let'
p449
g446
tp450
a(S'album'
p451
S'Let'
p452
g446
tp453
a(S'which'
p454
S'sold'
p455
g446
tp456
a(S'single'
p457
S'Impression'
p458
S'20'
p459
tp460
a(g324
S'Get'
p461
g459
tp462
a(S'which'
p463
S'charted'
p464
g459
tp465
a(S'singles'
p466
S'is_able'
p467
Ntp468
a(S'singles'
p469
S'is_meet'
p470
Ntp471
a(S'band'
p472
S'kept'
p473
S'following'
p474
tp475
a(S'Bosstones'
p476
S'disbanded'
p477
S'touring'
p478
tp479
a(S'Arena'
p480
S'is_stadium'
p481
Ntp482
a(S'parken'
p483
S'is_ground'
p484
Ntp485
a(S'Arena'
p486
S'is_ground'
p487
Ntp488
a(S'It'
p489
S'is_ground'
p490
Ntp491
a(S'poem'
p492
S'is_hymn'
p493
Ntp494
a(S'He'
p495
S'was'
p496
S'poetry'
p497
tp498
a(S'herdsman'
p499
S'produced'
p500
g497
tp501
a(S'This'
p502
S'is_poetry'
p503
Ntp504
a(S'we'
p505
S'have'
p506
Ntp507
a(S'Much'
p508
S'is_difficult'
p509
Ntp510
a(S'It'
p511
S'is_possible'
p512
Ntp513
a(S'It'
p514
S'is_identify'
p515
Ntp516
a(S'manuscripts'
p517
S'known'
p518
S'poetry'
p519
tp520
a(S'it'
p521
S'survives'
p522
Ntp523
a(S'manuscripts'
p524
S'are'
p525
Ntp526
a(S'fragments'
p527
S'is_show'
p528
Ntp529
a(S'it'
p530
S'is_unique'
p531
Ntp532
a(S'genres'
p533
S'include'
p534
S'verse'
p535
tp536
a(S'rhyme'
p537
S'is_included'
p538
Ntp539
a(S'piece'
p540
S'is_piece'
p541
Ntp542
a(S'piece'
p543
S'is_popular'
p544
Ntp545
a(S'artists'
p546
S'adopted'
p547
S'piece'
p548
tp549
a(S'them'
p550
S'decorated'
p551
Ntp552
a(S'Wallace'
p553
S'paid'
p554
S'piece'
p555
tp556
a(S'he'
p557
S'give'
p558
S'those'
p559
tp560
a(S'he'
p561
S'worked'
p562
S'himself'
p563
tp564
a.(lp0
(S'sudhaar'
p1
S'is_finance'
p2
Ntp3
a(S'Recordings'
p4
S'released'
p5
S'song'
p6
tp7
a(S'song'
p8
S'is'
p9
Ntp10
a(S'she'
p11
S'performed'
p12
S'song'
p13
tp14
a(S'Rihanna'
p15
S'opened'
p16
S'Awards'
p17
tp18
a(S'Rihanna'
p19
S'performed'
p20
S'song'
p21
tp22
a(S'Awards'
p23
S'took'
p24
S'place'
p25
tp26
a(S'Rihanna'
p27
S'wore'
p28
S'gown'
p29
tp30
a(S'Concerts'
p31
S'raise'
p32
S'awareness'
p33
tp34
a(S'list'
p35
S'featured'
p36
S'Up'
p37
tp38
a(S'She'
p39
S'performed'
p40
S'songs'
p41
tp42
a(S'Rihanna'
p43
S'performed'
p44
Ntp45
a(S'Rihanna'
p46
S'performed'
p47
S'Music'
p48
tp49
a(S'she'
p50
S'is_performed'
p51
Ntp52
a(S'Rihanna'
p53
S'appear'
p54
S'single'
p55
tp56
a(S'She'
p57
S'performed'
p58
S'series'
p59
tp60
a(S'Cardle'
p61
S'won'
p62
g59
tp63
a(S'Rihanna'
p64
S'embarked'
p65
Ntp66
a(S'Rihanna'
p67
S'performed'
p68
S'song'
p69
tp70
a(S'fan'
p71
S'blowing'
p72
S'skirt'
p73
tp74
a(S'He'
p75
S'went'
p76
Ntp77
a(S'Roberts'
p78
S'played'
p79
Ntp80
a(S'He'
p81
S'won'
p82
S'Cups'
p83
tp84
a(S'He'
p85
S'retired'
p86
Ntp87
a(S'Roberts'
p88
S'died'
p89
Ntp90
a(S'You'
p91
S'help'
p92
S'Wikipedia'
p93
tp94
a(S'French'
p95
S'began'
p96
S'career'
p97
tp98
a(S'He'
p99
S'began'
p100
S'criticism'
p101
tp102
a(S'He'
p103
S'died'
p104
Ntp105
a(S'You'
p106
S'help'
p107
S'Wikipedia'
p108
tp109
a(S'Fuentes'
p110
S'made'
p111
S'appearances'
p112
tp113
a(S'Fuentes'
p114
S'died'
p115
Ntp116
a(S'You'
p117
S'help'
p118
S'Wikipedia'
p119
tp120
a(S'He'
p121
S'served'
p122
Ntp123
a(S'He'
p124
S'is_leader'
p125
Ntp126
a(S'He'
p127
S'served'
p128
Ntp129
a(S'Herrera'
p130
S'died'
p131
Ntp132
a(S'You'
p133
S'help'
p134
S'Wikipedia'
p135
tp136
a(S'He'
p137
S'called'
p138
S'himself'
p139
tp140
a(S'Carto'
p141
S'is_one'
p142
Ntp143
a(S'he'
p144
S'helped'
p145
Ntp146
a(S'Carto'
p147
S'ran'
p148
S'group'
p149
tp150
a(S'campaign'
p151
S'formed'
p152
S'basis'
p153
tp154
a(S'Alliance'
p155
S'promoted'
p156
S'philosophy'
p157
tp158
a(S'Carto'
p159
S'died'
p160
Ntp161
a(S'You'
p162
S'help'
p163
S'Wikipedia'
p164
tp165
a(S'song'
p166
S'hit'
p167
Ntp168
a(S'It'
p169
S'hit'
p170
Ntp171
a(S'song'
p172
S'is'
p173
Ntp174
a(S'You'
p175
S'help'
p176
S'Wikipedia'
p177
tp178
a(S'He'
p179
S'competed'
p180
Ntp181
a(S'Antson'
p182
S'is_had'
p183
Ntp184
a(S'he'
p185
S'is_Champion'
p186
Ntp187
a(S'he'
p188
S'received'
p189
S'Award'
p190
tp191
a(S'He'
p192
S'retired'
p193
Ntp194
a(S'You'
p195
S'help'
p196
S'Wikipedia'
p197
tp198
a(S'club'
p199
S'runs'
p200
S'bandy'
p201
tp202
a(S'It'
p203
S'ran'
p204
S'floorball'
p205
tp206
a(S'colours'
p207
S'is_red'
p208
Ntp209
a(S'club'
p210
S'played'
p211
S'seasons'
p212
tp213
a(S'It'
p214
S'won'
p215
S'championship'
p216
tp217
a(S'club'
p218
S'played'
p219
Ntp220
a(S'club'
p221
S'ran'
p222
S'acticity'
p223
tp224
a(S'team'
p225
S'won'
p226
S'championship'
p227
tp228
a(S'bridge'
p229
S'is_type'
p230
Ntp231
a(S'span'
p232
S'rises'
p233
Ntp234
a(S'lift'
p235
S'offers'
p236
S'benefits'
p237
tp238
a(S'They'
p239
S'is_easier'
p240
Ntp241
a(S'They'
p242
S'cost'
p243
S'less'
p244
tp245
a(S'They'
p246
S'build'
p247
g244
tp248
a(S'counterweights'
p249
S'is_equal'
p250
Ntp251
a(S'bridge'
p252
S'weigh'
p253
S'times'
p254
tp255
a(S'vertical'
p256
S'use'
p257
S'towers'
p258
tp259
a(S'Some'
p260
S'use'
p261
S'jacks'
p262
tp263
a(S'example'
p264
S'is_bridge'
p265
Ntp266
a(S'example'
p267
S'is_Bridge'
p268
Ntp269
a(S'disadvantage'
p270
S'is_restriction'
p271
Ntp272
a(S'This'
p273
S'is_result'
p274
Ntp275
a(S'You'
p276
S'help'
p277
S'Wikipedia'
p278
tp279
a(S'song'
p280
S'is_successful'
p281
Ntp282
a(S'You'
p283
S'help'
p284
S'Wikipedia'
p285
tp286
a(S'AIK'
p287
S'is_club'
p288
Ntp289
a(S'It'
p290
S'runs'
p291
S'team'
p292
tp293
a(S'team'
p294
S'won'
p295
S'championship'
p296
tp297
a(S'It'
p298
S'ended'
p299
Ntp300
a(S'colours'
p301
S'is_black'
p302
Ntp303
a(S'Daniels'
p304
S'is_Player'
p305
Ntp306
a(S'Daniels'
p307
S'died'
p308
Ntp309
a(S'He'
p310
S'undergone'
p311
S'surgery'
p312
tp313
a(S'You'
p314
S'help'
p315
S'Wikipedia'
p316
tp317
a(S'Lule'
p318
S'is_club'
p319
Ntp320
a(S'club'
p321
S'played'
p322
Ntp323
a(S'Holmsund'
p324
S'is_Holmsund'
p325
Ntp326
a(S'team'
p327
S'plays'
p328
S'games'
p329
tp330
a(S'club'
p331
S'participated'
p332
Ntp333
a(S'it'
p334
S'left'
p335
Ntp336
a(S'Egypt'
p337
S'flying'
p338
Ntp339
a(S'It'
p340
S'crashed'
p341
Ntp342
a(S'it'
p343
S'took'
p344
Ntp345
a(S'aircraft'
p346
S'carrying'
p347
S'passengers'
p348
tp349
a(S'crew'
p350
S'is_Russian'
p351
Ntp352
a(S'three'
p353
S'is_Ukrainian'
p354
Ntp355
a(S'people'
p356
S'lost'
p357
S'lives'
p358
tp359
a(S'crash'
p360
S'is_deadliest'
p361
Ntp362
a(S'You'
p363
S'help'
p364
S'Wikipedia'
p365
tp366
a(S'Shontelligence'
p367
S'is_album'
p368
Ntp369
a(S'Shontelle'
p370
S'waiting'
p371
S'guys'
p372
tp373
a(S'title'
p374
S'waiting'
p375
g372
tp376
a(S'We'
p377
S'waiting'
p378
g372
tp379
a(S'things'
p380
S'bubble'
p381
g372
tp382
a(S'you'
p383
S'know'
p384
g372
tp385
a(S'bit'
p386
S'silly'
p387
Ntp388
a(S'guy'
p389
S'comes'
p390
Ntp391
a(S'Whoever'
p392
S'come'
p393
S'name'
p394
tp395
a(S'Shontelligence'
p396
S'there'
p397
Ntp398
a(S'Gravity'
p399
S'is_album'
p400
Ntp401
a(S'HC'
p402
S'is_club'
p403
Ntp404
a(S'club'
p405
S'won'
p406
S'championship'
p407
tp408
a(S'Fishers'
p409
S'is_city'
p410
Ntp411
a(S'You'
p412
S'help'
p413
S'Wikipedia'
p414
tp415
a(S'It'
p416
S'means'
p417
S'all'
p418
tp419
a(S'It'
p420
S'mean'
p421
S'laws'
p422
tp423
a(S'This'
p424
S'is_distinct'
p425
Ntp426
a(S'Constitution'
p427
S'is_declares'
p428
Ntp429
a(S'it'
p430
S'is_law'
p431
Ntp432
a(S'It'
p433
S'is_same'
p434
Ntp435
a(S'Carta'
p436
S'used'
p437
S'term'
p438
tp439
a(S'it'
p440
S'is_law'
p441
Ntp442
a(S'phrase'
p443
S'helped'
p444
S'law'
p445
tp446
a(S'Liberty'
p447
S'Act'
p448
Ntp449
a(S'law'
p450
S'act'
p451
Ntp452
a(S'They'
p453
S'is_part'
p454
Ntp455
a(S'colonies'
p456
S'declared'
p457
S'independence'
p458
tp459
a(S'season'
p460
S'is_season'
p461
Ntp462
a(S'They'
p463
S'is_team'
p464
Ntp465
a(S'win'
p466
S'was'
p467
Ntp468
a(S'They'
p469
S'trailed'
p470
S'touchdown'
p471
tp472
a(S'Manning'
p473
S'threw'
p474
g471
tp475
a(S'Manning'
p476
S'lead'
p477
g471
tp478
a(S'Fans'
p479
S'called'
p480
S'team'
p481
tp482
a(S'they'
p483
S'began'
p484
Ntp485
a(S'One'
p486
S'was'
p487
Ntp488
a(S'Saints'
p489
S'leading'
p490
Ntp491
a.(lp0
(S'49ers'
p1
S'ended'
p2
S'them'
p3
tp4
a(S'comeback'
p5
S'is_one'
p6
Ntp7
a(S'teams'
p8
S'finished'
p9
S'season'
p10
tp11
a(S'teams'
p12
S'include'
p13
S'Cowboys'
p14
tp15
a(S'Lions'
p16
S'exceed'
p17
S'it'
p18
tp19
a(S'It'
p20
S'describes'
p21
S'jurisdiction'
p22
tp23
a(S'notice'
p24
S'used'
p25
g22
tp26
a(S'process'
p27
S'require'
p28
Ntp29
a(S'party'
p30
S'come'
p31
Ntp32
a(S'It'
p33
S'take'
p34
S'form'
p35
tp36
a(S'software'
p37
S'is_program'
p38
Ntp39
a(S'you'
p40
S'run'
p41
S'value'
p42
tp43
a(S'you'
p44
S'track'
p45
g42
tp46
a(S'logging'
p47
S'downloaded'
p48
S'software'
p49
tp50
a(S'ledger'
p51
S'is_book'
p52
Ntp53
a(S'accountant'
p54
S'wrote'
p55
S'payments'
p56
tp57
a(S'payments'
p58
S'came'
p59
Ntp60
a(S'bookkeeper'
p61
S'is_term'
p62
Ntp63
a(S'person'
p64
S'does'
p65
S'education'
p66
tp67
a(S'software'
p68
S'automate'
p69
S'many'
p70
tp71
a(S'companies'
p72
S'pull'
p73
Ntp74
a(S'program'
p75
S'does'
p76
S'it'
p77
tp78
a(S'Mendoza'
p79
S'is_comedienne'
p80
Ntp81
a(S'pairing'
p82
S'led'
p83
Ntp84
a(S'parents'
p85
S'is_Ann'
p86
Ntp87
a(S'She'
p88
S'has'
p89
S'brothers'
p90
tp91
a(S'She'
p92
S'finished'
p93
S'education'
p94
tp95
a(S'She'
p96
S'completed'
p97
S'degree'
p98
tp99
a(S'Mendoza'
p100
S'rose'
p101
Ntp102
a(S'character'
p103
S'appeared'
p104
Ntp105
a(S'Richards'
p106
S'led'
p107
Ntp108
a(S'two'
p109
S'communicated'
p110
S'other'
p111
tp112
a(S'Mendoza'
p113
S'have'
p114
S'film'
p115
tp116
a(S'movie'
p117
S'is_debut'
p118
Ntp119
a(S'You'
p120
S'help'
p121
S'Wikipedia'
p122
tp123
a(S'lmbrotorp'
p124
S'is_locality'
p125
Ntp126
a(S'people'
p127
S'lived'
p128
S'there'
p129
tp130
a(S'Odensbacken'
p131
S'is_locality'
p132
Ntp133
a(S'people'
p134
S'lived'
p135
S'there'
p136
tp137
a(S'Latorpsbruk'
p138
S'is_locality'
p139
Ntp140
a(S'people'
p141
S'lived'
p142
S'there'
p143
tp144
a(S'Bro'
p145
S'is_locality'
p146
Ntp147
a(S'people'
p148
S'lived'
p149
S'there'
p150
tp151
a(S'Mellsa'
p152
S'is_locality'
p153
Ntp154
a(S'people'
p155
S'lived'
p156
S'there'
p157
tp158
a(S'Askersby'
p159
S'is_locality'
p160
Ntp161
a(S'people'
p162
S'lived'
p163
S'there'
p164
tp165
a(S'Almby'
p166
S'is_locality'
p167
Ntp168
a(S'people'
p169
S'lived'
p170
S'there'
p171
tp172
a(S'Hampetorp'
p173
S'is_locality'
p174
Ntp175
a(S'people'
p176
S'lived'
p177
S'there'
p178
tp179
a(S'Kilsmo'
p180
S'is_locality'
p181
Ntp182
a(S'people'
p183
S'lived'
p184
S'there'
p185
tp186
a(S'Vintrosa'
p187
S'is_locality'
p188
Ntp189
a(S'people'
p190
S'lived'
p191
S'there'
p192
tp193
a(S'Lanna'
p194
S'is_locality'
p195
Ntp196
a(S'people'
p197
S'lived'
p198
S'there'
p199
tp200
a(S'house'
p201
S'is_tower'
p202
Ntp203
a(S'it'
p204
S'defend'
p205
Ntp206
a(S'it'
p207
S'defend'
p208
Ntp209
a(S'it'
p210
S'serves'
p211
Ntp212
a(S'houses'
p213
S'appeared'
p214
Ntp215
a(S'They'
p216
S'command'
p217
S'threre'
p218
tp219
a(S'Kirch'
p220
S'created'
p221
S'It'
p222
tp223
a(S'It'
p224
S'led'
p225
Ntp226
a(S'You'
p227
S'help'
p228
S'Wikipedia'
p229
tp230
a(S'Rinder'
p231
S'is_show'
p232
Ntp233
a(S'It'
p234
S'aired'
p235
Ntp236
a(S'Rinder'
p237
S'is_judge'
p238
Ntp239
a(S'He'
p240
S'judges'
p241
S'cases'
p242
tp243
a(S'arguments'
p244
S'is_are'
p245
Ntp246
a(S'it'
p247
S'is_different'
p248
Ntp249
a(S'program'
p250
S'takes'
p251
S'place'
p252
tp253
a(S'show'
p254
S'has'
p255
Ntp256
a(S'format'
p257
S'shows'
p258
Ntp259
a(S'case'
p260
S'takes'
p261
S'hour'
p262
tp263
a(S'It'
p264
S'fit'
p265
S'number'
p266
tp267
a(S'Schabowski'
p268
S'gained'
p269
S'fame'
p270
tp271
a(S'he'
p272
S'improvised'
p273
S'answer'
p274
tp275
a(S'crowds'
p276
S'gathered'
p277
S'opening'
p278
tp279
a(S'Schabowski'
p280
S'died'
p281
Ntp282
a(S'You'
p283
S'help'
p284
S'Wikipedia'
p285
tp286
a(S'He'
p287
S'is_Chairman'
p288
Ntp289
a(S'You'
p290
S'help'
p291
S'Wikipedia'
p292
tp293
a(S'He'
p294
S'is_creator'
p295
Ntp296
a(S'producer'
p297
S'is_Earl'
p298
Ntp299
a(S'He'
p300
S'worked'
p301
S'producer'
p302
tp303
a(S'it'
p304
S'producing'
p305
Ntp306
a(S'Germain'
p307
S'is_used'
p308
Ntp309
a(S'Germain'
p310
S'is_called'
p311
Ntp312
a(S'Germain'
p313
S'is_artist'
p314
Ntp315
a(S'You'
p316
S'help'
p317
S'Wikipedia'
p318
tp319
a(S'He'
p320
S'is_member'
p321
Ntp322
a(S'He'
p323
S'served'
p324
Ntp325
a(S'Savage'
p326
S'died'
p327
Ntp328
a(S'You'
p329
S'help'
p330
S'Wikipedia'
p331
tp332
a(S'Hope'
p333
S'is_series'
p334
Ntp335
a(S'It'
p336
S'premiered'
p337
Ntp338
a(S'series'
p339
S'received'
p340
S'nominations'
p341
tp342
a(S'season'
p343
S'premiered'
p344
S'2013'
p345
tp346
a(S'Fox'
p347
S'canceled'
p348
S'Hope'
p349
tp350
a(S'He'
p351
S'is_Speaker'
p352
Ntp353
a(S'He'
p354
S'is_delegate'
p355
Ntp356
a(S'claim'
p357
S'is_false'
p358
Ntp359
a(S'Muhlenberg'
p360
S'is_prevented'
p361
Ntp362
a(S'You'
p363
S'help'
p364
S'Wikipedia'
p365
tp366
a(S'Name'
p367
S'is'
p368
Ntp369
a(S'Name'
p370
S'is_Is'
p371
Ntp372
a(S'Earl'
p373
S'is_sitcom'
p374
Ntp375
a(S'Garcia'
p376
S'broadcast'
p377
S'It'
p378
tp379
a(S'Television'
p380
S'produced'
p381
S'series'
p382
tp383
a(S'He'
p384
S'is_Democrat'
p385
Ntp386
a(S'Mikva'
p387
S'served'
p388
S'Illinois'
p389
tp390
a(S'He'
p391
S'is_judge'
p392
Ntp393
a(S'He'
p394
S'served'
p395
Ntp396
a(S'He'
p397
S'served'
p398
Ntp399
a(S'He'
p400
S'served'
p401
Ntp402
a(S'Mikva'
p403
S'studied'
p404
Ntp405
a(S'He'
p406
S'received'
p407
S'Medal'
p408
tp409
a(S'You'
p410
S'help'
p411
S'Wikipedia'
p412
tp413
a(S'households'
p414
S'are'
p415
Ntp416
a(S'Nonsan'
p417
S'has'
p418
S'station'
p419
tp420
a(S'trains'
p421
S'connect'
p422
S'Nonsan'
p423
tp424
a(S'stations'
p425
S'are'
p426
Ntp427
a(S'busses'
p428
S'are'
p429
Ntp430
a(S'others'
p431
S'are'
p432
Ntp433
a(S'expressway'
p434
S'connects'
p435
S'city'
p436
tp437
a(S'economy'
p438
S'includes'
p439
S'farming'
p440
tp441
a(S'Farming'
p442
S'is_important'
p443
Ntp444
a(S'Rice'
p445
S'is_crop'
p446
Ntp447
a(S'crops'
p448
S'include'
p449
S'strawberries'
p450
tp451
a(S'Nonsan'
p452
S'known'
p453
S'festival'
p454
tp455
a(S'Jaws'
p456
S'is_novel'
p457
Ntp458
a(S'It'
p459
S'is'
p460
S'people'
p461
tp462
a(S'men'
p463
S'set'
p464
S'shark'
p465
tp466
a(S'men'
p467
S'hunt'
p468
g465
tp469
a(S'adventures'
p470
S'inspired'
p471
S'Benchley'
p472
tp473
a(S'Spielberg'
p474
S'directed'
p475
S'movie'
p476
tp477
a.(lp0
(S'fisherman'
p1
S'is_person'
p2
Ntp3
a(S'person'
p4
S'catches'
p5
S'fish'
p6
tp7
a(S'animals'
p8
S'live'
p9
Ntp10
a(S'fishermen'
p11
S'are'
p12
Ntp13
a(S'Fishermen'
p14
S'catch'
p15
S'fish'
p16
tp17
a(S'they'
p18
S'sell'
p19
S'fish'
p20
tp21
a(S'they'
p22
S'make'
p23
g20
tp24
a(S'they'
p25
S'eat'
p26
S'fish'
p27
tp28
a(S'fishermen'
p29
S'fish'
p30
Ntp31
a(S'Taste'
p32
S'is_cooking'
p33
Ntp34
a(S'ABC'
p35
S'aired'
p36
Ntp37
a(S'Name'
p38
S'is_Earl'
p39
Ntp40
a(S'You'
p41
S'help'
p42
S'Wikipedia'
p43
tp44
a(S'You'
p45
S'help'
p46
S'Wikipedia'
p47
tp48
a(S'You'
p49
S'help'
p50
S'Wikipedia'
p51
tp52
a(S'He'
p53
S'is_Dear'
p54
Ntp55
a(S'producer'
p56
S'is_Earl'
p57
Ntp58
a(S'He'
p59
S'worked'
p60
Ntp61
a(S'he'
p62
S'producing'
p63
S'Hope'
p64
tp65
a(S'series'
p66
S'is_series'
p67
Ntp68
a(S'They'
p69
S'follow'
p70
Ntp71
a(S'Asimov'
p72
S'wrote'
p73
S'books'
p74
tp75
a(S'he'
p76
S'wrote'
p77
S'books'
p78
tp79
a(S'books'
p80
S'tell'
p81
Ntp82
a(S'what'
p83
S'happened'
p84
Ntp85
a(S'he'
p86
S'wrote'
p87
S'books'
p88
tp89
a(S'books'
p90
S'tell'
p91
Ntp92
a(S'what'
p93
S'happened'
p94
Ntp95
a(S'story'
p96
S'is'
p97
Ntp98
a(S'years'
p99
S'is'
p100
Ntp101
a(S'Galaxy'
p102
S'is'
p103
Ntp104
a(S'empire'
p105
S'ruled'
p106
Ntp107
a(S'Seldon'
p108
S'arrives'
p109
S'talk'
p110
tp111
a(S'Seldon'
p112
S'give'
p113
g110
tp114
a(S'He'
p115
S'has'
p116
S'idea'
p117
tp118
a(S'mathematics'
p119
S'predicted'
p120
S'history'
p121
tp122
a(S'problem'
p123
S'is_much'
p124
Ntp125
a(S'Seldon'
p126
S'see'
p127
S'science'
p128
tp129
a(S'fall'
p130
S'coming'
p131
g128
tp132
a(S'Seldon'
p133
S'spends'
p134
S'life'
p135
tp136
a(S'Seldon'
p137
S'create'
p138
g135
tp139
a(S'foundation'
p140
S'is_colony'
p141
Ntp142
a(S'Terminus'
p143
S'is_planet'
p144
Ntp145
a(S'job'
p146
S'is_is'
p147
Ntp148
a(S'job'
p149
S'is_foundation'
p150
Ntp151
a(S'Demerzel'
p152
S'assisted'
p153
S'He'
p154
tp155
a(S'Demerzel'
p156
S'is_robot'
p157
Ntp158
a(S'Daneel'
p159
S'is_old'
p160
Ntp161
a(S'Seldon'
p162
S'asks'
p163
S'Wanda'
p164
tp165
a(S'Seldon'
p166
S'help'
p167
g164
tp168
a(S'Wanda'
p169
S'has'
p170
S'powers'
p171
tp172
a(S'people'
p173
S'create'
p174
S'technology'
p175
tp176
a(S'They'
p177
S'take'
p178
S'planets'
p179
tp180
a(S'Foundation'
p181
S'fights'
p182
S'armies'
p183
tp184
a(S'empire'
p185
S'attack'
p186
S'them'
p187
tp188
a(S'thought'
p189
S'happen'
p190
Ntp191
a(S'man'
p192
S'begun'
p193
S'planets'
p194
tp195
a(S'one'
p196
S'knows'
p197
S'them'
p198
tp199
a(S'he'
p200
S'manages'
p201
g198
tp202
a(S'he'
p203
S'conquer'
p204
g198
tp205
a(S'Mis'
p206
S'thinks'
p207
S'reason'
p208
tp209
a(S'he'
p210
S'discovered'
p211
g208
tp212
a(S'Mule'
p213
S'has'
p214
S'powers'
p215
tp216
a(S'powers'
p217
S'help'
p218
S'him'
p219
tp220
a(S'powers'
p221
S'make'
p222
g219
tp223
a(S'enemies'
p224
S'loyal'
p225
Ntp226
a(S'Mis'
p227
S'discovered'
p228
S'anyone'
p229
tp230
a(S'he'
p231
S'tell'
p232
g229
tp233
a(S'leader'
p234
S'comes'
p235
S'powers'
p236
tp237
a(S'Foundation'
p238
S'has'
p239
g236
tp240
a(S'he'
p241
S'conquer'
p242
S'Foundation'
p243
tp244
a(S'Trevize'
p245
S'travels'
p246
S'Foundation'
p247
tp248
a(S'Trevize'
p249
S'find'
p250
g247
tp251
a(S'They'
p252
S'visit'
p253
S'planets'
p254
tp255
a(S'Pelorat'
p256
S'thinks'
p257
Ntp258
a(S'it'
p259
S'exist'
p260
Ntp261
a(S'Gendibal'
p262
S'discovers'
p263
Ntp264
a(S'Mentalics'
p265
S'exist'
p266
Ntp267
a(S'They'
p268
S'are'
p269
Ntp270
a(S'force'
p271
S'was'
p272
Ntp273
a(S'Foundation'
p274
S'are'
p275
Ntp276
a(S'Trevize'
p277
S'discover'
p278
S'planet'
p279
tp280
a(S'Mentalics'
p281
S'inhabited'
p282
S'planet'
p283
tp284
a(S'Trevize'
p285
S'decide'
p286
S'what'
p287
tp288
a(S'future'
p289
S'be'
p290
Ntp291
a(S'Gaia'
p292
S'plans'
p293
S'Galaxy'
p294
tp295
a(S'Gaia'
p296
S'absorb'
p297
g294
tp298
a(S'Trevize'
p299
S'continue'
p300
Ntp301
a.