(lp0
(S'She'
p1
S'plays'
p2
Ntp3
a(S'she'
p4
S'played'
p5
S'Katie'
p6
tp7
a(S'You'
p8
S'help'
p9
S'Wikipedia'
p10
tp11
a(S'Neighbors'
p12
S'is_movie'
p13
Ntp14
a(S'It'
p15
S'is_couple'
p16
Ntp17
a(S'newborn'
p18
S'moving'
p19
S'problems'
p20
tp21
a(S'Rogen'
p22
S'plays'
p23
S'Radner'
p24
tp25
a(S'Byrne'
p26
S'plays'
p27
S'Radner'
p28
tp29
a(S'movie'
p30
S'received'
p31
S'reviews'
p32
tp33
a(S'You'
p34
S'help'
p35
S'Wikipedia'
p36
tp37
a(S'She'
p38
S'played'
p39
S'housewife'
p40
tp41
a(S'She'
p42
S'played'
p43
S'Jane'
p44
tp45
a(S'She'
p46
S'died'
p47
Ntp48
a(S'You'
p49
S'help'
p50
S'Wikipedia'
p51
tp52
a(S'BC'
p53
S'starting'
p54
Ntp55
a(S'BC'
p56
S'is_year'
p57
Ntp58
a(S'He'
p59
S'is_director'
p60
Ntp61
a(S'He'
p62
S'is_father'
p63
Ntp64
a(S'Zimbalist'
p65
S'died'
p66
Ntp67
a(S'Sr'
p68
S'died'
p69
Ntp70
a(S'You'
p71
S'help'
p72
S'Wikipedia'
p73
tp74
a(S'Poison'
p75
S'is_fiction'
p76
Ntp77
a(S'It'
p78
S'has'
p79
S'stories'
p80
tp81
a(S'MPAA'
p82
S'rated'
p83
S'movie'
p84
tp85
a(S'You'
p86
S'help'
p87
S'Wikipedia'
p88
tp89
a(S'BC'
p90
S'is_year'
p91
Ntp92
a(S'Caesar'
p93
S'is_Dictator'
p94
Ntp95
a(S'She'
p96
S'is_mother'
p97
Ntp98
a(S'Gluck'
p99
S'died'
p100
Ntp101
a(S'You'
p102
S'help'
p103
S'Wikipedia'
p104
tp105
a(S'Solvang'
p106
S'is_city'
p107
Ntp108
a(S'It'
p109
S'has'
p110
S'population'
p111
tp112
a(S'Solvang'
p113
S'means'
p114
Ntp115
a(S'mayor'
p116
S'is_Richardson'
p117
Ntp118
a(S'You'
p119
S'help'
p120
S'Wikipedia'
p121
tp122
a(S'BC'
p123
S'is_year'
p124
Ntp125
a(S'Octopus'
p126
S'is_enemy'
p127
Ntp128
a(S'He'
p129
S'Man'
p130
Ntp131
a(S'Molina'
p132
S'played'
p133
S'He'
p134
tp135
a(S'You'
p136
S'help'
p137
S'Wikipedia'
p138
tp139
a(S'You'
p140
S'help'
p141
S'Wikipedia'
p142
tp143
a(S'You'
p144
S'help'
p145
S'Wikipedia'
p146
tp147
a(S'BC'
p148
S'is_year'
p149
Ntp150
a(S'Man'
p151
S'is_series'
p152
Ntp153
a(S'Lee'
p154
S'created'
p155
S'It'
p156
tp157
a(S'It'
p158
S'stars'
p159
S'Barnes'
p160
tp161
a(S'It'
p162
S'ran'
p163
Ntp164
a(S'You'
p165
S'help'
p166
S'Wikipedia'
p167
tp168
a(S'BC'
p169
S'is_year'
p170
Ntp171
a(S'Man'
p172
S'is_series'
p173
Ntp174
a(S'Lee'
p175
S'created'
p176
S'It'
p177
tp178
a(S'It'
p179
S'stars'
p180
S'Hays'
p181
tp182
a(S'It'
p183
S'ran'
p184
Ntp185
a(S'You'
p186
S'help'
p187
S'Wikipedia'
p188
tp189
a(S'Strip'
p190
S'is_series'
p191
Ntp192
a(S'It'
p193
S'stars'
p194
S'Zimbalist'
p195
tp196
a(S'It'
p197
S'ran'
p198
Ntp199
a(S'You'
p200
S'help'
p201
S'Wikipedia'
p202
tp203
a(S'BC'
p204
S'is_year'
p205
Ntp206
a(S'Maverick'
p207
S'is_series'
p208
Ntp209
a(S'It'
p210
S'stars'
p211
S'Garner'
p212
tp213
a(S'It'
p214
S'ran'
p215
Ntp216
a(S'You'
p217
S'help'
p218
S'Wikipedia'
p219
tp220
a(S'It'
p221
S'stars'
p222
S'Zimbalist'
p223
tp224
a(S'It'
p225
S'ran'
p226
Ntp227
a(S'You'
p228
S'help'
p229
S'Wikipedia'
p230
tp231
a(S'Father'
p232
S'is_movie'
p233
Ntp234
a(S'It'
p235
S'stars'
p236
S'Tracy'
p237
tp238
a(S'You'
p239
S'help'
p240
S'Wikipedia'
p241
tp242
a(S'Dividend'
p243
S'is_movie'
p244
Ntp245
a(S'It'
p246
S'is_sequel'
p247
Ntp248
a(S'It'
p249
S'stars'
p250
S'Tracy'
p251
tp252
a(S'You'
p253
S'help'
p254
S'Wikipedia'
p255
tp256
a(S'Weizman'
p257
S'is_commander'
p258
Ntp259
a(S'You'
p260
S'help'
p261
S'Wikipedia'
p262
tp263
a(S'engine'
p264
S'is_engine'
p265
Ntp266
a(S'engine'
p267
S'made'
p268
S'appearance'
p269
tp270
a(S'Source'
p271
S'power'
p272
S'games'
p273
tp274
a(S'engine'
p275
S'is_originated'
p276
Ntp277
a(S'GoldSrc'
p278
S'is_version'
p279
Ntp280
a(S'Caramack'
p281
S'said'
p282
Ntp283
a(S'Johnson'
p284
S'explains'
p285
S'origins'
p286
tp287
a(S'we'
p288
S'forked'
p289
S'code'
p290
tp291
a(S'we'
p292
S'_'
p293
g290
tp294
a(S'we'
p295
S'used'
p296
S'terms'
p297
tp298
a(S'Src'
p299
S'referred'
p300
Ntp301
a(S'we'
p302
S'working'
p303
Ntp304
a(S'it'
p305
S'is_came'
p306
Ntp307
a(S'it'
p308
S'is_show'
p309
Ntp310
a(S'it'
p311
S'is_part'
p312
Ntp313
a(S'it'
p314
S'is_refer'
p315
Ntp316
a(S'name'
p317
S'stuck'
p318
Ntp319
a(S'engine'
p320
S'continued'
p321
S'engine'
p322
tp323
a(S'engine'
p324
S'replace'
p325
g322
tp326
a(S'Valve'
p327
S'launched'
p328
S'website'
p329
tp330
a(S'website'
p331
S'told'
p332
S'users'
p333
tp334
a(S'website'
p335
S'use'
p336
g333
tp337
a(S'You'
p338
S'help'
p339
S'Wikipedia'
p340
tp341
a(S'father'
p342
S'is_Taylor'
p343
Ntp344
a(S'Taylor'
p345
S'graduated'
p346
Ntp347
a(S'father'
p348
S'died'
p349
S'plantation'
p350
tp351
a(S'he'
p352
S'inherited'
p353
g350
tp354
a(S'War'
p355
S'is_started'
p356
Ntp357
a(S'he'
p358
S'is_colonel'
p359
Ntp360
a(S'He'
p361
S'fought'
p362
Ntp363
a(S'He'
p364
S'is_general'
p365
Ntp366
a(S'he'
p367
S'is_general'
p368
Ntp369
a(S'He'
p370
S'fought'
p371
S'Louisiana'
p372
tp373
a(S'he'
p374
S'was'
p375
Ntp376
a(S'Taylor'
p377
S'disagreed'
p378
Ntp379
a(S'Smith'
p380
S'commanded'
p381
S'west'
p382
tp383
a(S'they'
p384
S'disagreed'
p385
Ntp386
a(S'He'
p387
S'commanded'
p388
S'Confederates'
p389
tp390
a(S'Taylor'
p391
S'died'
p392
Ntp393
a(S'You'
p394
S'help'
p395
S'Wikipedia'
p396
tp397
a(S'He'
p398
S'is_one'
p399
Ntp400
a(S'He'
p401
S'graduated'
p402
Ntp403
a(S'He'
p404
S'fought'
p405
S'War'
p406
tp407
a(S'War'
p408
S'started'
p409
Ntp410
a(S'he'
p411
S'decided'
p412
Ntp413
a(S'he'
p414
S'stay'
p415
Ntp416
a(S'He'
p417
S'is_General'
p418
Ntp419
a(S'He'
p420
S'won'
p421
S'victory'
p422
tp423
a(S'he'
p424
S'is_general'
p425
Ntp426
a(S'He'
p427
S'fought'
p428
Ntp429
a(S'He'
p430
S'is_commander'
p431
Ntp432
a(S'He'
p433
S'continued'
p434
S'army'
p435
tp436
a(S'Sherman'
p437
S'started'
p438
S'Tennessee'
p439
tp440
a(S'Thomas'
p441
S'defend'
p442
g439
tp443
a(S'Thomas'
p444
S'defeated'
p445
S'Hood'
p446
tp447
a(S'Thomas'
p448
S'stayed'
p449
Ntp450
a(S'He'
p451
S'died'
p452
Ntp453
a(S'You'
p454
S'help'
p455
S'Wikipedia'
p456
tp457
a(S'Army'
p458
S'is_one'
p459
Ntp460
a(S'army'
p461
S'started'
p462
Ntp463
a(S'army'
p464
S'fought'
p465
Ntp466
a(S'You'
p467
S'help'
p468
S'Wikipedia'
p469
tp470
a(S'You'
p471
S'help'
p472
S'Wikipedia'
p473
tp474
a(S'GM'
p475
S'made'
p476
S'it'
p477
tp478
a(S'Motors'
p479
S'bought'
p480
S'company'
p481
tp482
a(S'Chevrolet'
p483
S'replaced'
p484
S'Suzuki'
p485
tp486
a(S'Pontiac'
p487
S'sold'
p488
S'it'
p489
tp490
a(S'These'
p491
S'include'
p492
S'Kalos'
p493
tp494
a(S'sonic'
p495
S'has'
p496
S'changes'
p497
tp498
a(S'You'
p499
S'help'
p500
S'Wikipedia'
p501
tp502
a(S'He'
p503
S'taught'
p504
Ntp505
a(S'He'
p506
S'wrote'
p507
Ntp508
a(S'he'
p509
S'is_President'
p510
Ntp511
a(S'father'
p512
S'is_professor'
p513
Ntp514
a(S'He'
p515
S'studied'
p516
S'languages'
p517
tp518
a(S'wife'
p519
S'was'
p520
S'Hankiss'
p521
tp522
a(S'politician'
p523
S'gnes'
p524
g521
tp525
a(S'He'
p526
S'had'
p527
S'children'
p528
tp529
a(S'Hankiss'
p530
S'died'
p531
Ntp532
a(S'He'
p533
S'is_86'
p534
Ntp535
a(S'You'
p536
S'help'
p537
S'Wikipedia'
p538
tp539
a(S'He'
p540
S'is_league'
p541
Ntp542
a(S'He'
p543
S'played'
p544
Ntp545
a(S'He'
p546
S'grew'
p547
Ntp548
a(S'He'
p549
S'is_79'
p550
Ntp551
a(S'You'
p552
S'help'
p553
S'Wikipedia'
p554
tp555
a(S'He'
p556
S'began'
p557
S'career'
p558
tp559
a(S'He'
p560
S'is_horse'
p561
Ntp562
a(S'Doriemus'
p563
S'is_due'
p564
Ntp565
a(S'He'
p566
S'is_24'
p567
Ntp568
a(S'You'
p569
S'help'
p570
S'Wikipedia'
p571
tp572
a(S'work'
p573
S'appeared'
p574
Ntp575
a(S'He'
p576
S'worked'
p577
Ntp578
a(S'He'
p579
S'wrote'
p580
S'book'
p581
tp582
a(S'Juddery'
p583
S'died'
p584
Ntp585
a(S'He'
p586
S'is_43'
p587
Ntp588
a(S'You'
p589
S'help'
p590
S'Wikipedia'
p591
tp592
a(S'He'
p593
S'is_politician'
p594
Ntp595
a(S'He'
p596
S'served'
p597
Ntp598
a(S'He'
p599
S'is_MP'
p600
Ntp601
a(S'he'
p602
S'served'
p603
S'sentence'
p604
tp605
a(S'he'
p606
S'lived'
p607
Ntp608
a(S'Wright'
p609
S'died'
p610
Ntp611
a(S'You'
p612
S'help'
p613
S'Wikipedia'
p614
tp615
a(S'He'
p616
S'used'
p617
S'anaesthesia'
p618
tp619
a(S'He'
p620
S'is_founder'
p621
Ntp622
a(S'he'
p623
S'traced'
p624
S'source'
p625
tp626
a(S'findings'
p627
S'caused'
p628
S'changes'
p629
tp630
a(S'This'
p631
S'led'
p632
Ntp633
a(S'he'
p634
S'graduated'
p635
Ntp636
a(S'Snow'
p637
S'is_one'
p638
Ntp639
a(S'This'
p640
S'let'
p641
S'surgery'
p642
tp643
a(S'patients'
p644
S'undergo'
p645
g642
tp646
a(S'He'
p647
S'administered'
p648
S'chloroform'
p649
tp650
a(S'she'
p651
S'gave'
p652
S'birth'
p653
tp654
a(S'Snow'
p655
S'understand'
p656
S'mechanism'
p657
tp658
a(S'observation'
p659
S'led'
p660
S'theory'
p661
tp662
a(S'him'
p663
S'discount'
p664
g661
tp665
a(S'danger'
p666
S'convincing'
p667
S'enough'
p668
tp669
a(S'studies'
p670
S'convincing'
p671
g668
tp672
a(S'council'
p673
S'disabled'
p674
S'pump'
p675
tp676
a(S'Snow'
p677
S'observed'
p678
Ntp679
a(S'epidemic'
p680
S'been'
p681
Ntp682
a(S'I'
p683
S'said'
p684
S'poison'
p685
tp686
a(S'flight'
p687
S'commenced'
p688
g685
tp689
a(S'well'
p690
S'contained'
p691
g685
tp692
a(S'water'
p693
S'is_free'
p694
Ntp695
a(S'Snow'
p696
S'showed'
p697
S'water'
p698
tp699
a(S'Southwark'
p700
S'taking'
p701
g698
tp702
a(S'study'
p703
S'is_event'
p704
Ntp705
a(S'Snow'
p706
S'died'
p707
Ntp708
a(S'works'
p709
S'improved'
p710
S'Health'
p711
tp712
a(S'This'
p713
S'included'
p714
S'pipes'
p715
tp716
a(S'pipes'
p717
S'kept'
p718
Ntp719
a(S'supplies'
p720
S'separate'
p721
Ntp722
a(S'system'
p723
S'is_successful'
p724
Ntp725
a(S'it'
p726
S'lasted'
p727
Ntp728
a(S'London'
p729
S'is_one'
p730
Ntp731
a(S'McCulloch'
p732
S'directed'
p733
S'It'
p734
tp735
a(S'movie'
p736
S'gained'
p737
S'reviews'
p738
tp739
a(S'You'
p740
S'help'
p741
S'Wikipedia'
p742
tp743
a(S'Levy'
p744
S'directed'
p745
S'It'
p746
tp747
a(S'movie'
p748
S'gained'
p749
S'reviews'
p750
tp751
a(S'They'
p752
S'win'
p753
S'any'
p754
tp755
a(S'You'
p756
S'help'
p757
S'Wikipedia'
p758
tp759
a(S'Erics'
p760
S'is_dansband'
p761
Ntp762
a(S'band'
p763
S'performed'
p764
Ntp765
a(S'band'
p766
S'is_times'
p767
Ntp768
a(S'Borgen'
p769
S'performed'
p770
Ntp771
a(S'Grans'
p772
S'is_dansband'
p773
Ntp774
a(S'band'
p775
S'scored'
p776
S'succcesses'
p777
tp778
a(S'You'
p779
S'help'
p780
S'Wikipedia'
p781
tp782
a(S'Singers'
p783
S'is_group'
p784
Ntp785
a(S'they'
p786
S'appear'
p787
Ntp788
a(S'She'
p789
S'is_daughter'
p790
Ntp791
a(S'She'
p792
S'grew'
p793
Ntp794
a(S'she'
p795
S'is_old'
p796
Ntp797
a(S'she'
p798
S'went'
p799
Ntp800
a(S'father'
p801
S'fell'
p802
Ntp803
a(S'incident'
p804
S'inspired'
p805
S'many'
p806
tp807
a(S'She'
p808
S'wrote'
p809
S'songs'
p810
tp811
a(S'Book'
p812
S'is_movie'
p813
Ntp814
a(S'Hurran'
p815
S'directed'
p816
S'It'
p817
tp818
a(S'movie'
p819
S'gained'
p820
S'reviews'
p821
tp822
a(S'Brown'
p823
S'rated'
p824
S'movie'
p825
tp826
a(S'Murphy'
p827
S'is'
p828
S'Everygirl'
p829
tp830
a(S'You'
p831
S'help'
p832
S'Wikipedia'
p833
tp834
a(S'It'
p835
S'means'
p836
S'end'
p837
tp838
a(S'season'
p839
S'spanned'
p840
S'Sunday'
p841
tp842
a(S'children'
p843
S'have'
p844
S'party'
p845
tp846
a(S'They'
p847
S'dance'
p848
S'house'
p849
tp850
a(S'parties'
p851
S'is_common'
p852
Ntp853
a(S'holding'
p854
S'taken'
p855
S'tree'
p856
tp857
a(S'tradition'
p858
S'originates'
p859
Ntp860
a(S'It'
p861
S'changed'
p862
S'little'
p863
tp864
a(S'Brill'
p865
S'directed'
p866
S'It'
p867
tp868
a(S'movie'
p869
S'is_friends'
p870
Ntp871
a(S'friends'
p872
S'reunite'
p873
Ntp874
a(S'friends'
p875
S'search'
p876
Ntp877
a(S'movie'
p878
S'gained'
p879
S'reviews'
p880
tp881
a(S'You'
p882
S'help'
p883
S'Wikipedia'
p884
tp885
a(S'Landvetter'
p886
S'is_locality'
p887
Ntp888
a(S'people'
p889
S'lived'
p890
S'there'
p891
tp892
a(S'You'
p893
S'help'
p894
S'Wikipedia'
p895
tp896
a(S'It'
p897
S'belongs'
p898
Ntp899
a(S'It'
p900
S'belonged'
p901
Ntp902
a(S'Club'
p903
S'is_club'
p904
Ntp905
a(S'It'
p906
S'was'
p907
Ntp908
a(S'it'
p909
S'was'
p910
Ntp911
a(S'club'
p912
S'is_success'
p913
Ntp914
a(S'club'
p915
S'had'
p916
S'whites'
p917
tp918
a(S'Club'
p919
S'served'
p920
Ntp921
a(S'Johnson'
p922
S'set'
p923
S'club'
p924
tp925
a(S'Johnson'
p926
S'stayed'
p927
Ntp928
a(S'Kolmodin'
p929
S'priest'
p930
S'December'
p931
tp932
a(S'He'
p933
S'is_active'
p934
Ntp935
a(S'You'
p936
S'help'
p937
S'Wikipedia'
p938
tp939
a(S'You'
p940
S'help'
p941
S'Wikipedia'
p942
tp943
a(S'It'
p944
S'is_testing'
p945
Ntp946
a(S'headquarters'
p947
S'are'
p948
Ntp949
a(S'ETS'
p950
S'develops'
p951
S'tests'
p952
tp953
a(S'It'
p954
S'administers'
p955
S'tests'
p956
tp957
a(S'Many'
p958
S'are'
p959
Ntp960
a(S'ETS'
p961
S'develops'
p962
S'assessments'
p963
tp964
a(S'ETS'
p965
S'administers'
p966
S'exams'
p967
tp968
a(S'He'
p969
S'served'
p970
Ntp971
a(S'You'
p972
S'help'
p973
S'Wikipedia'
p974
tp975
a(S'He'
p976
S'served'
p977
Ntp978
a(S'You'
p979
S'help'
p980
S'Wikipedia'
p981
tp982
a(S'He'
p983
S'is_congressman'
p984
Ntp985
a(S'Lagomarsino'
p986
S'began'
p987
S'service'
p988
tp989
a(S'Huffington'
p990
S'defeated'
p991
S'he'
p992
tp993
a(S'he'
p994
S'began'
p995
Ntp996
a(S'Lagomarsino'
p997
S'served'
p998
Ntp999
a(S'he'
p1000
S'served'
p1001
Ntp1002
a(S'You'
p1003
S'help'
p1004
S'Wikipedia'
p1005
tp1006
a(S'He'
p1007
S'is_member'
p1008
Ntp1009
a(S'He'
p1010
S'is_Secretary'
p1011
Ntp1012
a(S'Mineta'
p1013
S'announced'
p1014
S'resignation'
p1015
tp1016
a(S'him'
p1017
S'Secretary'
p1018
Ntp1019
a(S'Mineta'
p1020
S'join'
p1021
S'it'
p1022
tp1023
a(S'Mineta'
p1024
S'spent'
p1025
Ntp1026
a(S'You'
p1027
S'help'
p1028
S'Wikipedia'
p1029
tp1030
a(S'Coleman'
p1031
S'is_Secretary'
p1032
Ntp1033
a(S'You'
p1034
S'help'
p1035
S'Wikipedia'
p1036
tp1037
a(S'He'
p1038
S'served'
p1039
Ntp1040
a(S'He'
p1041
S'served'
p1042
Ntp1043
a(S'Volpe'
p1044
S'died'
p1045
Ntp1046
a(S'You'
p1047
S'help'
p1048
S'Wikipedia'
p1049
tp1050
a(S'Adams'
p1051
S'is_Democrat'
p1052
Ntp1053
a(S'Adams'
p1054
S'died'
p1055
Ntp1056
a(S'You'
p1057
S'help'
p1058
S'Wikipedia'
p1059
tp1060
a(S'He'
p1061
S'served'
p1062
Ntp1063
a(S'You'
p1064
S'help'
p1065
S'Wikipedia'
p1066
tp1067
a(S'Skinner'
p1068
S'served'
p1069
Ntp1070
a(S'You'
p1071
S'help'
p1072
S'Wikipedia'
p1073
tp1074
a(S'He'
p1075
S'is_Secretary'
p1076
Ntp1077
a(S'Brinegar'
p1078
S'is_executive'
p1079
Ntp1080
a(S'Brinegar'
p1081
S'was'
p1082
Ntp1083
a(S'Brinegar'
p1084
S'was'
p1085
Ntp1086
a(S'You'
p1087
S'help'
p1088
S'Wikipedia'
p1089
tp1090
a(S'He'
p1091
S'is_Secretary'
p1092
Ntp1093
a(S'He'
p1094
S'served'
p1095
Ntp1096
a(S'Obama'
p1097
S'said'
p1098
S'Foxx'
p1099
tp1100
a(S'he'
p1101
S'nominate'
p1102
g1099
tp1103
a(S'Senate'
p1104
S'confirmed'
p1105
S'nomination'
p1106
tp1107
a(S'You'
p1108
S'help'
p1109
S'Wikipedia'
p1110
tp1111
a(S'He'
p1112
S'is_Secretary'
p1113
Ntp1114
a(S'He'
p1115
S'is_Secretary'
p1116
Ntp1117
a(S'You'
p1118
S'help'
p1119
S'Wikipedia'
p1120
tp1121
a(S'Duncan'
p1122
S'served'
p1123
Ntp1124
a(S'You'
p1125
S'help'
p1126
S'Wikipedia'
p1127
tp1128
a(S'He'
p1129
S'is_congressman'
p1130
Ntp1131
a(S'You'
p1132
S'help'
p1133
S'Wikipedia'
p1134
tp1135
a(S'He'
p1136
S'served'
p1137
Ntp1138
a(S'Carlucci'
p1139
S'served'
p1140
Ntp1141
a(S'You'
p1142
S'help'
p1143
S'Wikipedia'
p1144
tp1145
a(S'He'
p1146
S'served'
p1147
Ntp1148
a(S'He'
p1149
S'is_member'
p1150
Ntp1151
a(S'Middendorf'
p1152
S'is_member'
p1153
Ntp1154
a(S'You'
p1155
S'help'
p1156
S'Wikipedia'
p1157
tp1158
a(S'He'
p1159
S'is_served'
p1160
Ntp1161
a(S'You'
p1162
S'help'
p1163
S'Wikipedia'
p1164
tp1165
a(S'He'
p1166
S'served'
p1167
Ntp1168
a(S'You'
p1169
S'help'
p1170
S'Wikipedia'
p1171
tp1172
a(S'He'
p1173
S'is_Secretary'
p1174
Ntp1175
a(S'he'
p1176
S'succeed'
p1177
S'Williams'
p1178
tp1179
a(S'He'
p1180
S'served'
p1181
Ntp1182
a(S'You'
p1183
S'help'
p1184
S'Wikipedia'
p1185
tp1186
a(S'He'
p1187
S'composed'
p1188
S'themes'
p1189
tp1190
a(S'You'
p1191
S'help'
p1192
S'Wikipedia'
p1193
tp1194
a(S'salad'
p1195
S'is_language'
p1196
Ntp1197
a(S'It'
p1198
S'is_mixture'
p1199
Ntp1200
a(S'words'
p1201
S'is_may'
p1202
Ntp1203
a(S'thing'
p1204
S'is'
p1205
S'meaning'
p1206
tp1207
a(S'listener'
p1208
S'cannot'
p1209
g1206
tp1210
a(S'term'
p1211
S'describe'
p1212
S'language'
p1213
tp1214
a(S'judge'
p1215
S'is_meaningless'
p1216
Ntp1217
a(S'salad'
p1218
S'occurs'
p1219
S'sense'
p1220
tp1221
a(S'person'
p1222
S'tries'
p1223
g1220
tp1224
a(S'person'
p1225
S'communicate'
p1226
g1220
tp1227
a(S'words'
p1228
S'come'
p1229
g1220
tp1230
a(S'person'
p1231
S'is_unaware'
p1232
Ntp1233
a(S'they'
p1234
S'make'
p1235
S'sense'
p1236
tp1237
a(S'It'
p1238
S'appears'
p1239
Ntp1240
a(S'program'
p1241
S'generated'
p1242
S'salad'
p1243
tp1244
a(S'she'
p1245
S'had'
p1246
S'intentions'
p1247
tp1248
a(S'studios'
p1249
S'accepting'
p1250
S'photographs'
p1251
tp1252
a(S'she'
p1253
S'received'
p1254
S'letter'
p1255
tp1256
a(S'she'
p1257
S'come'
p1258
Ntp1259
a(S'this'
p1260
S'is_oppurtunity'
p1261
Ntp1262
a(S'family'
p1263
S'moved'
p1264
S'all'
p1265
tp1266
a(S'they'
p1267
S'moved'
p1268
g1265
tp1269
a(S'she'
p1270
S'made'
p1271
S'debut'
p1272
tp1273
a(S'she'
p1274
S'appeared'
p1275
Ntp1276
a(S'Chamber'
p1277
S'selected'
p1278
S'Karen'
p1279
tp1280
a(S'they'
p1281
S'Minnesota'
p1282
S'cost'
p1283
tp1284
a(S'hand'
p1285
S'picked'
p1286
S'Karen'
p1287
tp1288
a(S'hand'
p1289
S'one'
p1290
g1287
tp1291
a(S'She'
p1292
S'was'
p1293
Ntp1294
a(S'she'
p1295
S'left'
p1296
S'industry'
p1297
tp1298
a(S'she'
p1299
S'suceeded'
p1300
S'dream'
p1301
tp1302
a(S'she'
p1303
S'changed'
p1304
S'name'
p1305
tp1306
a(S'1990s'
p1307
S'gave'
p1308
S'lessons'
p1309
tp1310
a(S'she'
p1311
S'gave'
p1312
g1309
tp1313
a(S'she'
p1314
S'sold'
p1315
S'home'
p1316
tp1317
a(S'she'
p1318
S'died'
p1319
Ntp1320
a(S'services'
p1321
S'were'
p1322
Ntp1323
a(S'He'
p1324
S'served'
p1325
Ntp1326
a(S'he'
p1327
S'served'
p1328
Ntp1329
a(S'You'
p1330
S'help'
p1331
S'Wikipedia'
p1332
tp1333
a(S'He'
p1334
S'is_Emeritus'
p1335
Ntp1336
a(S'He'
p1337
S'spent'
p1338
S'some'
p1339
tp1340
a(S'He'
p1341
S'joined'
p1342
S'Navy'
p1343
tp1344
a(S'he'
p1345
S'attended'
p1346
S'University'
p1347
tp1348
a(S'he'
p1349
S'is_member'
p1350
Ntp1351
a(S'It'
p1352
S'is_company'
p1353
Ntp1354
a(S'company'
p1355
S'operates'
p1356
S'network'
p1357
tp1358
a(S'company'
p1359
S'provided'
p1360
S'records'
p1361
tp1362
a(S'website'
p1363
S'includes'
p1364
S'photos'
p1365
tp1366
a(S'people'
p1367
S'provided'
p1368
S'These'
p1369
tp1370
a(S'people'
p1371
S'use'
p1372
S'website'
p1373
tp1374
a(S'company'
p1375
S'operates'
p1376
S'websites'
p1377
tp1378
a(S'company'
p1379
S'created'
p1380
S'Maker'
p1381
tp1382
a(S'company'
p1383
S'advertised'
p1384
S'it'
p1385
tp1386
a(S'Ancestry'
p1387
S'operates'
p1388
S'sites'
p1389
tp1390
a(S'sites'
p1391
S'provide'
p1392
S'access'
p1393
tp1394
a(S'website'
p1395
S'is_publisher'
p1396
Ntp1397
a(S'Sittner'
p1398
S'founded'
p1399
S'website'
p1400
tp1401
a(S'website'
p1402
S'is_newsletter'
p1403
Ntp1404
a(S'CEO'
p1405
S'is_Cannon'
p1406
Ntp1407
a(S'He'
p1408
S'is_owners'
p1409
Ntp1410
a(S'Inc'
p1411
S'purchased'
p1412
S'Inc'
p1413
tp1414
a(S'Allen'
p1415
S'began'
p1416
S'Ancestry'
p1417
tp1418
a(S'website'
p1419
S'launched'
p1420
Ntp1421
a(S'company'
p1422
S'raised'
p1423
Ntp1424
a(S'name'
p1425
S'changed'
p1426
S'Inc'
p1427
tp1428
a(S'company'
p1429
S'opened'
p1430
S'center'
p1431
tp1432
a(S'company'
p1433
S'changed'
p1434
S'name'
p1435
tp1436
a(S'company'
p1437
S'allowed'
p1438
S'access'
p1439
tp1440
a(S'This'
p1441
S'was'
p1442
Ntp1443
a(S'Ancestry'
p1444
S'restored'
p1445
S'access'
p1446
tp1447
a(S'company'
p1448
S'changed'
p1449
S'name'
p1450
tp1451
a(S'Ancestry'
p1452
S'sold'
p1453
S'assets'
p1454
tp1455
a(S'magazine'
p1456
S'was'
p1457
Ntp1458
a(S'offering'
p1459
S'is_at'
p1460
Ntp1461
a(S'company'
p1462
S'had'
p1463
S'partnership'
p1464
tp1465
a(S'You'
p1466
S'Think'
p1467
Ntp1468
a(S'You'
p1469
S'Are'
p1470
Ntp1471
a(S'office'
p1472
S'focuses'
p1473
Ntp1474
a(S'works'
p1475
S'include'
p1476
S'iPhone'
p1477
tp1478
a(S'Ancestry'
p1479
S'removed'
p1480
S'Index'
p1481
tp1482
a(S'people'
p1483
S'died'
p1484
Ntp1485
a(S'Ancestry'
p1486
S'agreed'
p1487
Ntp1488
a(S'company'
p1489
S'announced'
p1490
S'records'
p1491
tp1492
a(S'it'
p1493
S'purchased'
p1494
g1491
tp1495
a(S'website'
p1496
S'stopped'
p1497
Ntp1498
a(S'Ancestry'
p1499
S'is_subscription'
p1500
Ntp1501
a(S'It'
p1502
S'has'
p1503
S'online'
p1504
tp1505
a(S'Most'
p1506
S'are'
p1507
Ntp1508
a(S'records'
p1509
S'is_free'
p1510
Ntp1511
a(S'records'
p1512
S'is_available'
p1513
Ntp1514
a(S'FTM'
p1515
S'allows'
p1516
S'track'
p1517
tp1518
a(S'researcher'
p1519
S'keep'
p1520
g1517
tp1521
a(S'website'
p1522
S'offers'
p1523
S'tests'
p1524
tp1525
a(S'Ancestry'
p1526
S'had'
p1527
S'users'
p1528
tp1529
a(S'Ancestry'
p1530
S'had'
p1531
S'users'
p1532
tp1533
a(S'websites'
p1534
S'owns'
p1535
Ntp1536
a(S'company'
p1537
S'owns'
p1538
Ntp1539
a(S'This'
p1540
S'owns'
p1541
Ntp1542
a(S'list'
p1543
S'owns'
p1544
Ntp1545
a(S'Inc'
p1546
S'owns'
p1547
Ntp1548
a(S'He'
p1549
S'turned'
p1550
S'forms'
p1551
tp1552
a(S'This'
p1553
S'is'
p1554
S'Prize'
p1555
tp1556
a(S'he'
p1557
S'declined'
p1558
g1555
tp1559
a(S'You'
p1560
S'help'
p1561
S'Wikipedia'
p1562
tp1563
a(S'people'
p1564
S'is_people'
p1565
Ntp1566
a(S'You'
p1567
S'help'
p1568
S'Wikipedia'
p1569
tp1570
a(S'Cigarettes'
p1571
S'is_comedy'
p1572
Ntp1573
a(S'movie'
p1574
S'is'
p1575
Ntp1576
a(S'Plimpton'
p1577
S'plays'
p1578
S'Monica'
p1579
tp1580
a(S'Love'
p1581
S'plays'
p1582
Ntp1583
a(S'Ricci'
p1584
S'plays'
p1585
S'Val'
p1586
tp1587
a(S'Garofalo'
p1588
S'plays'
p1589
S'Ellie'
p1590
tp1591
a(S'Hudson'
p1592
S'plays'
p1593
S'Cindy'
p1594
tp1595
a(S'movie'
p1596
S'got'
p1597
S'reviews'
p1598
tp1599
a(S'You'
p1600
S'help'
p1601
S'Wikipedia'
p1602
tp1603
a(S'he'
p1604
S'presented'
p1605
S'concerts'
p1606
tp1607
a(S'he'
p1608
S'was'
p1609
Ntp1610
a(S'He'
p1611
S'married'
p1612
S'children'
p1613
tp1614
a(S'You'
p1615
S'help'
p1616
S'Wikipedia'
p1617
tp1618
a(S'He'
p1619
S'is_President'
p1620
Ntp1621
a(S'He'
p1622
S'is_member'
p1623
Ntp1624
a(S'You'
p1625
S'help'
p1626
S'Wikipedia'
p1627
tp1628
a(S'Latulippe'
p1629
S'is_figure'
p1630
Ntp1631
a(S'tabloid'
p1632
S'named'
p1633
S'he'
p1634
tp1635
a(S'You'
p1636
S'help'
p1637
S'Wikipedia'
p1638
tp1639
a(S'he'
p1640
S'is_newsreader'
p1641
Ntp1642
a(S'He'
p1643
S'is_Professor'
p1644
Ntp1645
a(S'He'
p1646
S'wrote'
p1647
S'plays'
p1648
tp1649
a(S'He'
p1650
S'published'
p1651
S'novel'
p1652
tp1653
a(S'He'
p1654
S'acted'
p1655
Ntp1656
a(S'he'
p1657
S'appeared'
p1658
Ntp1659
a(S'He'
p1660
S'married'
p1661
S'Shearing'
p1662
tp1663
a(S'They'
p1664
S'had'
p1665
S'sons'
p1666
tp1667
a(S'He'
p1668
S'is_agnostic'
p1669
Ntp1670
a(S'Milgate'
p1671
S'died'
p1672
Ntp1673
a(S'He'
p1674
S'is_80'
p1675
Ntp1676
a(S'You'
p1677
S'help'
p1678
S'Wikipedia'
p1679
tp1680
a(S'Niles'
p1681
S'is_city'
p1682
Ntp1683
a(S'You'
p1684
S'help'
p1685
S'Wikipedia'
p1686
tp1687
a(S'He'
p1688
S'served'
p1689
Ntp1690
a(S'You'
p1691
S'help'
p1692
S'Wikipedia'
p1693
tp1694
a(S'he'
p1695
S'fought'
p1696
Ntp1697
a(S'rebellion'
p1698
S'broke'
p1699
S'force'
p1700
tp1701
a(S'he'
p1702
S'raised'
p1703
g1700
tp1704
a(S'he'
p1705
S'fight'
p1706
g1700
tp1707
a(S'Kharal'
p1708
S'is_successful'
p1709
Ntp1710
a(S'them'
p1711
S'safe'
p1712
S'warfare'
p1713
tp1714
a(S'poets'
p1715
S'remembered'
p1716
S'deeds'
p1717
tp1718
a(S'You'
p1719
S'help'
p1720
S'Wikipedia'
p1721
tp1722
a(S'Paya'
p1723
S'is_dish'
p1724
Ntp1725
a(S'It'
p1726
S'is'
p1727
Ntp1728
a(S'Paya'
p1729
S'means'
p1730
S'feet'
p1731
tp1732
a(S'ingredients'
p1733
S'is_trotters'
p1734
Ntp1735
a(S'You'
p1736
S'help'
p1737
S'Wikipedia'
p1738
tp1739
a(S'You'
p1740
S'help'
p1741
S'Wikipedia'
p1742
tp1743
a(S'He'
p1744
S'played'
p1745
Ntp1746
a(S'he'
p1747
S'is_played'
p1748
Ntp1749
a(S'career'
p1750
S'is_played'
p1751
Ntp1752
a(S'They'
p1753
S'had'
p1754
S'daughters'
p1755
tp1756
a(S'Jones'
p1757
S'died'
p1758
S'golf'
p1759
tp1760
a(S'He'
p1761
S'is_64'
p1762
Ntp1763
a(S'You'
p1764
S'help'
p1765
S'Wikipedia'
p1766
tp1767
a(S'You'
p1768
S'help'
p1769
S'Wikipedia'
p1770
tp1771
a(S'He'
p1772
S'is_king'
p1773
Ntp1774
a(S'Abdullah'
p1775
S'is_member'
p1776
Ntp1777
a(S'mother'
p1778
S'is_Muna'
p1779
Ntp1780
a(S'You'
p1781
S'help'
p1782
S'Wikipedia'
p1783
tp1784
a(S'It'
p1785
S'is'
p1786
Ntp1787
a(S'chairman'
p1788
S'is_Christie'
p1789
Ntp1790
a(S'He'
p1791
S'assumed'
p1792
S'office'
p1793
tp1794
a(S'Jindal'
p1795
S'serves'
p1796
Ntp1797
a(S'President'
p1798
S'is_was'
p1799
Ntp1800
a(S'he'
p1801
S'is_Governor'
p1802
Ntp1803
a(S'RGA'
p1804
S'working'
p1805
Ntp1806
a(S'You'
p1807
S'help'
p1808
S'Wikipedia'
p1809
tp1810
a(S'Domi'
p1811
S'played'
p1812
Ntp1813
a(S'Domi'
p1814
S'made'
p1815
S'debut'
p1816
tp1817
a(S'He'
p1818
S'scored'
p1819
Ntp1820
a(S'He'
p1821
S'helped'
p1822
S'Championship'
p1823
tp1824
a(S'Knights'
p1825
S'win'
p1826
g1823
tp1827
a(S'Domi'
p1828
S'won'
p1829
S'medal'
p1830
tp1831
a(S'He'
p1832
S'helped'
p1833
S'Championship'
p1834
tp1835
a(S'Knights'
p1836
S'win'
p1837
g1834
tp1838
a(S'Coyotes'
p1839
S'drafted'
p1840
S'He'
p1841
tp1842
a(S'He'
p1843
S'signed'
p1844
S'contract'
p1845
tp1846
a(S'Domi'
p1847
S'made'
p1848
S'debut'
p1849
tp1850
a(S'He'
p1851
S'wears'
p1852
S'16'
p1853
tp1854
a(S'player'
p1855
S'had'
p1856
S'disease'
p1857
tp1858
a(S'You'
p1859
S'help'
p1860
S'Wikipedia'
p1861
tp1862
a(S'You'
p1863
S'help'
p1864
S'Wikipedia'
p1865
tp1866
a(S'It'
p1867
S'is_principle'
p1868
Ntp1869
a(S'This'
p1870
S'places'
p1871
S'burden'
p1872
tp1873
a(S'doubt'
p1874
S'remains'
p1875
Ntp1876
a(S'the'
p1877
S'is'
p1878
Ntp1879
a(S'the'
p1880
S'ted'
p1881
Ntp1882
a(S'Proof'
p1883
S'is_the'
p1884
Ntp1885
a(S'law'
p1886
S'is_type'
p1887
Ntp1888
a(S'It'
p1889
S'has'
p1890
S'presumption'
p1891
tp1892
a(S'finch'
p1893
S'is_bird'
p1894
Ntp1895
a(S'You'
p1896
S'help'
p1897
S'Wikipedia'
p1898
tp1899
a(S'ballad'
p1900
S'features'
p1901
S'album'
p1902
tp1903
a(S'album'
p1904
S'Language'
p1905
g1902
tp1906
a(S'Houston'
p1907
S'titled'
p1908
g1902
tp1909
a(S'page'
p1910
S'is'
p1911
Ntp1912
a(S'Magic'
p1913
S'is_You'
p1914
Ntp1915
a(S'Houston'
p1916
S'popularized'
p1917
S'song'
p1918
tp1919
a(S'artist'
p1920
S'recorded'
p1921
S'song'
p1922
tp1923
a(S'Records'
p1924
S'released'
p1925
S'artist'
p1926
tp1927
a(S'Creed'
p1928
S'wrote'
p1929
S'lyrics'
p1930
tp1931
a(S'words'
p1932
S'describe'
p1933
S'feelings'
p1934
tp1935
a(S'one'
p1936
S'is_face'
p1937
Ntp1938
a(S'you'
p1939
S'succeed'
p1940
S'strength'
p1941
tp1942
a(S'Creed'
p1943
S'is_succumbed'
p1944
Ntp1945
a(S'song'
p1946
S'is_hit'
p1947
Ntp1948
a(S'song'
p1949
S'is_hit'
p1950
Ntp1951
a(S'Davis'
p1952
S'was'
p1953
S'song'
p1954
tp1955
a(S'Houston'
p1956
S'recording'
p1957
g1954
tp1958
a(S'he'
p1959
S'gave'
p1960
Ntp1961
a(S'Houston'
p1962
S'released'
p1963
S'It'
p1964
tp1965
a(S'You'
p1966
S'Give'
p1967
Ntp1968
a(S'song'
p1969
S'is_release'
p1970
Ntp1971
a(S'version'
p1972
S'features'
p1973
S'intro'
p1974
tp1975
a(S'version'
p1976
S'begins'
p1977
Ntp1978
a(S'single'
p1979
S'is_success'
p1980
Ntp1981
a(S'it'
p1982
S'replaced'
p1983
S'version'
p1984
tp1985
a(S'It'
p1986
S'is_hit'
p1987
Ntp1988
a(S'Houston'
p1989
S'done'
p1990
S'cover'
p1991
tp1992
a(S'Records'
p1993
S'released'
p1994
S'which'
p1995
tp1996
a(S'song'
p1997
S'is_single'
p1998
Ntp1999
a(S'it'
p2000
S'receive'
p2001
S'release'
p2002
tp2003
a(S'It'
p2004
S'is_hit'
p2005
Ntp2006
a(S'song'
p2007
S'is_ballad'
p2008
Ntp2009
a(S'lover'
p2010
S'leaves'
p2011
S'damage'
p2012
tp2013
a(S'it'
p2014
S'does'
p2015
Ntp2016
a(S'Houston'
p2017
S'performed'
p2018
S'song'
p2019
tp2020
a(S'It'
p2021
S'means'
p2022
S'charges'
p2023
tp2024
a(S'necessity'
p2025
S'lies'
p2026
g2023
tp2027
a(S'person'
p2028
S'lays'
p2029
g2023
tp2030
a(S'burden'
p2031
S'is'
p2032
Ntp2033
a(S'defendant'
p2034
S'prove'
p2035
S'innocence'
p2036
tp2037
a(S'standard'
p2038
S'is_proof'
p2039
Ntp2040
a(S'prosecution'
p2041
S'is_reach'
p2042
Ntp2043
a(S'burden'
p2044
S'bringing'
p2045
S'case'
p2046
tp2047
a(S'burden'
p2048
S'is'
p2049
Ntp2050
a(S'defendant'
p2051
S'wants'
p2052
S'set'
p2053
tp2054
a(S'defendant'
p2055
S'provide'
p2056
g2053
tp2057
a(S'This'
p2058
S'shifts'
p2059
S'burden'
p2060
tp2061
a(S'defendant'
p2062
S'seek'
p2063
S'actions'
p2064
tp2065
a(S'actions'
p2066
S'brought'
p2067
S'lawsuit'
p2068
tp2069
a(S'defenses'
p2070
S'include'
p2071
S'entrapment'
p2072
tp2073
a(S'Preponderance'
p2074
S'is_standard'
p2075
Ntp2076
a(S'proposition'
p2077
S'is_likely'
p2078
Ntp2079
a(S'proposition'
p2080
S'is_true'
p2081
Ntp2082
a(S'standard'
p2083
S'is_satisfied'
p2084
Ntp2085
a(S'chance'
p2086
S'is_is'
p2087
Ntp2088
a(S'proposition'
p2089
S'is_true'
p2090
Ntp2091
a(S'this'
p2092
S'is_standard'
p2093
Ntp2094
a(S'This'
p2095
S'is_burden'
p2096
Ntp2097
a(S'prosecutor'
p2098
S'meet'
p2099
Ntp2100
a(S'This'
p2101
S'is_standard'
p2102
Ntp2103
a(S'It'
p2104
S'applies'
p2105
Ntp2106
a(S'jury'
p2107
S'has'
p2108
S'doubt'
p2109
tp2110
a(S'doubts'
p2111
S'is_doubts'
p2112
Ntp2113
a(S'prosecutor'
p2114
S'is_proved'
p2115
Ntp2116
a(S'defendant'
p2117
S'is_guilty'
p2118
Ntp2119
a(S'Clinton'
p2120
S'is_town'
p2121
Ntp2122
a(S'You'
p2123
S'help'
p2124
S'Wikipedia'
p2125
tp2126
a(S'She'
p2127
S'is_publisher'
p2128
Ntp2129
a(S'family'
p2130
S'moved'
p2131
Ntp2132
a(S'she'
p2133
S'attended'
p2134
S'University'
p2135
tp2136
a(S'She'
p2137
S'graduated'
p2138
S'Kappa'
p2139
tp2140
a(S'she'
p2141
S'married'
p2142
S'Rathmer'
p2143
tp2144
a(S'She'
p2145
S'refused'
p2146
S'oath'
p2147
tp2148
a(S'She'
p2149
S'take'
p2150
g2147
tp2151
a(S'it'
p2152
S'contained'
p2153
S'phrase'
p2154
tp2155
a(S'She'
p2156
S'regain'
p2157
S'citizenship'
p2158
tp2159
a(S'She'
p2160
S'is_widow'
p2161
Ntp2162
a(S'She'
p2163
S'died'
p2164
S'day'
p2165
tp2166
a(S'Caliber'
p2167
S'is_hatchback'
p2168
Ntp2169
a(S'Caliber'
p2170
S'replaced'
p2171
S'Neon'
p2172
tp2173
a(S'He'
p2174
S'served'
p2175
Ntp2176
a(S'she'
p2177
S'is_President'
p2178
Ntp2179
a(S'She'
p2180
S'died'
p2181
Ntp2182
a(S'game'
p2183
S'show'
p2184
Ntp2185
a(S'Andrews'
p2186
S'died'
p2187
Ntp2188
a(S'You'
p2189
S'help'
p2190
S'Wikipedia'
p2191
tp2192
a(S'Sheridan'
p2193
S'played'
p2194
Ntp2195
a(S'Sheridan'
p2196
S'died'
p2197
Ntp2198
a(S'You'
p2199
S'help'
p2200
S'Wikipedia'
p2201
tp2202
a(S'He'
p2203
S'is_Representative'
p2204
Ntp2205
a(S'He'
p2206
S'is_member'
p2207
Ntp2208
a(S'He'
p2209
S'served'
p2210
Ntp2211
a(S'You'
p2212
S'help'
p2213
S'Wikipedia'
p2214
tp2215
a(S'Aln'
p2216
S'died'
p2217
S'Spain'
p2218
tp2219
a(S'You'
p2220
S'help'
p2221
S'Wikipedia'
p2222
tp2223
a(S'Filippenkov'
p2224
S'died'
p2225
Ntp2226
a(S'You'
p2227
S'help'
p2228
S'Wikipedia'
p2229
tp2230
a(S'Burguera'
p2231
S'served'
p2232
S'district'
p2233
tp2234
a(S'Burguera'
p2235
S'died'
p2236
Ntp2237
a(S'You'
p2238
S'help'
p2239
S'Wikipedia'
p2240
tp2241
a(S'You'
p2242
S'help'
p2243
S'Wikipedia'
p2244
tp2245
a(S'He'
p2246
S'is_chancellor'
p2247
Ntp2248
a(S'Davis'
p2249
S'serving'
p2250
Ntp2251
a(S'Vanderhoef'
p2252
S'died'
p2253
Ntp2254
a(S'You'
p2255
S'help'
p2256
S'Wikipedia'
p2257
tp2258
a(S'It'
p2259
S'is_last'
p2260
Ntp2261
a(S'Line'
p2262
S'owned'
p2263
S'It'
p2264
tp2265
a(S'It'
p2266
S'went'
p2267
Ntp2268
a(S'You'
p2269
S'help'
p2270
S'Wikipedia'
p2271
tp2272
a(S'Kimberlite'
p2273
S'is_rock'
p2274
Ntp2275
a(S'discovery'
p2276
S'started'
p2277
Ntp2278
a(S'This'
p2279
S'resulted'
p2280
Ntp2281
a(S'pipes'
p2282
S'is_source'
p2283
Ntp2284
a(S'Kimberlites'
p2285
S'form'
p2286
Ntp2287
a(S'Formation'
p2288
S'occurs'
p2289
Ntp2290
a(S'Kimberlite'
p2291
S'attracted'
p2292
S'attention'
p2293
tp2294
a(S'it'
p2295
S'serves'
p2296
S'xenoliths'
p2297
tp2298
a(S'study'
p2299
S'has'
p2300
S'potential'
p2301
tp2302
a(S'study'
p2303
S'provide'
p2304
g2301
tp2305
a(S'Chickasaw'
p2306
S'is_people'
p2307
Ntp2308
a(S'Europeans'
p2309
S'arrived'
p2310
Ntp2311
a(S'they'
p2312
S'lived'
p2313
Ntp2314
a(S'They'
p2315
S'speak'
p2316
S'language'
p2317
tp2318
a(S'Chickasaw'
p2319
S'lived'
p2320
Ntp2321
a(S'they'
p2322
S'moved'
p2323
Ntp2324
a(S'They'
p2325
S'settled'
p2326
Ntp2327
a(S'They'
p2328
S'living'
p2329
Ntp2330
a(S'explorers'
p2331
S'came'
p2332
Ntp2333
a(S'They'
p2334
S'had'
p2335
S'relationships'
p2336
tp2337
a(S'States'
p2338
S'considered'
p2339
S'Chickasaw'
p2340
tp2341
a(S'they'
p2342
S'adopted'
p2343
S'practices'
p2344
tp2345
a(S'Chickasaw'
p2346
S'live'
p2347
Ntp2348
a(S'Nation'
p2349
S'is_tribe'
p2350
Ntp2351
a(S'They'
p2352
S'followed'
p2353
S'system'
p2354
tp2355
a(S'women'
p2356
S'controlled'
p2357
S'property'
p2358
tp2359
a(S'Twentieth'
p2360
S'think'
p2361
Ntp2362
a(S'Chickasaw'
p2363
S'came'
p2364
Ntp2365
a(S'ancestors'
p2366
S'lived'
p2367
Ntp2368
a(S'Chickasaw'
p2369
S'is_peoples'
p2370
Ntp2371
a(S'Europeans'
p2372
S'encountered'
p2373
S'them'
p2374
tp2375
a(S'Chickasaw'
p2376
S'living'
p2377
Ntp2378
a(S'Chickasaw'
p2379
S'is_migrants'
p2380
Ntp2381
a(S'history'
p2382
S'says'
p2383
Ntp2384
a(S'they'
p2385
S'moved'
p2386
Ntp2387
a(S'version'
p2388
S'is'
p2389
S'CE'
p2390
tp2391
a(S'they'
p2392
S'came'
p2393
g2390
tp2394
a(S'Soto'
p2395
S'encountered'
p2396
S'ancestors'
p2397
tp2398
a(S'Indians'
p2399
S'attacked'
p2400
S'expedition'
p2401
tp2402
a(S'Spanish'
p2403
S'moved'
p2404
Ntp2405
a(S'Chickasaw'
p2406
S'buy'
p2407
S'guns'
p2408
tp2409
a(S'They'
p2410
S'used'
p2411
S'weapons'
p2412
tp2413
a(S'They'
p2414
S'raid'
p2415
g2412
tp2416
a(S'They'
p2417
S'captured'
p2418
S'members'
p2419
tp2420
a(S'Choctaw'
p2421
S'started'
p2422
S'guns'
p2423
tp2424
a(S'raids'
p2425
S'stopped'
p2426
Ntp2427
a(S'Chickasaw'
p2428
S'had'
p2429
S'battles'
p2430
tp2431
a(S'Chickasaw'
p2432
S'is_allies'
p2433
Ntp2434
a(S'Washington'
p2435
S'is_believed'
p2436
Ntp2437
a(S'Americans'
p2438
S'is_equals'
p2439
Ntp2440
a(S'society'
p2441
S'is_good'
p2442
Ntp2443
a(S'He'
p2444
S'came'
p2445
S'it'
p2446
tp2447
a(S'Jefferson'
p2448
S'continued'
p2449
g2446
tp2450
a(S'plan'
p2451
S'toward'
p2452
S'buying'
p2453
tp2454
a(S'justice'
p2455
S'toward'
p2456
g2453
tp2457
a(S'promotion'
p2458
S'toward'
p2459
S'society'
p2460
tp2461
a(S'those'
p2462
S'violated'
p2463
S'rights'
p2464
tp2465
a(S'government'
p2466
S'appointed'
p2467
S'agents'
p2468
tp2469
a(S'They'
p2470
S'lived'
p2471
S'them'
p2472
tp2473
a(S'They'
p2474
S'teach'
p2475
g2472
tp2476
a(S'Chickasaw'
p2477
S'adopted'
p2478
S'practices'
p2479
tp2480
a(S'they'
p2481
S'established'
p2482
S'schools'
p2483
tp2484
a(S'Chickasaw'
p2485
S'signed'
p2486
S'Treaty'
p2487
tp2488
a(S'treaty'
p2489
S'recognized'
p2490
S'peace'
p2491
tp2492
a(S'leaders'
p2493
S'signed'
p2494
S'treaty'
p2495
tp2496
a(S'Chickasaw'
p2497
S'kept'
p2498
S'square'
p2499
tp2500
a(S'Chickasaw'
p2501
S'received'
p2502
S'dollars'
p2503
tp2504
a(S'tribes'
p2505
S'received'
p2506
S'grants'
p2507
tp2508
a(S'Chickasaw'
p2509
S'agreed'
p2510
S'land'
p2511
tp2512
a(S'Chickasaw'
p2513
S'purchase'
p2514
g2511
tp2515
a(S'They'
p2516
S'paid'
p2517
Ntp2518
a(S'US'
p2519
S'pay'
p2520
S'them'
p2521
tp2522
a(S'it'
p2523
S'owed'
p2524
g2521
tp2525
a(S'Chickasaw'
p2526
S'gathered'
p2527
Ntp2528
a(S'thousand'
p2529
S'crossed'
p2530
S'River'
p2531
tp2532
a(S'tribes'
p2533
S'had'
p2534
S'it'
p2535
tp2536
a(S'tribes'
p2537
S'make'
p2538
g2535
tp2539
a(S'Chickasaw'
p2540
S'reached'
p2541
S'Territory'
p2542
tp2543
a(S'States'
p2544
S'merged'
p2545
S'them'
p2546
tp2547
a(S'Chickasaw'
p2548
S'wrote'
p2549
S'constitution'
p2550
tp2551
a(S'Nation'
p2552
S'is_allies'
p2553
Ntp2554
a(S'They'
p2555
S'did'
p2556
S'this'
p2557
tp2558
a(S'government'
p2559
S'forced'
p2560
S'them'
p2561
tp2562
a(S'officials'
p2563
S'suggested'
p2564
S'state'
p2565
tp2566
a(S'tribes'
p2567
S'receive'
p2568
g2565
tp2569
a(S'Confederacy'
p2570
S'won'
p2571
Ntp2572
a(S'He'
p2573
S'negotiated'
p2574
S'treaties'
p2575
tp2576
a(S'treaty'
p2577
S'covered'
p2578
S'things'
p2579
tp2580
a(S'Chickasaw'
p2581
S'sided'
p2582
S'some'
p2583
tp2584
a(S'they'
p2585
S'had'
p2586
g2583
tp2587
a(S'they'
p2588
S'give'
p2589
g2583
tp2590
a(S'US'
p2591
S'freed'
p2592
S'slaves'
p2593
tp2594
a(S'Members'
p2595
S'returned'
p2596
S'citizenship'
p2597
tp2598
a(S'Chickasaw'
p2599
S'were'
p2600
S'treaty'
p2601
tp2602
a(S'government'
p2603
S'made'
p2604
g2601
tp2605
a(S'It'
p2606
S'required'
p2607
S'slaves'
p2608
tp2609
a(S'they'
p2610
S'free'
p2611
g2608
tp2612
a(S'slaves'
p2613
S'wanted'
p2614
Ntp2615
a(S'slaves'
p2616
S'stay'
p2617
Ntp2618
a(S'Descendants'
p2619
S'continue'
p2620
Ntp2621
a(S'Descendants'
p2622
S'live'
p2623
Ntp2624
a(S'Nation'
p2625
S'give'
p2626
S'citizenship'
p2627
tp2628
a(S'Government'
p2629
S'penalized'
p2630
S'Chickasaw'
p2631
tp2632
a(S'government'
p2633
S'took'
p2634
S'half'
p2635
tp2636
a(S'Carolina'
p2637
S'recognized'
p2638
S'People'
p2639
tp2640
a(S'headquarters'
p2641
S'is'
p2642
Ntp2643
a(S'they'
p2644
S'asked'
p2645
S'Department'
p2646
tp2647
a(S'they'
p2648
S'receive'
p2649
S'it'
p2650
tp2651
a(S'Chickasaw'
p2652
S'is_independent'
p2653
Ntp2654
a(S'Chiefs'
p2655
S'have'
p2656
S'suffix'
p2657
tp2658
a(S'tribe'
p2659
S'opened'
p2660
S'Center'
p2661
tp2662
a(S'Vincennes'
p2663
S'is_city'
p2664
Ntp2665
a(S'Vincennes'
p2666
S'was'
p2667
S'role'
p2668
tp2669
a(S'which'
p2670
S'has'
p2671
g2668
tp2672
a(S'city'
p2673
S'gave'
p2674
S'name'
p2675
tp2676
a(S'It'
p2677
S'is_rescue'
p2678
Ntp2679
a(S'You'
p2680
S'help'
p2681
S'Wikipedia'
p2682
tp2683
a(S'Guzmn'
p2684
S'died'
p2685
S'Mexico'
p2686
tp2687
a(S'You'
p2688
S'help'
p2689
S'Wikipedia'
p2690
tp2691
a(S'Allen'
p2692
S'died'
p2693
Ntp2694
a(S'You'
p2695
S'help'
p2696
S'Wikipedia'
p2697
tp2698
a(S'Hasen'
p2699
S'died'
p2700
Ntp2701
a(S'You'
p2702
S'help'
p2703
S'Wikipedia'
p2704
tp2705
a(S'Fe'
p2706
S'is_vehicle'
p2707
Ntp2708
a(S'You'
p2709
S'help'
p2710
S'Wikipedia'
p2711
tp2712
a(S'Aneurysm'
p2713
S'is_song'
p2714
Ntp2715
a(S'Montgomery'
p2716
S'recorded'
p2717
S'version'
p2718
tp2719
a(S'it'
p2720
S'appeared'
p2721
Ntp2722
a(S'You'
p2723
S'help'
p2724
S'Wikipedia'
p2725
tp2726
a(S'He'
p2727
S'decided'
p2728
Ntp2729
a(S'He'
p2730
S'study'
p2731
Ntp2732
a(S'You'
p2733
S'help'
p2734
S'Wikipedia'
p2735
tp2736
a(S'You'
p2737
S'help'
p2738
S'Wikipedia'
p2739
tp2740
a(S'Estrellas'
p2741
S'is_one'
p2742
Ntp2743
a(S'It'
p2744
S'has'
p2745
S'stations'
p2746
tp2747
a(S'station'
p2748
S'is_XEW'
p2749
Ntp2750
a(S'You'
p2751
S'help'
p2752
S'Wikipedia'
p2753
tp2754
a(S'Globo'
p2755
S'produced'
p2756
S'It'
p2757
tp2758
a(S'You'
p2759
S'help'
p2760
S'Wikipedia'
p2761
tp2762
a(S'She'
p2763
S'is_Minister'
p2764
Ntp2765
a(S'She'
p2766
S'is_Christian'
p2767
Ntp2768
a(S'You'
p2769
S'help'
p2770
S'Wikipedia'
p2771
tp2772
a(S'She'
p2773
S'is_Muslim'
p2774
Ntp2775
a(S'They'
p2776
S'have'
p2777
S'children'
p2778
tp2779
a(S'You'
p2780
S'help'
p2781
S'Wikipedia'
p2782
tp2783
a(S'He'
p2784
S'is_son'
p2785
Ntp2786
a(S'You'
p2787
S'help'
p2788
S'Wikipedia'
p2789
tp2790
a(S'River'
p2791
S'is_waterway'
p2792
Ntp2793
a(S'river'
p2794
S'goes'
p2795
Ntp2796
a(S'river'
p2797
S'flows'
p2798
Ntp2799
a(S'It'
p2800
S'merges'
p2801
Ntp2802
a(S'You'
p2803
S'help'
p2804
S'Wikipedia'
p2805
tp2806
a(S'instar'
p2807
S'is_stage'
p2808
Ntp2809
a(S'instars'
p2810
S'are'
p2811
Ntp2812
a(S'it'
p2813
S'eats'
p2814
Ntp2815
a(S'it'
p2816
S'changes'
p2817
S'stage'
p2818
tp2819
a(S'function'
p2820
S'is'
p2821
Ntp2822
a(S'function'
p2823
S'reproduce'
p2824
Ntp2825
a(S'You'
p2826
S'help'
p2827
S'Wikipedia'
p2828
tp2829
a(S'Treaty'
p2830
S'is_treaty'
p2831
Ntp2832
a(S'It'
p2833
S'defined'
p2834
S'boundaries'
p2835
tp2836
a(S'title'
p2837
S'is_Treaty'
p2838
Ntp2839
a(S'Pinckney'
p2840
S'negotiated'
p2841
S'Spain'
p2842
tp2843
a(S'treaty'
p2844
S'represented'
p2845
g2842
tp2846
a(S'it'
p2847
S'ended'
p2848
S'phase'
p2849
tp2850
a(S'Spain'
p2851
S'ratified'
p2852
S'It'
p2853
tp2854
a(S'Idrijca'
p2855
S'is_river'
p2856
Ntp2857
a(S'river'
p2858
S'flows'
p2859
Ntp2860
a(S'It'
p2861
S'is_tributary'
p2862
Ntp2863
a(S'features'
p2864
S'are'
p2865
Ntp2866
a(S'river'
p2867
S'has'
p2868
S'length'
p2869
tp2870
a(S'source'
p2871
S'is_part'
p2872
Ntp2873
a(S'Idrijca'
p2874
S'flows'
p2875
Ntp2876
a(S'river'
p2877
S'turns'
p2878
S'Soa'
p2879
tp2880
a(S'Idrijca'
p2881
S'passes'
p2882
Ntp2883
a(S'Most'
p2884
S'is_stream'
p2885
Ntp2886
a(S'important'
p2887
S'is_Baa'
p2888
Ntp2889
a(S'it'
p2890
S'joins'
p2891
S'Idrijca'
p2892
tp2893
a(S'river'
p2894
S'has'
p2895
S'length'
p2896
tp2897
a(S'river'
p2898
S'flows'
p2899
Ntp2900
a(S'valley'
p2901
S'goes'
p2902
Ntp2903
a(S'source'
p2904
S'is_close'
p2905
Ntp2906
a(S'Vipava'
p2907
S'flows'
p2908
S'direction'
p2909
tp2910
a(S'It'
p2911
S'passes'
p2912
Ntp2913
a(S'tributaries'
p2914
S'are'
p2915
Ntp2916
a(S'It'
p2917
S'is'
p2918
S'money'
p2919
tp2920
a(S'It'
p2921
S'encourage'
p2922
g2919
tp2923
a(S'people'
p2924
S'save'
p2925
g2919
tp2926
a(S'plan'
p2927
S'offers'
p2928
S'rate'
p2929
tp2930
a(S'Jaitley'
p2931
S'started'
p2932
S'plan'
p2933
tp2934
a(S'Directorate'
p2935
S'sells'
p2936
S'bonds'
p2937
tp2938
a(S'these'
p2939
S'saving'
p2940
g2937
tp2941
a(S'break'
p2942
S'is'
p2943
Ntp2944
a(S'investor'
p2945
S'buys'
p2946
S'issues'
p2947
tp2948
a(S'It'
p2949
S'has'
p2950
S'name'
p2951
tp2952
a(S'Anyone'
p2953
S'is_invest'
p2954
Ntp2955
a(S'they'
p2956
S'is_adult'
p2957
Ntp2958
a(S'You'
p2959
S'help'
p2960
S'Wikipedia'
p2961
tp2962
a(S'Hyades'
p2963
S'is_nymphs'
p2964
Ntp2965
a(S'nymphs'
p2966
S'is_responsible'
p2967
Ntp2968
a(S'it'
p2969
S'rain'
p2970
Ntp2971
a(S'number'
p2972
S'varies'
p2973
Ntp2974
a(S'They'
p2975
S'is_daughters'
p2976
Ntp2977
a(S'stories'
p2978
S'is_say'
p2979
Ntp2980
a(S'they'
p2981
S'is_sisters'
p2982
Ntp2983
a(S'story'
p2984
S'is'
p2985
Ntp2986
a(S'Hyades'
p2987
S'wept'
p2988
Ntp2989
a(S'game'
p2990
S'takes'
p2991
S'place'
p2992
tp2993
a(S'idea'
p2994
S'is_player'
p2995
Ntp2996
a(S'player'
p2997
S'is_good'
p2998
Ntp2999
a(S'which'
p3000
S'is_evil'
p3001
Ntp3002
a(S'ghosts'
p3003
S'look'
p3004
S'same'
p3005
tp3006
a(S'dots'
p3007
S'are'
p3008
Ntp3009
a(S'players'
p3010
S'arrange'
p3011
S'ghosts'
p3012
tp3013
a(S'they'
p3014
S'wish'
p3015
Ntp3016
a(S'game'
p3017
S'turn'
p3018
Ntp3019
a(S'player'
p3020
S'moves'
p3021
S'ghost'
p3022
tp3023
a(S'square'
p3024
S'left'
p3025
Ntp3026
a(S'ghost'
p3027
S'capture'
p3028
S'ghost'
p3029
tp3030
a(S'player'
p3031
S'is_know'
p3032
Ntp3033
a(S'it'
p3034
S'is_good'
p3035
Ntp3036
a(S'player'
p3037
S'captures'
p3038
S'four'
p3039
tp3040
a(S'she'
p3041
S'won'
p3042
S'game'
p3043
tp3044
a(S'player'
p3045
S'captures'
p3046
S'four'
p3047
tp3048
a(S'she'
p3049
S'lost'
p3050
S'game'
p3051
tp3052
a(S'moving'
p3053
S'won'
p3054
S'game'
p3055
tp3056
a(S'strategy'
p3057
S'by'
p3058
S'opponent'
p3059
tp3060
a(S'which'
p3061
S'by'
p3062
g3059
tp3063
a(S'ghosts'
p3064
S'by'
p3065
g3059
tp3066
a(S'which'
p3067
S'by'
p3068
g3059
tp3069
a(S'Capitulation'
p3070
S'is_event'
p3071
Ntp3072
a(S'plan'
p3073
S'protect'
p3074
S'trade'
p3075
tp3076
a(S'plan'
p3077
S'undermine'
p3078
g3075
tp3079
a(S'plan'
p3080
S'establish'
p3081
g3075
tp3082
a(S'It'
p3083
S'is_reason'
p3084
Ntp3085
a(S'engagements'
p3086
S'included'
p3087
S'capture'
p3088
tp3089
a(S'British'
p3090
S'responded'
p3091
Ntp3092
a(S'1798'
p3093
S'defeated'
p3094
S'fleet'
p3095
tp3096
a(S'Navy'
p3097
S'defeated'
p3098
g3095
tp3099
a(S'that'
p3100
S'changed'
p3101
S'balance'
p3102
tp3103
a(S'force'
p3104
S'opposed'
p3105
S'French'
p3106
tp3107
a(S'Menou'
p3108
S'offered'
p3109
Ntp3110
a(S'Menou'
p3111
S'surrender'
p3112
Ntp3113
a(S'Britain'
p3114
S'got'
p3115
S'hold'
p3116
tp3117
a(S'istribution'
p3118
S'is_distribution'
p3119
Ntp3120
a(S'Gosset'
p3121
S'developed'
p3122
S'distribution'
p3123
tp3124
a(S'Student'
p3125
S'is_pseudonym'
p3126
Ntp3127
a(S'he'
p3128
S'used'
p3129
S'paper'
p3130
tp3131
a(S'he'
p3132
S'published'
p3133
g3130
tp3134
a(S'which'
p3135
S'describes'
p3136
S'distribution'
p3137
tp3138
a(S'Gosset'
p3139
S'is_worked'
p3140
Ntp3141
a(S'he'
p3142
S'is_analyzed'
p3143
Ntp3144
a(S'size'
p3145
S'is_low'
p3146
Ntp3147
a(S'version'
p3148
S'is_staff'
p3149
Ntp3150
a(S'he'
p3151
S'used'
p3152
S'identity'
p3153
tp3154
a(S'he'
p3155
S'hide'
p3156
g3153
tp3157
a(S'version'
p3158
S'is'
p3159
S'competitors'
p3160
tp3161
a(S'brewery'
p3162
S'want'
p3163
g3160
tp3164
a(S'they'
p3165
S'using'
p3166
S'quality'
p3167
tp3168
a(S'cases'
p3169
S'encountered'
p3170
Ntp3171
a(S'distribution'
p3172
S'describes'
p3173
S'samples'
p3174
tp3175
a(S'population'
p3176
S'describe'
p3177
g3174
tp3178
a(S'sample'
p3179
S'is_distribution'
p3180
Ntp3181
a(S'distribution'
p3182
S'is_distribution'
p3183
Ntp3184
a(S'distribution'
p3185
S'arises'
p3186
Ntp3187
a(S'we'
p3188
S'take'
p3189
S'sample'
p3190
tp3191
a(S'distribution'
p3192
S'mean'
p3193
Ntp3194
a(S'degrees'
p3195
S'mean'
p3196
Ntp3197
a(S'it'
p3198
S'is'
p3199
Ntp3200
a(S'distribution'
p3201
S'is_symmetric'
p3202
Ntp3203
a(S'it'
p3204
S'is_prone'
p3205
Ntp3206
a(S'values'
p3207
S'fall'
p3208
Ntp3209
a(S'This'
p3210
S'makes'
p3211
S'behavior'
p3212
tp3213
a(S'it'
p3214
S'useful'
p3215
g3212
tp3216
a(S'denominator'
p3217
S'falls'
p3218
Ntp3219
a(S'distribution'
p3220
S'is_case'
p3221
Ntp3222
a(S'Jamstik'
p3223
S'is_controller'
p3224
Ntp3225
a(S'Jamstik'
p3226
S'is_compatible'
p3227
Ntp3228
a(S'It'
p3229
S'weighs'
p3230
S'1'
p3231
tp3232
a(S'Jamstik'
p3233
S'comes'
p3234
Ntp3235
a(S'JamTutor'
p3236
S'helps'
p3237
S'basics'
p3238
tp3239
a(S'Nebula'
p3240
S'is_nebula'
p3241
Ntp3242
a(S'It'
p3243
S'is_light'
p3244
Ntp3245
a(S'You'
p3246
S'help'
p3247
S'Wikipedia'
p3248
tp3249
a(S'Nebula'
p3250
S'is_nebula'
p3251
Ntp3252
a(S'It'
p3253
S'is_light'
p3254
Ntp3255
a(S'You'
p3256
S'help'
p3257
S'Wikipedia'
p3258
tp3259
a(S'She'
p3260
S'played'
p3261
Ntp3262
a(S'Montiel'
p3263
S'is_singer'
p3264
Ntp3265
a(S'she'
p3266
S'began'
p3267
Ntp3268
a(S'she'
p3269
S'acted'
p3270
Ntp3271
a(S'she'
p3272
S'appeared'
p3273
Ntp3274
a(S'Montiel'
p3275
S'returned'
p3276
Ntp3277
a(S'Montiel'
p3278
S'star'
p3279
Ntp3280
a(S'She'
p3281
S'is_star'
p3282
Ntp3283
a(S'She'
p3284
S'retired'
p3285
Ntp3286
a(S'she'
p3287
S'returned'
p3288
Ntp3289
a(S'she'
p3290
S'appear'
p3291
Ntp3292
a(S'She'
p3293
S'died'
p3294
Ntp3295
a(S'You'
p3296
S'help'
p3297
S'Wikipedia'
p3298
tp3299
a(S'Hunters'
p3300
S'is_show'
p3301
Ntp3302
a(S'It'
p3303
S'is_comedy'
p3304
Ntp3305
a(S'It'
p3306
S'is_people'
p3307
Ntp3308
a(S'Hunters'
p3309
S'looking'
p3310
S'prize'
p3311
tp3312
a(S'they'
p3313
S'give'
p3314
g3311
tp3315
a(S'show'
p3316
S'has'
p3317
S'actors'
p3318
tp3319
a(S'three'
p3320
S'go'
p3321
S'Bogans'
p3322
tp3323
a(S'They'
p3324
S'want'
p3325
S'one'
p3326
tp3327
a(S'They'
p3328
S'find'
p3329
g3326
tp3330
a(S'one'
p3331
S'is_more'
p3332
Ntp3333
a(S'they'
p3334
S'meet'
p3335
Ntp3336
a(S'They'
p3337
S'picked'
p3338
S'people'
p3339
tp3340
a(S'They'
p3341
S'help'
p3342
g3339
tp3343
a(S'them'
p3344
S'is_find'
p3345
Ntp3346
a(S'who'
p3347
S'is_Bogan'
p3348
Ntp3349
a(S'Bogan'
p3350
S'get'
p3351
S'trophy'
p3352
tp3353
a(S'show'
p3354
S'is_jokes'
p3355
Ntp3356
a(S'rest'
p3357
S'is_real'
p3358
Ntp3359
a(S'show'
p3360
S'is_popular'
p3361
Ntp3362
a(S'DVD'
p3363
S'goes'
p3364
Ntp3365
a(S'It'
p3366
S'describe'
p3367
S'person'
p3368
tp3369
a(S'it'
p3370
S'display'
p3371
S'attitude'
p3372
tp3373
a(S'someone'
p3374
S'display'
p3375
g3372
tp3376
a(S'speech'
p3377
S'display'
p3378
g3372
tp3379
a(S'clothing'
p3380
S'display'
p3381
g3372
tp3382
a(S'word'
p3383
S'have'
p3384
S'meaning'
p3385
tp3386
a(S'bogan'
p3387
S'is_group'
p3388
Ntp3389
a(S'names'
p3390
S'are'
p3391
S'groups'
p3392
tp3393
a(S'names'
p3394
S'describe'
p3395
g3392
tp3396
a(S'Bogans'
p3397
S'is_people'
p3398
Ntp3399
a(S'people'
p3400
S'live'
p3401
Ntp3402
a(S'They'
p3403
S'is_keen'
p3404
Ntp3405
a(S'They'
p3406
S'is_tend'
p3407
Ntp3408
a(S'They'
p3409
S'is_wiktanti'
p3410
Ntp3411
a(S'authority'
p3412
S'done'
p3413
S'tattoos'
p3414
tp3415
a(S'Brock'
p3416
S'hoon'
p3417
S'lot'
p3418
tp3419
a(S'attitude'
p3420
S'is_pretentious'
p3421
Ntp3422
a(S'These'
p3423
S'include'
p3424
S'shirts'
p3425
tp3426
a(S'They'
p3427
S'wear'
p3428
S'jeans'
p3429
tp3430
a(S'Bogans'
p3431
S'wear'
p3432
S'jeans'
p3433
tp3434
a(S'jeans'
p3435
S'is_standard'
p3436
Ntp3437
a(S'fringe'
p3438
S'is_common'
p3439
Ntp3440
a(S'Vehicles'
p3441
S'is_common'
p3442
Ntp3443
a(S'Bogans'
p3444
S'copy'
p3445
S'styles'
p3446
tp3447
a(S'groups'
p3448
S'looked'
p3449
S'Bogans'
p3450
tp3451
a(S'This'
p3452
S'make'
p3453
Ntp3454
a(S'lives'
p3455
S'tougher'
p3456
Ntp3457
a(S'bogan'
p3458
S'display'
p3459
S'pride'
p3460
tp3461
a(S'Griffin'
p3462
S'discussed'
p3463
S'fact'
p3464
tp3465
a(S'It'
p3466
S'is_way'
p3467
Ntp3468
a(S'citizens'
p3469
S'is_proud'
p3470
Ntp3471
a(S'bogan'
p3472
S'is_term'
p3473
Ntp3474
a(S'many'
p3475
S'take'
p3476
S'pride'
p3477
tp3478
a(S'J'
p3479
S'held'
p3480
S'which'
p3481
tp3482
a(S'they'
p3483
S'commemorated'
p3484
S'music'
p3485
tp3486
a(S'It'
p3487
S'replaced'
p3488
S'Navy'
p3489
tp3490
a(S'Treaty'
p3491
S'limited'
p3492
S'size'
p3493
tp3494
a(S'It'
p3495
S'prevented'
p3496
S'Germany'
p3497
tp3498
a(S'Hitler'
p3499
S'ordered'
p3500
S'boats'
p3501
tp3502
a(S'ships'
p3503
S'fought'
p3504
Ntp3505
a(S'Rangeley'
p3506
S'is_town'
p3507
Ntp3508
a(S'town'
p3509
S'is'
p3510
Ntp3511
a(S'It'
p3512
S'is_resort'
p3513
Ntp3514
a(S'winters'
p3515
S'is_cold'
p3516
Ntp3517
a(S'sign'
p3518
S'says'
p3519
Ntp3520
a(S'Rangeley'
p3521
S'halfway'
p3522
Ntp3523
a(S'He'
p3524
S'had'
p3525
S'piece'
p3526
tp3527
a(S'father'
p3528
S'bought'
p3529
S'piece'
p3530
tp3531
a(S'He'
p3532
S'came'
p3533
S'town'
p3534
tp3535
a(S'He'
p3536
S'build'
p3537
g3534
tp3538
a(S'He'
p3539
S'built'
p3540
S'sawmill'
p3541
tp3542
a(S'railroad'
p3543
S'opened'
p3544
Ntp3545
a(S'Philadelphia'
p3546
S'started'
p3547
Ntp3548
a(S'Philadelphia'
p3549
S'come'
p3550
Ntp3551
a(S'Rangeley'
p3552
S'is_area'
p3553
Ntp3554
a(S'climate'
p3555
S'make'
p3556
Ntp3557
a(S'this'
p3558
S'town'
p3559
Ntp3560
a(S'people'
p3561
S'is_guides'
p3562
Ntp3563
a(S'Hoover'
p3564
S'was'
p3565
Ntp3566
a(S'hotels'
p3567
S'went'
p3568
Ntp3569
a(S'hotels'
p3570
S'taken'
p3571
S'place'
p3572
tp3573
a(S'Rangeley'
p3574
S'is_popular'
p3575
Ntp3576
a(S'One'
p3577
S'is_Russell'
p3578
Ntp3579
a(S'people'
p3580
S'is_lives'
p3581
Ntp3582
a(S'He'
p3583
S'owns'
p3584
S'home'
p3585
tp3586
a(S'father'
p3587
S'is_native'
p3588
Ntp3589
a(S'Reich'
p3590
S'made'
p3591
S'home'
p3592
tp3593
a(S'It'
p3594
S'is_center'
p3595
Ntp3596
a(S'It'
p3597
S'is_open'
p3598
Ntp3599
a(S'Insurgent'
p3600
S'is_novel'
p3601
Ntp3602
a(S'book'
p3603
S'is_sequel'
p3604
Ntp3605
a(S'It'
p3606
S'is_number'
p3607
Ntp3608
a(S'You'
p3609
S'help'
p3610
S'Wikipedia'
p3611
tp3612
a(S'Allegiant'
p3613
S'is_book'
p3614
Ntp3615
a(S'It'
p3616
S'follows'
p3617
S'books'
p3618
tp3619
a(S'Allegiant'
p3620
S'takes'
p3621
S'place'
p3622
tp3623
a(S'Eaton'
p3624
S'narrated'
p3625
S'It'
p3626
tp3627
a(S'You'
p3628
S'help'
p3629
S'Wikipedia'
p3630
tp3631
a(S'He'
p3632
S'played'
p3633
Ntp3634
a(S'He'
p3635
S'played'
p3636
Ntp3637
a(S'Romo'
p3638
S'died'
p3639
Ntp3640
a(S'You'
p3641
S'help'
p3642
S'Wikipedia'
p3643
tp3644
a(S'It'
p3645
S'replaces'
p3646
S'Touch'
p3647
tp3648
a(S'it'
p3649
S'is_thinner'
p3650
Ntp3651
a(S'thinner'
p3652
S'introduces'
p3653
S'screen'
p3654
tp3655
a(S'features'
p3656
S'include'
p3657
S'recording'
p3658
tp3659
a(S'It'
p3660
S'is_available'
p3661
Ntp3662
a(S'it'
p3663
S'didn'
p3664
S'camera'
p3665
tp3666
a(S'it'
p3667
S'didn'
p3668
S'loop'
p3669
tp3670
a(S'32'
p3671
S'have'
p3672
Ntp3673
a(S'it'
p3674
S'has'
p3675
S'camera'
p3676
tp3677
a(S'prices'
p3678
S'dropped'
p3679
Ntp3680
a(S'Touch'
p3681
S'runs'
p3682
S'system'
p3683
tp3684
a(S'It'
p3685
S'shipped'
p3686
Ntp3687
a(S'It'
p3688
S'play'
p3689
S'shows'
p3690
tp3691
a(S'Touch'
p3692
S'is_Touch'
p3693
Ntp3694
a(S'Siri'
p3695
S'was'
p3696
Ntp3697
a(S'4S'
p3698
S'came'
p3699
Ntp3700
a(S'software'
p3701
S'made'
p3702
S'ability'
p3703
tp3704
a(S'software'
p3705
S'have'
p3706
g3703
tp3707
a(S'It'
p3708
S'supports'
p3709
S'iMessage'
p3710
tp3711
a(S'service'
p3712
S'allows'
p3713
S'messages'
p3714
tp3715
a(S'users'
p3716
S'send'
p3717
g3714
tp3718
a(S'devices'
p3719
S'run'
p3720
S'iOS'
p3721
tp3722
a(S'apps'
p3723
S'came'
p3724
S'Maps'
p3725
tp3726
a(S'apps'
p3727
S'included'
p3728
g3725
tp3729
a(S'you'
p3730
S'is_able'
p3731
Ntp3732
a(S'you'
p3733
S'is_put'
p3734
Ntp3735
a(S'application'
p3736
S'replaced'
p3737
S'Maps'
p3738
tp3739
a(S'application'
p3740
S'have'
p3741
g3738
tp3742
a(S'apps'
p3743
S'have'
p3744
Ntp3745
a(S'It'
p3746
S'give'
p3747
S'directions'
p3748
tp3749
a(S'app'
p3750
S'get'
p3751
S'passes'
p3752
tp3753
a(S'device'
p3754
S'buy'
p3755
S'things'
p3756
tp3757
a(S'feature'
p3758
S'available'
p3759
S'AirPlay'
p3760
tp3761
a(S'you'
p3762
S'put'
p3763
S'screen'
p3764
tp3765
a(S'It'
p3766
S'is_generation'
p3767
Ntp3768
a(S'touch'
p3769
S'runs'
p3770
S'iOS'
p3771
tp3772
a(S'Apple'
p3773
S'announced'
p3774
S'that'
p3775
tp3776
a(S'Touch'
p3777
S'support'
p3778
S'iOS'
p3779
tp3780
a(S'Touch'
p3781
S'has'
p3782
S'body'
p3783
tp3784
a(S'Touch'
p3785
S'has'
p3786
S'feature'
p3787
tp3788
a(S'button'
p3789
S'is'
p3790
S'side'
p3791
tp3792
a(S'You'
p3793
S'is_press'
p3794
Ntp3795
a(S'you'
p3796
S'is_able'
p3797
Ntp3798
a(S'you'
p3799
S'is_put'
p3800
Ntp3801
a(S'It'
p3802
S'is_event'
p3803
Ntp3804
a(S'You'
p3805
S'help'
p3806
S'Wikipedia'
p3807
tp3808
a(S'Keyes'
p3809
S'was'
p3810
Ntp3811
a(S'Keyes'
p3812
S'died'
p3813
Ntp3814
a(S'You'
p3815
S'help'
p3816
S'Wikipedia'
p3817
tp3818
a(S'River'
p3819
S'is_tributary'
p3820
Ntp3821
a(S'It'
p3822
S'is_part'
p3823
Ntp3824
a(S'You'
p3825
S'help'
p3826
S'Wikipedia'
p3827
tp3828
a(S'I'
p3829
S'Spit'
p3830
Ntp3831
a(g3829
S'is_Spit'
p3832
Ntp3833
a(S'It'
p3834
S'is'
p3835
Ntp3836
a(S'movie'
p3837
S'is_controversial'
p3838
Ntp3839
a(S'critics'
p3840
S'did'
p3841
Ntp3842
a(S'Ebert'
p3843
S'gave'
p3844
S'thumbs'
p3845
tp3846
a(S'It'
p3847
S'is_classic'
p3848
Ntp3849
a(S'You'
p3850
S'help'
p3851
S'Wikipedia'
p3852
tp3853
a(g3829
S'Spit'
p3854
Ntp3855
a(g3829
S'is_Spit'
p3856
Ntp3857
a(S'movie'
p3858
S'is'
p3859
S'Katie'
p3860
tp3861
a(S'She'
p3862
S'rape'
p3863
S'her'
p3864
tp3865
a(S'She'
p3866
S'gets'
p3867
S'revenge'
p3868
tp3869
a(S'critics'
p3870
S'didn'
p3871
Ntp3872
a(S'You'
p3873
S'help'
p3874
S'Wikipedia'
p3875
tp3876
a(S'Texarkana'
p3877
S'is_city'
p3878
Ntp3879
a(S'You'
p3880
S'help'
p3881
S'Wikipedia'
p3882
tp3883
a(S'He'
p3884
S'made'
p3885
S'movies'
p3886
tp3887
a(S'He'
p3888
S'died'
p3889
Ntp3890
a(S'apnea'
p3891
S'is_factor'
p3892
Ntp3893
a(S'He'
p3894
S'died'
p3895
Ntp3896
a(S'You'
p3897
S'help'
p3898
S'Wikipedia'
p3899
tp3900
a(S'song'
p3901
S'is_song'
p3902
Ntp3903
a(S'Orchestra'
p3904
S'performed'
p3905
S'songs'
p3906
tp3907
a(S'they'
p3908
S'added'
p3909
S'Slipknot'
p3910
tp3911
a(S'Orchestra'
p3912
S'Performs'
p3913
g3910
tp3914
a(S'website'
p3915
S'said'
p3916
S'sections'
p3917
tp3918
a(S'sections'
p3919
S'rip'
p3920
Ntp3921
a(S'You'
p3922
S'help'
p3923
S'Wikipedia'
p3924
tp3925
a(S'It'
p3926
S'is_seat'
p3927
Ntp3928
a(S'You'
p3929
S'help'
p3930
S'Wikipedia'
p3931
tp3932
a(S'Victoria'
p3933
S'is_City'
p3934
Ntp3935
a(S'It'
p3936
S'is_seat'
p3937
Ntp3938
a(S'Davis'
p3939
S'is_seat'
p3940
Ntp3941
a(S'You'
p3942
S'help'
p3943
S'Wikipedia'
p3944
tp3945
a(S'He'
p3946
S'is_father'
p3947
Ntp3948
a(S'Thomas'
p3949
S'had'
p3950
S'career'
p3951
tp3952
a(S'You'
p3953
S'help'
p3954
S'Wikipedia'
p3955
tp3956
a(S'She'
p3957
S'got'
p3958
S'reputation'
p3959
tp3960
a(S'She'
p3961
S'died'
p3962
Ntp3963
a(S'You'
p3964
S'help'
p3965
S'Wikipedia'
p3966
tp3967
a(S'He'
p3968
S'is_founder'
p3969
Ntp3970
a(S'Hayes'
p3971
S'died'
p3972
Ntp3973
a(S'You'
p3974
S'help'
p3975
S'Wikipedia'
p3976
tp3977
a(S'Image'
p3978
S'is_show'
p3979
Ntp3980
a(S'show'
p3981
S'made'
p3982
S'fun'
p3983
tp3984
a(S'It'
p3985
S'ran'
p3986
Ntp3987
a(S'You'
p3988
S'help'
p3989
S'Wikipedia'
p3990
tp3991
a(S'She'
p3992
S'is_wife'
p3993
Ntp3994
a(S'Gorbacheva'
p3995
S'is_Lady'
p3996
Ntp3997
a(S'Gorbacheva'
p3998
S'suffered'
p3999
Ntp4000
a(S'monster'
p4001
S'Frankenstein'
p4002
Ntp4003
a(S'character'
p4004
S'Frankenstein'
p4005
Ntp4006
a(S'character'
p4007
S'created'
p4008
S'He'
p4009
tp4010
a(S'he'
p4011
S'has'
p4012
S'name'
p4013
tp4014
a(S'Victor'
p4015
S'creates'
p4016
S'human'
p4017
tp4018
a(S'He'
p4019
S'creates'
p4020
S'it'
p4021
tp4022
a(S'He'
p4023
S'uses'
p4024
S'method'
p4025
tp4026
a(S'method'
p4027
S'make'
p4028
Ntp4029
a(S'creature'
p4030
S'come'
p4031
Ntp4032
a(S'Victor'
p4033
S'leaves'
p4034
S'minute'
p4035
tp4036
a(S'it'
p4037
S'is'
p4038
Ntp4039
a(S'It'
p4040
S'leaves'
p4041
S'apartment'
p4042
tp4043
a(S'He'
p4044
S'is_tall'
p4045
Ntp4046
a(S'Victor'
p4047
S'is_believed'
p4048
Ntp4049
a(S'it'
p4050
S'is_easier'
p4051
Ntp4052
a(S'it'
p4053
S'is_make'
p4054
Ntp4055
a(S'parts'
p4056
S'is_bigger'
p4057
Ntp4058
a(S'skin'
p4059
S'is_more'
p4060
Ntp4061
a(S'portrayal'
p4062
S'came'
p4063
Ntp4064
a(S'monster'
p4065
S'is'
p4066
Ntp4067
a(S'He'
p4068
S'is_unable'
p4069
Ntp4070
a(S'He'
p4071
S'is_talk'
p4072
Ntp4073
a(S'He'
p4074
S'discovers'
p4075
S'world'
p4076
tp4077
a(S'monster'
p4078
S'develops'
p4079
S'understanding'
p4080
tp4081
a(S'He'
p4082
S'eats'
p4083
S'roots'
p4084
tp4085
a(S'he'
p4086
S'is_hungry'
p4087
Ntp4088
a(S'He'
p4089
S'finds'
p4090
S'coat'
p4091
tp4092
a(S'He'
p4093
S'learns'
p4094
S'family'
p4095
tp4096
a(S'He'
p4097
S'speak'
p4098
g4095
tp4099
a(S'he'
p4100
S'observes'
p4101
Ntp4102
a(S'He'
p4103
S'teaches'
p4104
S'himself'
p4105
tp4106
a(S'He'
p4107
S'read'
p4108
g4105
tp4109
a(S'he'
p4110
S'found'
p4111
Ntp4112
a(S'He'
p4113
S'has'
p4114
S'sense'
p4115
tp4116
a(S'he'
p4117
S'encounters'
p4118
Ntp4119
a(S'He'
p4120
S'has'
p4121
S'experiences'
p4122
tp4123
a(S'That'
p4124
S'makes'
p4125
Ntp4126
a(S'him'
p4127
S'feel'
p4128
Ntp4129
a(S'He'
p4130
S'resents'
p4131
S'humans'
p4132
tp4133
a(S'he'
p4134
S'kills'
p4135
S'people'
p4136
tp4137
a(S'adaptations'
p4138
S'mute'
p4139
S'him'
p4140
tp4141
a(S'creature'
p4142
S'has'
p4143
S'relationship'
p4144
tp4145
a(S'Victor'
p4146
S'rejected'
p4147
S'He'
p4148
tp4149
a(S'he'
p4150
S'wants'
p4151
S'father'
p4152
tp4153
a(S'he'
p4154
S'have'
p4155
g4152
tp4156
a(S'Victor'
p4157
S'is_connection'
p4158
Ntp4159
a(S'monster'
p4160
S'has'
p4161
Ntp4162
a(S'He'
p4163
S'demands'
p4164
S'responsibility'
p4165
tp4166
a(S'Victor'
p4167
S'take'
p4168
g4165
tp4169
a(S'creature'
p4170
S'refers'
p4171
Ntp4172
a(S'This'
p4173
S'makes'
p4174
Ntp4175
a(S'Victor'
p4176
S'sort'
p4177
Ntp4178
a(S'monster'
p4179
S'learns'
p4180
S'Victor'
p4181
tp4182
a(S'monster'
p4183
S'read'
p4184
g4181
tp4185
a(S'he'
p4186
S'goes'
p4187
g4181
tp4188
a(S'He'
p4189
S'meets'
p4190
S'him'
p4191
tp4192
a(S'he'
p4193
S'asks'
p4194
S'Victor'
p4195
tp4196
a(S'he'
p4197
S'make'
p4198
g4195
tp4199
a(S'he'
p4200
S'have'
p4201
Ntp4202
a(S'he'
p4203
S'be'
p4204
Ntp4205
a(S'she'
p4206
S'won'
p4207
S'Women'
p4208
tp4209
a(S'She'
p4210
S'grew'
p4211
Ntp4212
a(S'she'
p4213
S'is_old'
p4214
Ntp4215
a(S'She'
p4216
S'had'
p4217
S'children'
p4218
tp4219
a(S'She'
p4220
S'is_victim'
p4221
Ntp4222
a(S'she'
p4223
S'divorced'
p4224
S'husband'
p4225
tp4226
a(S'Tabassum'
p4227
S'have'
p4228
S'home'
p4229
tp4230
a(S'she'
p4231
S'went'
p4232
Ntp4233
a(S'group'
p4234
S'gave'
p4235
S'idea'
p4236
tp4237
a(S'she'
p4238
S'went'
p4239
S'group'
p4240
tp4241
a(S'they'
p4242
S'refused'
p4243
S'her'
p4244
tp4245
a(S'It'
p4246
S'is_court'
p4247
Ntp4248
a(S'times'
p4249
S'listen'
p4250
Ntp4251
a(S'courts'
p4252
S'listen'
p4253
Ntp4254
a(S'Adnan'
p4255
S'started'
p4256
S'jirga'
p4257
tp4258
a(S'It'
p4259
S'is_jirga'
p4260
Ntp4261
a(S'women'
p4262
S'settle'
p4263
S'disagreements'
p4264
tp4265
a(S'women'
p4266
S'have'
p4267
S'power'
p4268
tp4269
a(S'Adnan'
p4270
S'knew'
p4271
Ntp4272
a(S'group'
p4273
S'needed'
p4274
Ntp4275
a(S'group'
p4276
S'get'
p4277
Ntp4278
a(S'police'
p4279
S'act'
p4280
Ntp4281
a(S'jirga'
p4282
S'has'
p4283
S'women'
p4284
tp4285
a(S'It'
p4286
S'works'
p4287
S'police'
p4288
tp4289
a(S'It'
p4290
S'pressure'
p4291
g4288
tp4292
a(S'it'
p4293
S'gives'
p4294
S'help'
p4295
tp4296
a(S'Council'
p4297
S'works'
p4298
S'voting'
p4299
tp4300
a(S'jirga'
p4301
S'works'
p4302
S'violence'
p4303
tp4304
a(S'laws'
p4305
S'stop'
p4306
g4303
tp4307
a(S'jirgas'
p4308
S'did'
p4309
Ntp4310
a(S'activists'
p4311
S'did'
p4312
Ntp4313
a(S'that'
p4314
S'changed'
p4315
Ntp4316
a(S'authorities'
p4317
S'did'
p4318
S'nothing'
p4319
tp4320
a(S'Jirga'
p4321
S'had'
p4322
S'walk'
p4323
tp4324
a(S'Jirga'
p4325
S'attract'
p4326
g4323
tp4327
a(S'police'
p4328
S'made'
p4329
S'arrests'
p4330
tp4331
a(S'women'
p4332
S'had'
p4333
S'success'
p4334
tp4335
a(S'2014'
p4336
S'worked'
p4337
S'law'
p4338
tp4339
a(S'2014'
p4340
S'pass'
p4341
g4338
tp4342
a(S'Jirga'
p4343
S'worked'
p4344
g4338
tp4345
a(S'Jirga'
p4346
S'pass'
p4347
g4338
tp4348
a(S'groups'
p4349
S'is_happy'
p4350
Ntp4351
a(S'Assembly'
p4352
S'passed'
p4353
S'law'
p4354
tp4355
a(S'2014'
p4356
S'voted'
p4357
S'law'
p4358
tp4359
a(S'2014'
p4360
S'change'
p4361
g4358
tp4362
a(S'Assembly'
p4363
S'voted'
p4364
g4358
tp4365
a(S'Assembly'
p4366
S'change'
p4367
g4358
tp4368
a(S'Dunning'
p4369
S'died'
p4370
Ntp4371
a(S'You'
p4372
S'help'
p4373
S'Wikipedia'
p4374
tp4375
a(S'Cooper'
p4376
S'played'
p4377
S'activator'
p4378
tp4379
a(S'Cooper'
p4380
S'trap'
p4381
g4378
tp4382
a(S'Cooper'
p4383
S'died'
p4384
S'City'
p4385
tp4386
a(S'You'
p4387
S'help'
p4388
S'Wikipedia'
p4389
tp4390
a(S'each'
p4391
S'collided'
p4392
Ntp4393
a(S'helicopter'
p4394
S'discovered'
p4395
S'bodies'
p4396
tp4397
a(S'Neither'
p4398
S'deployed'
p4399
S'parachute'
p4400
tp4401
a(S'MacNeil'
p4402
S'died'
p4403
Ntp4404
a(S'You'
p4405
S'help'
p4406
S'Wikipedia'
p4407
tp4408
a(S'Thrill'
p4409
S'is_song'
p4410
Ntp4411
a(S'blues'
p4412
S'recorded'
p4413
S'versions'
p4414
tp4415
a(S'You'
p4416
S'help'
p4417
S'Wikipedia'
p4418
tp4419
a(S'Wind'
p4420
S'is_ballad'
p4421
Ntp4422
a(S'song'
p4423
S'is'
p4424
Ntp4425
a(S'conditions'
p4426
S'came'
p4427
Ntp4428
a(S'It'
p4429
S'is_hit'
p4430
Ntp4431
a(S'song'
p4432
S'sold'
p4433
S'millions'
p4434
tp4435
a(S'It'
p4436
S'hit'
p4437
Ntp4438
a(S'version'
p4439
S'is'
p4440
Ntp4441
a(S'You'
p4442
S'help'
p4443
S'Wikipedia'
p4444
tp4445
a(S'Museum'
p4446
S'is_part'
p4447
Ntp4448
a(S'it'
p4449
S'is_one'
p4450
Ntp4451
a(S'museum'
p4452
S'started'
p4453
Ntp4454
a(S'museum'
p4455
S'help'
p4456
Ntp4457
a(S'collection'
p4458
S'began'
p4459
Ntp4460
a(S'Petrie'
p4461
S'led'
p4462
S'digs'
p4463
tp4464
a(S'he'
p4465
S'sold'
p4466
S'collection'
p4467
tp4468
a(S'He'
p4469
S'found'
p4470
S'objects'
p4471
tp4472
a(S'These'
p4473
S'is_famous'
p4474
Ntp4475
a(S'He'
p4476
S'found'
p4477
S'objects'
p4478
tp4479
a(S'site'
p4480
S'found'
p4481
S'some'
p4482
tp4483
a(S'collection'
p4484
S'were'
p4485
Ntp4486
a(S'museum'
p4487
S'was'
p4488
Ntp4489
a(S'Petrie'
p4490
S'retired'
p4491
S'objects'
p4492
tp4493
a(S'archaeologists'
p4494
S'added'
p4495
g4492
tp4496
a(S'museum'
p4497
S'has'
p4498
S'one'
p4499
tp4500
a(S'lions'
p4501
S'are'
p4502
Ntp4503
a(S'These'
p4504
S'is_part'
p4505
Ntp4506
a(S'piece'
p4507
S'is'
p4508
S'BC'
p4509
tp4510
a(S'museum'
p4511
S'has'
p4512
S'beads'
p4513
tp4514
a(S'example'
p4515
S'is'
p4516
Ntp4517
a(S'collection'
p4518
S'includes'
p4519
S'BC'
p4520
tp4521
a(S'seal'
p4522
S'made'
p4523
g4520
tp4524
a(S'collection'
p4525
S'includes'
p4526
S'number'
p4527
tp4528
a(S'suit'
p4529
S'is'
p4530
Ntp4531
a(S'collection'
p4532
S'contains'
p4533
S'works'
p4534
tp4535
a(S'tiles'
p4536
S'are'
p4537
Ntp4538
a(S'museum'
p4539
S'has'
p4540
S'collection'
p4541
tp4542
a(S'collection'
p4543
S'includes'
p4544
S'objects'
p4545
tp4546
a(S'museum'
p4547
S'has'
p4548
S'rooms'
p4549
tp4550
a(S'room'
p4551
S'has'
p4552
S'many'
p4553
tp4554
a(S'room'
p4555
S'has'
p4556
S'pottery'
p4557
tp4558
a(S'parts'
p4559
S'protect'
p4560
S'objects'
p4561
tp4562
a(S'io'
p4563
S'is_moth'
p4564
Ntp4565
a(S'It'
p4566
S'has'
p4567
S'defences'
p4568
tp4569
a(S'adults'
p4570
S'have'
p4571
S'system'
p4572
tp4573
a(S'they'
p4574
S'is_cryptic'
p4575
Ntp4576
a(S'wings'
p4577
S'closed'
p4578
Ntp4579
a(S'predators'
p4580
S'get'
p4581
S'markings'
p4582
tp4583
a(S'they'
p4584
S'flash'
p4585
g4582
tp4586
a(S'This'
p4587
S'startles'
p4588
S'predator'
p4589
tp4590
a(S'moth'
p4591
S'has'
p4592
S'time'
p4593
tp4594
a(S'moth'
p4595
S'fly'
p4596
g4593
tp4597
a(S'adults'
p4598
S'is_nocturnal'
p4599
Ntp4600
a(S'they'
p4601
S'fly'
p4602
S'day'
p4603
tp4604
a(S'they'
p4605
S'sit'
p4606
Ntp4607
a(S'moth'
p4608
S'ranges'
p4609
Ntp4610
a(S'They'
p4611
S'eat'
p4612
S'all'
p4613
tp4614
a(S'all'
p4615
S'reproduce'
p4616
Ntp4617
a(S'they'
p4618
S'do'
p4619
Ntp4620
a(S'This'
p4621
S'is_typical'
p4622
Ntp4623
a(S'They'
p4624
S'have'
p4625
S'dimorphism'
p4626
tp4627
a(S'females'
p4628
S'come'
p4629
S'pheromones'
p4630
tp4631
a(S'males'
p4632
S'pick'
p4633
g4630
tp4634
a(S'They'
p4635
S'start'
p4636
S'orange'
p4637
tp4638
a(S'they'
p4639
S'grow'
p4640
Ntp4641
a(S'spines'
p4642
S'deliver'
p4643
S'venom'
p4644
tp4645
a(S'Speedway'
p4646
S'is_complex'
p4647
Ntp4648
a(S'It'
p4649
S'is_13'
p4650
Ntp4651
a(S'complex'
p4652
S'features'
p4653
S'track'
p4654
tp4655
a(S'track'
p4656
S'hosts'
p4657
S'racing'
p4658
tp4659
a(S'Race'
p4660
S'run'
p4661
Ntp4662
a(S'500'
p4663
S'run'
p4664
Ntp4665
a(S'Smith'
p4666
S'built'
p4667
S'speedway'
p4668
tp4669
a(S'It'
p4670
S'is_strip'
p4671
Ntp4672
a(S'It'
p4673
S'hosts'
p4674
S'events'
p4675
tp4676
a(S'oval'
p4677
S'hosts'
p4678
S'dirt'
p4679
tp4680
a(S'You'
p4681
S'help'
p4682
S'Wikipedia'
p4683
tp4684
a(S'Socks'
p4685
S'is_cat'
p4686
Ntp4687
a(S'picture'
p4688
S'was'
p4689
Ntp4690
a(S'Clinton'
p4691
S'left'
p4692
S'office'
p4693
tp4694
a(S'Socks'
p4695
S'went'
p4696
Ntp4697
a(S'Socks'
p4698
S'live'
p4699
Ntp4700
a.