(lp0
Vreason
p1
aVconclude
p2
aVperceive
p3
aVcomprehend
p4
aVbe
p5
aVthink
p6
aVbelieve
p7
aVconsider
p8
aVconceive
p9
aVexperience
p10
aVsee
p11
aVlook
p12
aVappear
p13
aVseem
p14
aVsearch
p15
aVseek
p16
aVtouch
p17
aVfind
p18
aVregain
p19
aVthink
p20
aVcogitate
p21
aVcerebrate
p22
aVpresent
p23
aVrepresent
p24
aVend
p25
aVterminate
p26
aVagree
p27
aVhold
p28
aVconcur
p29
aVconcord
p30
aVstop
p31
aVfinish
p32
aVcease
p33
aVunderstand
p34
aVrealize
p35
aVrealise
p36
aVsee
p37
aVinclude
p38
aVtypify
p39
aVsymbolize
p40
aVsymbolise
p41
aVtake
p42
aVoccupy
p43
aVstay
p44
aVremain
p45
aVrest
p46
ag5
aVevaluate
p47
aVjudge
p48
aVexpect
p49
aVanticipate
p50
aVimagine
p51
aVideate
p52
aVenvisage
p53
aVconcentrate
p54
aVfocus
p55
aVcenter
p56
aVcentre
p57
aVpore
p58
aVrivet
p59
ag7
ag8
ag9
aVchange
p60
aValter
p61
aVmodify
p62
aVaccept
p63
aVcredit
p64
aVmeditate
p65
aVponder
p66
aVexcogitate
p67
aVcontemplate
p68
aVmuse
p69
aVreflect
p70
aVmull
p71
aVruminate
p72
aVspeculate
p73
aVdiscuss
p74
aVlook
p75
aVanalyze
p76
aVanalyse
p77
aVstudy
p78
aVexamine
p79
aVcanvass
p80
aVcanvas
p81
aVreckon
p82
aVview
p83
aVregard
p84
aVturn
p85
aVundergo
p86
ag10
ag3
ag4
aVwatch
p87
aVverify
p88
aVvisit
p89
aVcall
p90
aVtour
p91
aVcare
p92
aVreceive
p93
aVinvite
p94
aVconsort
p95
aVassociate
p96
aVaffiliate
p97
aVassort
p98
aVdebate
p99
aVmoot
p100
aVdeliberate
p101
aVdetect
p102
aVobserve
p103
aVfind
p104
aVdiscover
p105
aVnotice
p106
aVaccompany
p107
aVbet
p108
aVwager
p109
aVplay
p110
aVlie
p111
aVconvey
p112
aVmatch
p113
aVfit
p114
aVcorrespond
p115
aVcheck
p116
aVjibe
p117
aVgibe
p118
aVtally
p119
aVtrust
p120
aVswear
p121
aVrely
p122
aVbank
p123
aVhappen
p124
aVmaterialize
p125
aVmaterialise
p126
aVperform
p127
aVexecute
p128
aVdo
p129
aVappear
p130
aVseem
p131
aVinvestigate
p132
aVdesire
p133
aVwant
p134
aVact
p135
aVmove
p136
aVtravel
p137
aVgo
p138
aVlocomote
p139
aVrequest
p140
aVaffect
p141
aVimpress
p142
aVstrike
p143
aVmanage
p144
aVdeal
p145
aVhandle
p146
ag17
aVcompete
p147
aVvie
p148
aVcontend
p149
aVhint
p150
aVsuggest
p151
aVconsume
p152
aVingest
p153
aVhave
p154
aVcolor
p155
aVcolorize
p156
aVcolorise
p157
aVcolourise
p158
aVcolourize
p159
aVcolour
p160
aVspy
p161
aVsight
p162
aVget
p163
aVacquire
p164
ag1
ag2
aVgestate
p165
aVconceptualize
p166
aVconceptualise
p167
aVlearn
p168
aVhear
p169
aVpronounce
p170
aVlabel
p171
aVreach
p172
aVmake
p173
aVattain
p174
aVhit
p175
aVgain
p176
aVmature
p177
aVmaturate
p178
aVgrow
p179
ag47
ag48
ag49
ag50
ag51
ag52
ag53
ag54
ag55
ag56
ag57
ag58
ag59
ag20
ag21
ag22
ag7
ag8
ag9
ag60
ag61
ag62
ag65
ag66
ag67
ag68
ag69
ag70
ag71
ag72
ag73
aVshow
p180
aVstate
p181
aVsay
p182
aVtell
p183
aVre-create
p184
aVgive
p185
aVconstitute
p186
aVrepresent
p187
aVcomprise
p188
aVbe
p189
aVallocate
p190
aVapportion
p191
aVtalk
p192
aVspeak
p193
aVutter
p194
aVmouth
p195
aVverbalize
p196
aVverbalise
p197
aVinform
p198
aVinterpret
p199
aVintroduce
p200
aVpresent
p201
aVacquaint
p202
aVgreet
p203
aVrecognize
p204
aVrecognise
p205
aVequal
p206
aVmean
p207
aVintend
p208
aVserve
p209
aVexpress
p210
aVembody
p211
aVpersonify
p212
aVdescribe
p213
aVdepict
p214
aVdraw
p215
aVremonstrate
p216
aVpermute
p217
aVcommute
p218
aVtranspose
p219
aVdestroy
p220
aVdestruct
p221
aVremove
p222
aVaccept
p223
aVconsent
p224
ag113
ag114
ag115
ag116
ag117
ag118
ag119
aVagree
p225
aVsuit
p226
aVdirect
p227
aVsee
p228
ag82
ag83
ag84
aVfeel
p229
aVexperience
p230
aVdisable
p231
aVdisenable
p232
aVincapacitate
p233
aVkeep
p234
aVhave
p235
aVhold
p236
ag38
aVcontinue
p237
aVproceed
p238
aVexist
p239
aVaffirm
p240
aVverify
p241
aVassert
p242
aVavow
p243
aVaver
p244
aVswan
p245
aVswear
p246
aVrequest
p247
aVbespeak
p248
aVquest
p249
aVprotect
p250
aVrelate
p251
aVcapture
p252
aVenamour
p253
aVtrance
p254
aVcatch
p255
aVbecharm
p256
aVenamor
p257
aVcaptivate
p258
aVbeguile
p259
aVcharm
p260
aVfascinate
p261
aVbewitch
p262
aVentrance
p263
aVenchant
p264
aVresist
p265
aVwithstand
p266
aVrefer
p267
aVpertain
p268
aVconcern
p269
aVtouch
p270
aVpostpone
p271
aVprorogue
p272
aVtable
p273
aVshelve
p274
aVdefer
p275
aVremit
p276
aVrestrain
p277
aVprevent
p278
aVcontrol
p279
aVcommand
p280
aVstop
p281
aVcover
p282
aVdrink
p283
aVbooze
p284
aVfuddle
p285
aVaim
p286
aVtake
p287
aVtrain
p288
aVhappen
p289
aVhap
p290
aVoccur
p291
aVpass
p292
aVarrange
p293
aVforestall
p294
aVforeclose
p295
aVpreclude
p296
aVforbid
p297
aVinterrupt
p298
aVdisrupt
p299
ag25
ag26
aVdefend
p300
aVgrab
p301
aVobstruct
p302
aVobturate
p303
aVimpede
p304
aVocclude
p305
aVjam
p306
aVblock
p307
aVbreak
p308
ag135
ag136
aVcoat
p309
aVsurface
p310
aVeat
p311
aVunderstand
p312
aVknow
p313
aVcognize
p314
aVcognise
p315
aVmake
p316
aVcreate
p317
ag163
ag164
aVsell
p318
aVharmonize
p319
aVharmonise
p320
ag3
ag4
ag87
ag89
ag90
ag91
ag92
ag93
ag94
ag95
ag96
ag97
ag98
ag99
ag100
ag101
ag102
ag103
ag104
ag105
ag106
ag86
ag107
ag108
ag109
ag110
aVadd
p321
aVpermit
p322
aVallow
p323
aVlet
p324
aVcountenance
p325
ag39
ag40
ag41
aVuse
p326
aVexpend
p327
aVconstrue
p328
aVtransport
p329
aVcarry
p330
aVutilize
p331
aVutilise
p332
aVapply
p333
aVemploy
p334
aVdecide
p335
aVdetermine
p336
aVwork
p337
aVrecord
p338
aVenter
p339
aVobtain
p340
aVincur
p341
aVnecessitate
p342
aVask
p343
aVpostulate
p344
aVneed
p345
aVrequire
p346
aVinvolve
p347
aVdemand
p348
aVhead
p349
aVposition
p350
aVbecome
p351
aVgo
p352
aVfeature
p353
aVbuy
p354
aVpurchase
p355
aVlove
p356
aVscrew
p357
aVfuck
p358
aVjazz
p359
aVeff
p360
aVhump
p361
aVbed
p362
aVbang
p363
aVbonk
p364
aVtraverse
p365
aVtrack
p366
aVcross
p367
aVwin
p368
aVsicken
p369
aVpopulate
p370
aVdwell
p371
aVlive
p372
aVinhabit
p373
aVattack
p374
aVassail
p375
aVinterest
p376
aVstay
p377
aVremain
p378
aVretard
p379
aVdelay
p380
aVhalt
p381
aVkibosh
p382
aVfasten
p383
aVfix
p384
aVsecure
p385
aVmeet
p386
aVsatisfy
p387
aVfill
p388
aVfulfill
p389
aVfulfil
p390
aVpause
p391
aVintermit
p392
aVrecumb
p393
aVrepose
p394
aVrecline
p395
aVput
p396
aVset
p397
aVplace
p398
aVpose
p399
aVlay
p400
aVsit
p401
ag43
ag46
aVsettle
p402
aVresolve
p403
aVadjudicate
p404
aVcalculate
p405
aVcipher
p406
aVcypher
p407
aVcompute
p408
aVfigure
p409
aVdeclare
p410
aVadjudge
p411
aVlook
p412
aVawait
p413
aVwait
p414
aVdeliver
p415
aVbear
p416
aVbirth
p417
aVguess
p418
aVventure
p419
aVpretend
p420
aVhazard
p421
ag85
aVabridge
p422
aVforeshorten
p423
aVabbreviate
p424
aVshorten
p425
aVcut
p426
aVcontract
p427
aVreduce
p428
aVconverge
p429
aVdecrease
p430
aVdiminish
p431
aVlessen
p432
aVfall
p433
aVminify
p434
aVsharpen
p435
aValign
p436
aValine
p437
aVadjust
p438
aVconform
p439
aVadapt
p440
aVcorrect
p441
aVdisplace
p442
aVabsorb
p443
aVengross
p444
aVengage
p445
ag64
ag74
ag76
ag77
ag78
ag79
ag80
ag81
aVdress
p446
aVreplace
p447
aVtransfer
p448
ag137
ag139
aVedit
p449
aVredact
p450
aVsterilize
p451
aVsterilise
p452
aVdesex
p453
aVunsex
p454
aVdesexualize
p455
aVdesexualise
p456
aVreact
p457
aVrespond
p458
aVdigest
p459
aVendure
p460
aVstomach
p461
aVstand
p462
aVtolerate
p463
aVsupport
p464
aVbrook
p465
aVabide
p466
aVsuffer
p467
aVimpute
p468
aVascribe
p469
aVassign
p470
aVattribute
p471
aVaccount
p472
ag120
ag122
ag123
aVdeal
p473
aVindicate
p474
aVpoint
p475
aVdesignate
p476
aVemit
p477
aVattest
p478
aVcertify
p479
aVmanifest
p480
aVdemonstrate
p481
aVevidence
p482
aVsweeten
p483
aVdulcify
p484
aVedulcorate
p485
aVdulcorate
p486
aVreason
p487
aVinvest
p488
aVcommit
p489
aVtreat
p490
aVhandle
p491
aVplow
p492
aVaddress
p493
ag111
ag112
aVlearn
p494
aVlarn
p495
ag132
aVquestion
p496
aVquery
p497
aVsurvey
p498
aVsolicit
p499
aVbeg
p500
aVtap
p501
aVestimate
p502
aVgauge
p503
aVapproximate
p504
aVtransform
p505
aVtransmute
p506
aVmetamorphose
p507
aVtransmit
p508
aVchannel
p509
aVchannelize
p510
aVchannelise
p511
aVsend
p512
aVtill
p513
aVshape
p514
aVform
p515
aVdiscolor
p516
aVdiscolour
p517
aVcolour
p518
aVcolor
p519
aVgrow
p520
aVinjure
p521
aVwound
p522
aVdo
p523
aVperform
p524
aVdeform
p525
aVoperate
p526
aVappeal
p527
aVinvoke
p528
aVsenesce
p529
aVage
p530
aVmature
p531
aVmaturate
p532
ag35
ag36
aVconfirm
p533
aVcorroborate
p534
aVsustain
p535
aVsubstantiate
p536
aVtest
p537
aVprove
p538
aVtry
p539
aVessay
p540
aVreassert
p541
aVtrip
p542
aVjaunt
p543
aVcommunicate
p544
aVintercommunicate
p545
aVconverse
p546
aVdiscourse
p547
aVbide
p548
aVafflict
p549
aVsmite
p550
aVlabel
p551
aVtelecommunicate
p552
aVorder
p553
aVenjoin
p554
aVread
p555
aVexact
p556
aVchallenge
p557
aVdispute
p558
aVgainsay
p559
aVentice
p560
aVlure
p561
aVtempt
p562
aVawaken
p563
aVwake
p564
aVwaken
p565
aVrouse
p566
aVarouse
p567
aVjourney
p568
aVpity
p569
aVcompassionate
p570
aVhelp
p571
aVassist
p572
aVaid
p573
ag133
ag134
aVmind
p574
aVconvert
p575
aVcelebrate
p576
aVfete
p577
aVpartake
p578
aVelicit
p579
aVenkindle
p580
aVkindle
p581
aVevoke
p582
aVfire
p583
aVraise
p584
aVprovoke
p585
aVstimulate
p586
aVshake
p587
aVexcite
p588
aVstir
p589
aVinteract
p590
aVunite
p591
aVunify
p592
aVjoin
p593
aVcategorize
p594
aVcategorise
p595
ag161
ag162
ag2
ag165
ag166
ag167
ag169
ag170
ag172
ag174
ag175
ag176
ag19
aVnote
p596
aVmention
p597
aVremark
p598
aVpredict
p599
aVforetell
p600
aVprognosticate
p601
aVforebode
p602
aVpromise
p603
aVgamble
p604
ag147
ag148
ag149
aVsound
p605
aVbehave
p606
aVsimulate
p607
aVassume
p608
aVsham
p609
aVfeign
p610
aVdeploy
p611
aVmanipulate
p612
aVexploit
p613
aVdischarge
p614
aVexhaust
p615
aVbeat
p616
aVtucker
p617
aVmisinform
p618
aVmislead
p619
aVimpart
p620
aVleave
p621
aVbring
p622
aVsupply
p623
aVprovide
p624
aVrender
p625
aVfurnish
p626
aVcope
p627
aVgrapple
p628
aVmanage
p629
aVconfront
p630
aVface
p631
aVaccommodate
p632
aVblockade
p633
aVhinder
p634
aVstymie
p635
aVstymy
p636
aVembarrass
p637
aVdevelop
p638
aVconsign
p639
aVcharge
p640
aVaggress
p641
aVissue
p642
aVcrack
p643
aVsail
p644
aVtease
p645
aVrazz
p646
aVrag
p647
aVcod
p648
aVtantalize
p649
aVtantalise
p650
aVbait
p651
aVtaunt
p652
aVtwit
p653
aVrally
p654
aVride
p655
aVadvance
p656
aVcount
p657
aVnumber
p658
aVenumerate
p659
aVnumerate
p660
aVwish
p661
aVhand
p662
aVlend
p663
aVloan
p664
aVvow
p665
aVtip
p666
aVenclose
p667
aVinclose
p668
aVtransact
p669
aVchance
p670
aVaccomplish
p671
aVexecute
p672
aVaction
p673
aVkill
p674
aVpunish
p675
aVpenalize
p676
aVpenalise
p677
aVmurder
p678
aVslay
p679
aVdispatch
p680
aVoff
p681
aVcomplete
p682
aVfinish
p683
aVeffect
p684
aVeffectuate
p685
aVenforce
p686
aVimplement
p687
aVsign
p688
aVspend
p689
aVgroom
p690
aVneaten
p691
ag125
ag126
ag130
ag131
aVprobe
p692
ag15
ag16
aVmiss
p693
aVlack
p694
aVsucceed
p695
aVvary
p696
aVcause
p697
ag141
ag142
ag143
aVpropose
p698
aVsuggest
p699
aVadvise
p700
aVexit
p701
aVdisappear
p702
aVvanish
p703
ag33
aVcompare
p704
aVaccord
p705
aVconcord
p706
aVchoose
p707
aVselect
p708
aVwonder
p709
aVinquire
p710
aVenquire
p711
aVmisrepresent
p712
aVbelie
p713
aVwrite
p714
aVkidnap
p715
aVnobble
p716
aVabduct
p717
aVsnatch
p718
aVdye
p719
aVregister
p720
aVimpact
p721
aVprotest
p722
aVdissent
p723
aVachieve
p724
aVdelete
p725
aVcancel
p726
aVflush
p727
aVlevel
p728
aVeven
p729
aVpenetrate
p730
aVperforate
p731
aVsolve
p732
aVlick
p733
aVadminister
p734
aVadministrate
p735
aVbroach
p736
aVinitiate
p737
aVacquit
p738
aVdeport
p739
aVconduct
p740
aVcomport
p741
aVdistribute
p742
aVlot
p743
aVdispense
p744
aVallot
p745
aVtrade
p746
ag150
ag152
ag153
ag156
ag157
ag158
ag159
aVclaim
p747
aVoppose
p748
aVimply
p749
aVevince
p750
aVdrop
p751
aVruin
p752
aVhurt
p753
aVscore
p754
aVproduce
p755
aVinfluence
p756
aVdecorate
p757
aVadorn
p758
aVgrace
p759
aVornament
p760
aVembellish
p761
aVbeautify
p762
aVapologize
p763
aVapologise
p764
aVexcuse
p765
aVjustify
p766
aVrationalize
p767
aVrationalise
p768
aVmonitor
p769
aVsupervise
p770
aVseize
p771
aVprehend
p772
aVclutch
p773
aVattract
p774
aVpull
p775
aVache
p776
aVannoy
p777
aVbother
p778
aVirritate
p779
aVrile
p780
aVnark
p781
aVnettle
p782
aVgravel
p783
aVvex
p784
aVchafe
p785
aVdevil
p786
aVreproduce
p787
aVconfuse
p788
aVthrow
p789
aVfox
p790
aVbefuddle
p791
aVbedevil
p792
aVconfound
p793
aVdiscombobulate
p794
aVsituate
p795
aVlocate
p796
ag29
aVdenominate
p797
aVattach
p798
aVdistinguish
p799
aVseparate
p800
aVdifferentiate
p801
aVsecern
p802
aVsecernate
p803
aVseveralize
p804
aVseveralise
p805
aVarrive
p806
aVcome
p807
aVtug
p808
aVlabor
p809
aVlabour
p810
aVpush
p811
aVdrive
p812
aVappoint
p813
aVperpetrate
p814
aVassemble
p815
aVgather
p816
aVtidy
p817
aVstraighten
p818
aVexcrete
p819
aVegest
p820
aVeliminate
p821
aVtotal
p822
aVamount
p823
aVpersuade
p824
aVguarantee
p825
aVensure
p826
aVinsure
p827
aVassure
p828
aVpropel
p829
aVimpel
p830
aVapproach
p831
aVwax
p832
aVmount
p833
aVclimb
p834
aVrise
p835
aVincrease
p836
aVexplicate
p837
aVformulate
p838
aVexpel
p839
aVeject
p840
aVrelease
p841
aVcultivate
p842
ag47
ag48
ag20
ag21
ag22
aVdecide
p843
ag402
ag403
ag404
ag405
ag406
ag407
ag408
aVreckon
p844
ag409
ag410
ag411
aVhold
p845
ag336
aVdemand
p846
ag228
aVconsider
p847
ag83
ag84
aVexpect
p848
ag412
ag413
ag414
ag415
ag416
ag417
aVhave
p849
ag135
ag136
aVknow
p850
ag418
ag419
ag420
ag421
ag289
ag290
ag291
ag292
ag50
ag85
ag60
ag61
ag62
ag422
ag423
ag424
ag425
ag426
ag427
ag428
ag429
ag430
ag431
ag432
ag433
ag434
ag435
ag436
ag437
ag438
ag439
ag440
aVset
p851
ag441
ag267
ag268
aVrelate
p852
ag269
ag270
ag442
ag383
ag384
ag385
ag443
ag444
ag445
aVoccupy
p853
ag51
ag52
ag53
ag54
ag55
ag56
ag57
ag58
ag59
ag7
ag9
ag65
ag66
ag67
ag68
ag69
ag70
ag71
ag72
ag73
ag63
ag64
ag74
ag76
ag77
ag78
ag79
ag80
ag81
ag446
ag447
ag448
ag137
ag138
ag139
ag449
ag450
ag451
ag452
ag453
ag454
ag455
ag456
ag321
aVtake
p854
ag473
ag474
ag475
ag476
aVshow
p855
ag477
ag478
ag479
ag480
ag481
ag482
ag483
ag484
ag485
ag486
ag311
ag487
ag488
aVput
p856
ag489
aVplace
p857
ag533
ag534
ag535
ag536
aVsupport
p858
aVaffirm
p859
ag198
aVrepresent
p860
ag199
ag112
aVappear
p861
aVread
p862
ag720
aVrecord
p863
aVlead
p864
aVdirect
p865
aVconduct
p866
aVguide
p867
aVrace
p868
aVrun
p869
ag210
aVverbalize
p870
aVverbalise
p871
aVutter
p872
ag698
ag699
ag700
aVdenote
p873
aVassert
p874
aVasseverate
p875
aVmaintain
p876
ag353
aVrequest
p877
aVrecite
p878
aVinfer
p879
ag241
ag243
ag244
ag245
ag246
aVidentify
p880
ag316
ag317
ag623
ag624
ag625
ag626
ag181
ag182
ag183
ag544
ag545
aVproduce
p881
ag662
aVreach
p882
aVgive
p883
aVrelease
p884
aVrelinquish
p885
aVresign
p886
aVfree
p887
aVuse
p888
ag331
ag332
ag333
ag334
aVadminister
p889
aVdispense
p890
ag742
ag743
ag745
aVply
p891
aVcater
p892
ag502
ag503
ag504
aVexecute
p893
aVcompensate
p894
aVrecompense
p895
aVrepair
p896
aVindemnify
p897
aVperform
p898
aVstretch
p899
aVtoast
p900
aVdrink
p901
aVpledge
p902
aVsalute
p903
aVwassail
p904
aVaccord
p905
aVgrant
p906
ag750
aVsubmit
p907
aVsubject
p908
ag322
ag323
ag324
ag325
aVinflict
p909
aVvisit
p910
aVimpose
p911
ag224
aVoffer
p912
aVproffer
p913
aVestablish
p914
aVfound
p915
aVplant
p916
aVconstitute
p917
aVinstitute
p918
ag188
ag189
aVinitiate
p919
aVpioneer
p920
ag206
ag207
ag208
ag209
ag211
ag212
ag184
ag213
ag214
ag215
ag216
ag217
ag218
ag219
ag38
ag39
ag40
ag41
ag44
ag45
ag46
aVassign
p921
aVportion
p922
aVunwrap
p923
aVdisclose
p924
aVreveal
p925
aVdiscover
p926
aVexpose
p927
aVdivulge
p928
aVbreak
p929
aVteach
p930
aVlearn
p931
aVinstruct
p932
aVsound
p933
aVcirculate
p934
aVfeign
p935
aVsham
p936
aVaffect
p937
aVdissemble
p938
ag192
ag193
ag195
ag575
ag312
aVexplain
p939
aVexplicate
p940
ag129
aVrepeat
p941
aVreiterate
p942
aVingeminate
p943
aViterate
p944
aVrestate
p945
aVretell
p946
ag399
aVposition
p947
ag400
ag798
ag200
ag201
ag202
aVproject
p948
aVbegin
p949
aVstart
p950
aVcommence
p951
ag190
ag191
ag203
ag204
ag205
aVaddress
p952
aVaccost
p953
ag457
ag458
ag314
ag315
aVremember
p954
aVretrieve
p955
aVrecall
p956
aVrecollect
p957
aVlicense
p958
aVlicence
p959
aVthank
p960
aVprize
p961
aVvalue
p962
aVtreasure
p963
aVappreciate
p964
ag147
ag148
ag149
aVnecessitate
p965
aVassociate
p966
aVlink
p967
aVcolligate
p968
aVconnect
p969
aVdestine
p970
aVspecify
p971
aVplan
p972
aVsuffice
p973
aVanswer
p974
ag337
ag684
ag685
aVfunction
p975
aVoperate
p976
aVfoster
p977
aVnurture
p978
ag689
ag571
ag572
ag573
aVsatisfy
p979
aVfulfill
p980
aVfulfil
p981
aVcopulate
p982
aVmate
p983
aVpair
p984
aVcouple
p985
aVrealize
p986
aVrealise
p987
aVactualize
p988
aVactualise
p989
ag163
ag164
aVmail
p990
aVpost
p991
aVsend
p992
ag468
ag469
ag471
aVexpound
p993
aVexposit
p994
aVmark
p995
aVderive
p996
aVgain
p997
aVremove
p998
aVwithdraw
p999
ag707
ag708
aVarouse
p1000
ag579
ag580
ag581
ag582
ag583
ag584
ag585
aVinhale
p1001
aVinspire
p1002
aVwrite
p1003
aVcompose
p1004
aVpen
p1005
aVindite
p1006
aVclose
p1007
aVshut
p1008
ag343
ag344
ag345
ag346
ag347
ag674
aVpull
p1009
aVforce
p1010
aVarrange
p1011
aVmatch
p1012
aVequalize
p1013
aVequalise
p1014
aVequate
p1015
ag525
aVthin
p1016
aVsteep
p1017
aVinfuse
p1018
ag514
ag515
aVlocalize
p1019
aVlocalise
p1020
aVobject
p1021
aVknock
p1022
aVcriticize
p1023
aVcriticise
p1024
aVreverse
p1025
ag542
ag543
aVshift
p1026
aVunmake
p1027
aVundo
p1028
aVovercome
p1029
aVdefeat
p1030
ag220
ag221
ag702
ag703
ag459
ag460
ag461
ag462
ag463
ag465
ag466
ag467
aVreceive
p1031
aVjoin
p1032
ag627
ag628
ag629
ag630
ag631
aVmeet
p1033
aVfit
p1034
ag115
ag116
ag117
ag118
ag119
ag225
ag632
ag277
aVkeep
p1035
aVstop
p1036
aVhalt
p1037
aVobstruct
p1038
ag633
aVblock
p1039
ag634
ag635
ag636
ag637
ag638
ag639
ag640
ag300
aVattack
p1040
ag641
ag642
ag643
ag644
ag645
ag646
ag647
ag648
ag649
ag650
ag651
ag652
ag653
ag654
ag655
ag656
aVwin
p1041
ag339
ag657
ag658
ag659
ag660
ag226
aVfancify
p1042
aVbeautify
p1043
aVembellish
p1044
aVprettify
p1045
ag553
ag554
ag286
ag288
aVcare
p1046
ag146
aVapprise
p1047
aVapprize
p1048
ag279
ag280
ag551
ag3
ag4
ag10
ag87
ag90
ag91
ag94
ag95
ag97
ag98
ag99
ag100
ag101
ag102
ag103
ag104
ag106
ag86
ag107
ag108
ag109
ag110
ag120
ag122
ag123
ag2
ag14
ag15
ag16
ag19
ag521
ag522
aVlodge
p1049
aVprolong
p1050
aVinhibit
p1051
aVsuppress
p1052
ag250
aVgrow
p1053
aVfarm
p1054
aVreserve
p1055
aVbook
p1056
aVstore
p1057
aVconfine
p1058
aVdetain
p1059
aVcook
p1060
aVready
p1061
aVprepare
p1062
ag590
ag753
ag754
aVhit
p1063
ag356
ag357
ag358
ag359
ag360
ag361
ag362
ag363
ag364
ag229
ag231
ag232
ag233
ag237
ag238
ag239
ag248
ag249
ag252
ag253
ag254
ag255
ag256
ag257
ag258
ag259
ag260
ag261
ag262
ag263
ag264
ag265
ag266
ag271
ag272
ag273
ag274
ag275
ag276
ag278
ag282
ag284
ag285
ag537
ag538
ag539
ag540
ag541
aVinsist
p1064
aVbehave
p1065
ag738
ag739
ag741
aVcarry
p1066
aVposit
p1067
aVadmit
p1068
aVacknowledge
p1069
aVsweep
p1070
ag665
ag709
ag710
ag711
aVchase
p1071
aVtrail
p1072
aVtail
p1073
aVtag
p1074
aVdog
p1075
aVtrack
p1076
aVbark
p1077
ag499
ag500
ag501
aVnarrate
p1078
aVrecount
p1079
aVattract
p1080
aVappeal
p1081
ag771
ag772
ag773
aVassume
p1082
aVusurp
p1083
aVarrogate
p1084
aVsurprise
p1085
aVboard
p1086
aVcontain
p1087
aVcurb
p1088
aVmoderate
p1089
aVhear
p1090
aVerupt
p1091
aVignite
p1092
aVcombust
p1093
aVconflagrate
p1094
ag776
ag787
aVcollect
p1095
aVaccumulate
p1096
aVamass
p1097
aVcompile
p1098
aVhoard
p1099
aVspread
p1100
aVpropagate
p1101
aVwitness
p1102
aVdelay
p1103
aVcheat
p1104
aVchisel
p1105
ag824
aVinterest
p1106
aVinfluence
p1107
aVtempt
p1108
aVhypnotize
p1109
aVhypnotise
p1110
aVmesmerize
p1111
aVmesmerise
p1112
aVplease
p1113
aVdelight
p1114
aVelude
p1115
aVescape
p1116
aVfight
p1117
aVoppose
p1118
aVcontrovert
p1119
aVcontradict
p1120
aVdisobey
p1121
aVclassify
p1122
aVclass
p1123
aVsort
p1124
aVseparate
p1125
aVresearch
p1126
aVsignify
p1127
aVname
p1128
aVbelong
p1129
ag142
ag143
ag150
ag152
ag153
ag155
ag156
ag157
ag158
ag159
ag160
aVadjourn
p1130
aVretire
p1131
aVyield
p1132
aVsuccumb
p1133
aVpay
p1134
aVcancel
p1135
aVchallenge
p1136
aVforgive
p1137
aVloosen
p1138
aVloose
p1139
aVrestrict
p1140
aVtrammel
p1141
aVlimit
p1142
aVbound
p1143
aVthrottle
p1144
aVdiscourage
p1145
ag612
aVinsure
p1146
aVensure
p1147
aVascertain
p1148
aVassure
p1149
aVdominate
p1150
aVmaster
p1151
ag556
ag111
ag294
ag295
ag296
ag297
ag298
ag299
ag25
ag26
ag301
ag303
ag304
ag305
ag306
aVadjoin
p1152
aVcontact
p1153
ag736
aVhide
p1154
aVconceal
p1155
aVguarantee
p1156
aVwarrant
p1157
aVcounterbalance
p1158
aVendow
p1159
aVindue
p1160
aVgift
p1161
aVempower
p1162
aVendue
p1163
aVsubstitute
p1164
aVdeputize
p1165
aVdeputise
p1166
aVenvelop
p1167
aVenfold
p1168
aVenwrap
p1169
aVwrap
p1170
aVenclose
p1171
aVprocreate
p1172
aVmultiply
p1173
aVclothe
p1174
aVenclothe
p1175
aVgarb
p1176
aVraiment
p1177
aVtog
p1178
aVgarment
p1179
aVhabilitate
p1180
aVapparel
p1181
aVhonor
p1182
aVhonour
p1183
aVreward
p1184
aVimmerse
p1185
aVengulf
p1186
aVplunge
p1187
aVhabituate
p1188
aVintoxicate
p1189
aVsoak
p1190
aVinebriate
p1191
ag327
ag328
ag329
ag340
ag341
ag349
ag351
ag354
ag355
ag365
ag367
ag369
aVeducate
p1192
aVpolish
p1193
aVrefine
p1194
aVfine-tune
p1195
aVdown
p1196
aVexercise
p1197
aVdrag
p1198
ag670
aVordain
p1199
aVenact
p1200
aVprogress
p1201
ag695
aVtransmit
p1202
aVexcel
p1203
aVsurpass
p1204
aVthrow
p1205
aVexhaust
p1206
aVdischarge
p1207
ag839
ag840
ag29
ag30
ag690
ag691
aVorganize
p1208
aVorganise
p1209
aVreclaim
p1210
aVrepossess
p1211
aVobviate
p1212
aVeliminate
p1213
aVdiscontinue
p1214
aVargue
p1215
aVstruggle
p1216
aVback
p1217
aVendorse
p1218
aVindorse
p1219
aVintrigue
p1220
aVcrowd
p1221
aVpush
p1222
aVbruise
p1223
aVcontuse
p1224
aVmalfunction
p1225
aVmisfunction
p1226
aVstuff
p1227
aVanesthetize
p1228
aVanaesthetize
p1229
aVanesthetise
p1230
aVanaesthetise
p1231
aVemboss
p1232
aVboss
p1233
aVstamp
p1234
aVclog
p1235
aVcongest
p1236
aVchoke
p1237
aVfoul
p1238
aVfence
p1239
aVwithhold
p1240
aVdamage
p1241
ag752
aVdivide
p1242
aVdisrespect
p1243
aVdisperse
p1244
aVdissipate
p1245
aVscatter
p1246
aVtrespass
p1247
aVintrude
p1248
aVdomesticate
p1249
aVdomesticize
p1250
aVdomesticise
p1251
aVtame
p1252
aVoutstrip
p1253
aVoutmatch
p1254
aVoutgo
p1255
aVexceed
p1256
aVoutdo
p1257
aVsurmount
p1258
aVoutperform
p1259
aVpart
p1260
aVsplit
p1261
aVflee
p1262
aVfly
p1263
aVcollapse
p1264
aVfounder
p1265
aVdeaden
p1266
aVblunt
p1267
ag32
ag33
ag696
aVquit
p1268
aVemerge
p1269
aVinvalidate
p1270
aVannul
p1271
aVquash
p1272
aVvoid
p1273
aVavoid
p1274
aVnullify
p1275
aVdelegate
p1276
aVdepute
p1277
aVimpoverish
p1278
aVswitch
p1279
aVdance
p1280
aVexchange
p1281
aVshoot
p1282
aVdisunite
p1283
aVdecay
p1284
aVcrumble
p1285
aVdilapidate
p1286
aVdetach
p1287
ag730
ag731
aVdiphthongize
p1288
aVdiphthongise
p1289
ag732
ag733
aVweaken
p1290
ag697
ag318
aVlive
p1291
aVascend
p1292
aVworry
p1293
aVvex
p1294
ag751
aVagnize
p1295
aVagnise
p1296
ag799
ag801
ag802
ag803
ag804
ag805
ag724
aVaccomplish
p1297
aVattain
p1298
ag813
ag814
ag815
ag816
ag817
ag818
ag819
ag820
ag822
aVcome
p1299
ag823
ag509
ag510
ag511
aVleave
p1300
ag777
ag778
ag779
ag780
ag781
ag782
ag783
ag785
ag786
aVstir
p1301
ag788
ag790
ag791
ag792
ag793
ag794
ag795
ag796
aVinterchange
p1302
ag669
aVsurrender
p1303
aVcede
p1304
aVdeceive
p1305
aVdelude
p1306
aVcozen
p1307
aVsing
p1308
ag546
ag547
ag548
ag549
ag550
ag552
ag558
ag559
ag560
ag561
ag563
ag564
ag565
ag566
ag568
ag569
ag570
ag133
ag134
ag574
ag576
ag577
ag578
ag586
ag587
ag588
ag591
ag592
ag594
ag595
ag161
ag162
ag165
ag166
ag167
ag170
ag177
ag178
ag596
ag597
ag598
ag599
ag600
ag601
ag602
ag603
ag604
ag607
ag611
ag613
ag616
ag617
ag836
aVafford
p1309
aVforecast
p1310
aVdiscount
p1311
aVinduce
p1312
ag622
aVimply
p1313
aVcircularize
p1314
aVcircularise
p1315
aVdisseminate
p1316
aVbroadcast
p1317
aVdiffuse
p1318
aVrange
p1319
aVpromote
p1320
aVboost
p1321
aVfurther
p1322
aVencourage
p1323
aVappropriate
p1324
aVconquer
p1325
aVfollow
p1326
ag829
ag830
aVnourish
p1327
aVcompel
p1328
aVoblige
p1329
aVobligate
p1330
aVdedicate
p1331
aVconsecrate
p1332
aVdevote
p1333
aVmold
p1334
aVregulate
p1335
aVdefine
p1336
aVdelineate
p1337
aVdelimit
p1338
aVdelimitate
p1339
aVtransform
p1340
aVtransmute
p1341
aVtransubstantiate
p1342
ag721
aVsave
p1343
aVpreserve
p1344
aVremind
p1345
aVformulate
p1346
aVword
p1347
aVphrase
p1348
aVarticulate
p1349
ag747
aVpresuppose
p1350
aVsuppose
p1351
aVcomplicate
p1352
aVrarify
p1353
aVelaborate
p1354
aVsummon
p1355
aVsummons
p1356
aVcite
p1357
aVprecede
p1358
aVoriginate
p1359
aVarise
p1360
aVrise
p1361
aVuprise
p1362
ag507
ag701
ag704
aVharmonize
p1363
aVharmonise
p1364
aVlike
p1365
aVrevolve
p1366
aVrotate
p1367
aVtighten
p1368
aVcrush
p1369
aVshell
p1370
aVtrounce
p1371
aVvanquish
p1372
aVspiel
p1373
aVextend
p1374
aVpursue
p1375
aVencounter
p1376
aVfold
p1377
aVintersect
p1378
aVbreed
p1379
aVrepel
p1380
aVrepulse
p1381
aVworsen
p1382
aVdecline
p1383
aVdisgust
p1384
aVrevolt
p1385
aVharm
p1386
aVfill
p1387
ag379
ag382
aVdecelerate
p1388
aVslow
p1389
aVbetter
p1390
aVimprove
p1391
aVamend
p1392
aVameliorate
p1393
aVmeliorate
p1394
aVvouch
p1395
aVstrengthen
p1396
aVfortify
p1397
aVforgather
p1398
aVforegather
p1399
aVhire
p1400
aVmend
p1401
aVbushel
p1402
aVdoctor
p1403
aVrestore
p1404
ag682
aVlean
p1405
aVtilt
p1406
aVtip
p1407
aVslant
p1408
aVangle
p1409
aVstage
p1410
aVdescend
p1411
aVsolidify
p1412
aVprint
p1413
aVbury
p1414
aVsink
p1415
aVhone
p1416
aVassail
p1417
aVassault
p1418
aVequip
p1419
aVoutfit
p1420
aVstation
p1421
aVrank
p1422
aVexhibit
p1423
aVdisplay
p1424
aVbetray
p1425
aVdevise
p1426
aVmachinate
p1427
aVrepose
p1428
aVlevy
p1429
ag618
ag619
aVconvene
p1430
aVguard
p1431
ag370
ag371
ag373
ag391
ag392
ag393
ag395
ag401
aVstabilize
p1432
aVstabilise
p1433
aVspot
p1434
aVdiscern
p1435
aVencode
p1436
aVgrok
p1437
aVsavvy
p1438
aVdig
p1439
aVgrasp
p1440
aVcompass
p1441
aVapprehend
p1442
aVauthorize
p1443
aVauthorise
p1444
aVclear
p1445
aVproclaim
p1446
aVexclaim
p1447
aVpromulgate
p1448
aVfetch
p1449
aVearn
p1450
aVrisk
p1451
ag712
ag713
aVattempt
p1452
aVassay
p1453
ag513
ag516
ag517
ag528
ag529
ag530
aVcurtail
p1454
aVtrim
p1455
aVdesign
p1456
aVmiss
p1457
aVtransit
p1458
aVtape
p1459
aVshuffle
p1460
aVruffle
p1461
aVmix
p1462
aVflip
p1463
aVreap
p1464
aVharvest
p1465
aVglean
p1466
aVfell
p1467
aVtreat
p1468
aVextinguish
p1469
aVdissolve
p1470
aVemasculate
p1471
aVcastrate
p1472
aVdemasculinize
p1473
aVdemasculinise
p1474
aVshrink
p1475
aVsimplify
p1476
aVdemote
p1477
aVbump
p1478
aVrelegate
p1479
aVdegrade
p1480
aVdisgrace
p1481
aVdemean
p1482
aVoppress
p1483
aVreposition
p1484
aVde-emphasize
p1485
aVde-emphasise
p1486
aVdestress
p1487
aVapproach
p1488
aVmerge
p1489
aVfail
p1490
aVmiscarry
p1491
aVdie
p1492
aVdecease
p1493
aVperish
p1494
aVexpire
p1495
aVconk
p1496
aVcroak
p1497
aVsin
p1498
aVtransgress
p1499
aVreturn
p1500
aVdevolve
p1501
aVslope
p1502
aVincline
p1503
aVpitch
p1504
aVegress
p1505
aVintensify
p1506
aVcompound
p1507
aVheighten
p1508
aVdeepen
p1509
aVreorient
p1510
aVrebuke
p1511
aVreproof
p1512
aVlecture
p1513
aVreprimand
p1514
aVjaw
p1515
aVscold
p1516
aVchide
p1517
aVberate
p1518
aVlambaste
p1519
aVlambast
p1520
aVbalance
p1521
aVequilibrate
p1522
aVequilibrize
p1523
aVequilibrise
p1524
ag675
ag676
ag677
aVsupplant
p1525
aVsupersede
p1526
aVsupercede
p1527
aVsorb
p1528
ag495
aVfund
p1529
aVblend
p1530
aVflux
p1531
aVconflate
p1532
aVcommingle
p1533
aVimmix
p1534
aVfuse
p1535
aVcoalesce
p1536
aVmeld
p1537
aVcombine
p1538
aVprocure
p1539
ag472
ag492
ag132
ag496
ag497
ag498
aVoverdress
p1540
aVprink
p1541
aVattire
p1542
ag757
ag758
ag759
ag760
aVpare
p1543
aVregenerate
p1544
aVrenew
p1545
aVpublish
p1546
aVcensor
p1547
aVdisinfect
p1548
aVdeprive
p1549
aVstrip
p1550
aVdivest
p1551
aVsublimate
p1552
aVprocess
p1553
aVsystematize
p1554
aVsystematise
p1555
aVsystemize
p1556
aVsystemise
p1557
aVdisintegrate
p1558
aVdecompose
p1559
aVdefy
p1560
aVlast
p1561
aVmeasure
p1562
aVservice
p1563
aVrespect
p1564
aVapprove
p1565
aVO.K.
p1566
aVokay
p1567
aVsanction
p1568
aVtend
p1569
ag661
ag663
ag664
ag668
ag746
aVtestify
p1570
ag722
ag723
aVenable
p1571
aVinstall
p1572
aVinstal
p1573
aVprosecute
p1574
aVnegociate
p1575
aVtarget
p1576
aVaccess
p1577
ag620
ag692
aVinspect
p1578
aVplead
p1579
aVhedge
p1580
aVfudge
p1581
aVevade
p1582
aVcircumvent
p1583
aVparry
p1584
aVskirt
p1585
aVdodge
p1586
aVduck
p1587
aVsidestep
p1588
aVeavesdrop
p1589
aVwalk
p1590
aVpierce
p1591
aVrub
p1592
aVquantify
p1593
aVstandardize
p1594
aVstandardise
p1595
aVresemble
p1596
aVpublicize
p1597
aVpublicise
p1598
aVair
p1599
aVbare
p1600
aVsteer
p1601
aVmaneuver
p1602
aVmanoeuver
p1603
aVmanoeuvre
p1604
aVconstruct
p1605
aVbuild
p1606
ag763
ag764
ag765
ag766
ag767
ag768
ag842
aVsmell
p1607
aVintertwine
p1608
aVtwine
p1609
aVentwine
p1610
aVenlace
p1611
aVinterlace
p1612
aVlace
p1613
aVlift
p1614
aVelevate
p1615
ag673
aVtwist
p1616
aVdistort
p1617
aVadvert
p1618
aVcovenant
p1619
aVuphold
p1620
aVshew
p1621
aVauthenticate
p1622
aVpain
p1623
aVanguish
p1624
aVmelt
p1625
aVwear
p1626
aVdon
p1627
aVcomplect
p1628
aVinterconnect
p1629
aVinterlink
p1630
aVupset
p1631
aVdiscompose
p1632
aVuntune
p1633
aVdisconcert
p1634
aVdiscomfit
p1635
ag797
aVvest
p1636
aVenthrone
p1637
aVprohibit
p1638
aVinterdict
p1639
aVproscribe
p1640
aVveto
p1641
aVdisallow
p1642
aVnix
p1643
aVaudition
p1644
aVcontest
p1645
aVrepugn
p1646
aVbid
p1647
aVsex
p1648
aValarm
p1649
aValert
p1650
aVdisturb
p1651
aVtrouble
p1652
aVgrieve
p1653
aVsorrow
p1654
aVrefrain
p1655
aVforbear
p1656
ag694
aVobey
p1657
aVshare
p1658
aVdeduce
p1659
aVdeduct
p1660
aVlight
p1661
aVblast
p1662
aVbake
p1663
aVdispel
p1664
aVenlist
p1665
aVdraft
p1666
aVenounce
p1667
aVenunciate
p1668
aVincite
p1669
aVinstigate
p1670
aVresuscitate
p1671
aVrevive
p1672
aVsensitize
p1673
aVsensitise
p1674
aVvibrate
p1675
aVgesticulate
p1676
aVgesture
p1677
aVmotion
p1678
aVintegrate
p1679
aVtie
p1680
ag769
ag770
ag806
ag808
ag809
ag810
ag812
ag832
ag833
ag834
aVbetoken
p1681
aVsignal
p1682
aVannounce
p1683
aVpalm
p1684
aVprice
p1685
aVtire
p1686
aVweary
p1687
aVjade
p1688
aVoutwear
p1689
aVfag
p1690
aVfatigue
p1691
aVdeplete
p1692
aVempty
p1693
aVmould
p1694
aVforge
p1695
aVglare
p1696
aVagitate
p1697
aVcommove
p1698
aVlose
p1699
aVstipulate
p1700
aVqualify
p1701
aVcondition
p1702
aVwage
p1703
ag309
ag310
ag735
aVfront
p1704
aVline
p1705
aVhouse
p1706
aVdomiciliate
p1707
aVcomply
p1708
aVbesiege
p1709
aVbeleaguer
p1710
aVsurround
p1711
aVdisadvantage
p1712
aVdisfavor
p1713
aVdisfavour
p1714
aVtheorize
p1715
aVtheorise
p1716
aVconjecture
p1717
aVhypothesize
p1718
aVhypothesise
p1719
aVhypothecate
p1720
aVgenerate
p1721
aVsuperimpose
p1722
aVsuperpose
p1723
aVexpand
p1724
aVabandon
p1725
aVentrust
p1726
aVintrust
p1727
aVconfide
p1728
aVrush
p1729
aVhotfoot
p1730
aVhasten
p1731
aVhie
p1732
aVspeed
p1733
aVaccuse
p1734
aVimpeach
p1735
aVincriminate
p1736
aVcriminate
p1737
aVdebit
p1738
aVpaint
p1739
aVimpregnate
p1740
aVsaturate
p1741
aVboat
p1742
aVtorment
p1743
aVcrucify
p1744
aVdun
p1745
aVfrustrate
p1746
aVmock
p1747
aVbemock
p1748
aVshred
p1749
aVdisentangle
p1750
aVunsnarl
p1751
aVridicule
p1752
aVroast
p1753
aVguy
p1754
aVblackguard
p1755
aVrib
p1756
aVcomb
p1757
aVharass
p1758
aVhassle
p1759
aVharry
p1760
aVchivy
p1761
aVchivvy
p1762
aVchevy
p1763
aVchevvy
p1764
aVbeset
p1765
aVplague
p1766
aVmolest
p1767
aVdisplease
p1768
aVfragment
p1769
aVfragmentize
p1770
aVfragmentise
p1771
aVgarner
p1772
aVrecover
p1773
aVrecuperate
p1774
aVfloat
p1775
aVmesh
p1776
aVlock
p1777
aVcircumscribe
p1778
aVplight
p1779
aVbend
p1780
aVflex
p1781
aVrede
p1782
aVcounsel
p1783
aVenviron
p1784
aVring
p1785
aVborder
p1786
ag678
ag679
ag680
ag681
ag686
ag687
ag688
aVblackball
p1787
aVnegative
p1788
aVoverwhelm
p1789
aVoverpower
p1790
aVwhelm
p1791
aVovertake
p1792
aVimbibe
p1793
aVfalsify
p1794
aVgarble
p1795
aVwarp
p1796
aVship
p1797
aVvalidate
p1798
aVformalize
p1799
aVformalise
p1800
aVundertake
p1801
ag125
ag126
aVneglect
p1802
aVdiffer
p1803
aVdiversify
p1804
ag715
ag716
ag717
ag718
ag719
ag725
ag727
ag728
ag729
aVelapse
p1805
aVlapse
p1806
aVinflect
p1807
aVdeviate
p1808
aVdiverge
p1809
aVdepart
p1810
aVtrace
p1811
aVsteal
p1812
aVenroll
p1813
aVinscribe
p1814
aVenrol
p1815
aVrecruit
p1816
aVcampaign
p1817
aVwedge
p1818
aVsqueeze
p1819
aVcomplain
p1820
aVkick
p1821
aVplain
p1822
aVquetch
p1823
aVkvetch
p1824
aVdisagree
p1825
aVflow
p1826
aVfeed
p1827
aVcourse
p1828
aVglow
p1829
aVrinse
p1830
aVdrench
p1831
aVdouse
p1832
aVdowse
p1833
aVsop
p1834
aVsouse
p1835
aVwater
p1836
aVirrigate
p1837
aVregularize
p1838
aVregularise
p1839
aVinsert
p1840
aVinfix
p1841
aVstroke
p1842
aVdissever
p1843
aVexempt
p1844
aVrelieve
p1845
aVcontrast
p1846
aVcounterpoint
p1847
aVrefute
p1848
aVrebut
p1849
aVwane
p1850
aVhang
p1851
aVcan
p1852
aVdismiss
p1853
aVsack
p1854
aVpour
p1855
aVdrug
p1856
aVelide
p1857
aVthwart
p1858
aVqueer
p1859
aVspoil
p1860
aVscotch
p1861
aVfoil
p1862
aVbaffle
p1863
aVbilk
p1864
aVwaste
p1865
aVdevastate
p1866
aVdesolate
p1867
aVravage
p1868
aVscourge
p1869
aVindispose
p1870
aVnotch
p1871
aVvaluate
p1872
aVassess
p1873
aVappraise
p1874
aVdeck
p1875
aVoverstate
p1876
aVexaggerate
p1877
aVoverdraw
p1878
aVhyperbolize
p1879
aVhyperbolise
p1880
aVmagnify
p1881
aVamplify
p1882
aVabsolve
p1883
aVvindicate
p1884
aVhook
p1885
aVrow
p1886
aVrein
p1887
aVtear
p1888
aVrupture
p1889
aVsnap
p1890
aVbust
p1891
aVside
p1892
aVhanker
p1893
aVlong
p1894
aVyearn
p1895
aVstrive
p1896
aVstrain
p1897
aVirrupt
p1898
aVflurry
p1899
aVaggravate
p1900
aVexacerbate
p1901
aVexasperate
p1902
aVbite
p1903
aVsting
p1904
aVburn
p1905
aVperturb
p1906
aVunhinge
p1907
aVdisquiet
p1908
aVcark
p1909
aVdistract
p1910
aVdisorder
p1911
aVabrade
p1912
aVcorrade
p1913
aVabrase
p1914
aVwarm
p1915
aVecho
p1916
aVmistake
p1917
aVmisidentify
p1918
aVabash
p1919
aVpiece
p1920
aVtack
p1921
aVdislodge
p1922
aVconjoin
p1923
aVcharacterize
p1924
aVcharacterise
p1925
aVevolve
p1926
aVdissimilate
p1927
aVresult
p1928
aVensue
p1929
aVtow
p1930
aVurge
p1931
aVpress
p1932
aVexhort
p1933
aVpraise
p1934
aVnear
p1935
aVadvertise
p1936
aVadvertize
p1937
aVthrust
p1938
aVcoerce
p1939
aVhale
p1940
aVpressure
p1941
aVexcavate
p1942
aVhollow
p1943
aVpower
p1944
aVhunt
p1945
aVsew
p1946
aVstitch
p1947
aVunwind
p1948
aVcalm
p1949
aVquiet
p1950
aVtranquilize
p1951
aVtranquillize
p1952
aVtranquillise
p1953
aVquieten
p1954
aVlull
p1955
aVstill
p1956
aVtackle
p1957
aVexude
p1958
aVexudate
p1959
aVtransude
p1960
aVooze
p1961
ag47
ag48
ag20
ag21
ag22
ag843
ag402
ag403
ag404
ag405
ag406
ag407
ag408
ag844
ag409
ag410
ag411
ag845
ag336
ag49
ag50
ag51
ag52
ag53
ag54
ag55
ag56
ag57
ag58
ag59
ag7
ag8
ag9
ag60
ag61
ag62
ag65
ag66
ag67
ag68
ag69
ag70
ag71
ag72
ag73
ag25
ag26
ag1312
aVstimulate
p1962
aVcause
p1963
aVhave
p1964
aVget
p1965
aVmake
p1966
aVshape
p1967
ag1334
aVinfluence
p1968
ag1335
ag396
ag397
ag398
ag399
ag947
ag400
aVconclude
p1969
ag27
ag29
ag30
ag1411
aVfall
p1970
ag1432
ag1433
ag351
ag352
aVdevelop
p1971
ag1036
ag1037
ag1011
ag223
ag224
aVsink
p1972
aVcontend
p1973
aVfight
p1974
ag1216
aVcome
p1975
ag732
ag733
aVwork
p1976
ag1434
aVrecognize
p1977
aVrecognise
p1978
aVdistinguish
p1979
ag1435
ag487
ag599
ag600
ag601
aVcall
p1980
ag602
ag603
aVintend
p1981
ag970
aVdesignate
p1982
ag971
ag120
ag121
ag122
ag123
ag1436
ag502
ag503
ag504
aVguess
p1983
ag5
ag1437
aVcomprehend
p1984
ag1438
ag1439
ag1440
ag1441
ag1442
ag181
ag182
ag183
ag240
ag241
ag242
ag243
ag244
ag245
ag1443
ag1444
aVpass
p1985
ag1445
aVplay
p1986
ag1446
ag1447
ag1448
ag227
ag228
ag83
ag84
ag229
ag230
ag231
ag232
ag233
ag234
ag38
ag237
ag238
ag239
ag247
ag248
ag249
ag250
ag251
ag252
ag253
ag254
ag255
ag256
ag257
ag258
ag259
ag260
ag261
ag262
ag263
ag264
ag265
ag266
ag267
ag268
ag269
ag270
ag271
ag272
ag273
ag274
ag275
ag276
ag277
ag278
ag279
ag280
ag282
ag283
ag284
ag285
ag286
ag287
ag288
aVdo
p1987
ag707
ag708
ag1336
ag1337
ag1338
ag1339
aVclaim
p1988
ag1355
ag1356
ag1357
ag3
ag87
ag89
ag91
ag92
ag93
ag94
ag95
ag96
ag97
ag98
ag99
ag100
ag101
ag102
ag103
ag104
ag105
ag106
ag86
ag107
ag108
ag109
ag312
ag74
ag75
ag76
ag77
ag78
ag79
ag80
ag81
ag846
ag413
ag414
ag415
ag416
ag417
ag111
ag112
ag113
ag114
ag115
ag116
ag117
ag118
ag119
ag135
ag136
ag192
ag193
ag194
ag195
ag196
ag197
aVbring
p1989
ag1449
ag662
ag882
ag883
aVsave
p1990
aVexpel
p1991
aVcommunicate
p1992
aVemit
p1993
aVgift
p1994
aVpresent
p1995
ag1205
ag755
ag353
ag322
ag323
ag324
ag325
ag329
ag330
ag317
aVgain
p1996
ag1450
aVrealize
p1997
aVrealise
p1998
ag590
aVsuffer
p1999
ag753
ag164
ag754
ag1063
ag356
aVknow
p2000
ag357
ag358
ag359
ag360
ag361
ag362
ag363
ag364
ag184
ag209
ag606
ag695
aVwin
p2001
ag898
ag696
ag141
ag142
ag143
ag318
ag1291
ag698
ag699
ag700
ag982
ag983
ag984
ag985
ag1295
ag1296
ag800
ag801
ag802
ag803
ag804
ag805
ag954
ag955
ag956
ag957
ag1451
ag712
ag713
aVarrogate
p2002
aVrepresent
p2003
aVtry
p2004
aVseek
p2005
ag1452
aVessay
p2006
ag1453
ag289
ag290
ag291
ag670
aVappear
p2007
ag137
ag139
ag1199
ag1200
aVadvance
p2008
ag1201
ag448
ag1202
ag702
ag703
ag1203
ag1204
ag85
ag1206
ag1207
ag840
ag841
ag419
ag420
ag421
ag505
ag506
ag507
ag442
ag509
ag510
ag511
ag512
ag513
ag515
ag516
ag517
ag518
ag519
ag520
ag521
ag522
ag525
ag526
ag527
ag528
ag529
ag530
ag531
ag532
ag446
ag447
ag449
ag450
ag451
ag452
ag453
ag454
ag455
ag456
aVfix
p2009
ag321
aVdecrease
p2010
aVlessen
p2011
ag434
aVrestrict
p2012
ag1454
aVcurb
p2013
aVshorten
p2014
aVreduce
p2015
ag1455
aVcut
p2016
ag431
ag422
ag423
ag424
ag427
ag1283
aVdivide
p2017
aVpart
p2018
aVfree
p2019
ag1456
aVwrite
p2020
ag1457
ag627
ag628
aVdeal
p2021
ag629
ag14
ag1458
ag1279
aVshift
p2022
aVrecord
p2023
ag1459
ag128
ag975
aVrun
p2024
ag1460
ag1461
ag1462
ag1463
ag1464
ag1465
ag1466
ag1467
aVdrop
p2025
ag730
ag731
ag1468
aVhandle
p2026
ag1469
aVeliminate
p2027
ag1470
ag298
ag299
ag1290
ag1471
ag1472
ag1473
ag1474
aVassure
p2028
ag1400
aVengage
p2029
aVemploy
p2030
aVtighten
p2031
ag369
ag1475
ag1476
ag1477
ag1478
ag1479
aVbreak
p2032
aVsubstitute
p2033
aVinterchange
p2034
aVexchange
p2035
ag1480
ag1481
ag1482
ag1278
ag1141
ag1142
ag1143
aVconfine
p2036
ag1144
ag1483
aVsuppress
p2037
aVcrush
p2038
ag1484
ag1485
ag1486
ag1487
ag1488
aVmeet
p2039
aVgather
p2040
aVassemble
p2041
ag1398
ag1399
aVunify
p2042
aVunite
p2043
ag1489
ag1490
ag1491
ag1492
ag1493
ag1494
aVexit
p2044
ag1495
ag1496
aVchoke
p2045
ag1497
aVyield
p2046
ag1498
ag1499
aVtrespass
p2047
aVquit
p2048
aVresign
p2049
ag1500
ag1501
ag1502
ag1503
ag1504
aVissue
p2050
aVemerge
p2051
ag1505
aVbegin
p2052
aVstart
p2053
aVcommence
p2054
ag1506
ag1507
ag1508
ag1509
aVadjust
p2055
ag441
ag1510
aVstand
p2056
aVadapt
p2057
ag632
aVestablish
p2058
ag1410
aVcompose
p2059
aVoriginate
p2060
aVinitiate
p2061
ag1412
ag1413
ag1414
ag1416
ag1417
ag1418
aVattack
p2062
ag1419
ag1420
aVprepare
p2063
aVready
p2064
aVreproduce
p2065
ag1172
ag1173
ag690
ag691
ag1025
ag1511
aVrag
p2066
aVtrounce
p2067
ag1512
ag1513
ag1514
ag1515
ag1516
ag1517
ag1518
aVremonstrate
p2068
ag1519
ag1520
ag1521
ag1522
ag1523
ag1524
ag675
ag676
ag677
aVmean
p2069
ag1122
ag1123
ag1124
ag1126
ag1127
ag1128
ag1129
ag1078
ag1079
aVrecite
p2070
ag147
ag148
ag150
ag152
ag153
ag156
ag157
ag158
ag159
ag1525
ag1526
ag1527
ag222
ag798
ag1390
ag1391
ag1392
ag1393
ag1394
ag915
ag916
ag917
ag918
aVobtain
p2071
aVguarantee
p2072
ag1395
aVclose
p2073
ag1396
ag1397
ag1528
ag494
ag495
ag1529
ag1530
ag1531
ag1532
ag1533
ag1534
ag1535
ag1536
ag1537
ag1538
ag376
ag665
ag1539
aVsecure
p2074
ag370
ag371
ag373
ag326
ag327
ag429
ag435
ag436
ag437
ag439
ag383
ag443
ag444
ag853
ag64
ag474
ag475
ag855
ag478
ag479
ag480
ag481
ag482
ag483
ag484
ag485
ag486
ag311
ag488
ag489
ag457
ag458
ag459
ag460
ag461
ag463
ag464
ag465
ag466
ag468
ag469
ag470
ag471
ag472
ag492
ag493
ag132
ag496
ag497
ag498
ag499
ag500
ag501
aVfinish
p2075
ag1540
ag1541
ag1542
ag1060
ag757
ag758
ag759
ag760
ag761
ag762
aVapply
p2076
ag1543
ag575
ag1042
ag1045
ag1544
ag1545
aVfollow
p2077
ag1276
ag1277
ag542
ag543
aVleave
p2078
ag33
ag704
ag1363
ag1364
ag705
aVsearch
p2079
ag1546
ag1547
ag1346
ag1347
ag1348
ag1349
ag1548
ag1549
ag1550
ag1551
ag1552
ag836
ag657
ag658
ag659
ag660
aVinterpret
p2080
ag328
ag331
ag332
ag339
ag341
ag342
ag343
ag344
ag345
ag346
ag347
ag349
ag354
ag355
ag365
ag366
ag367
ag736
ag669
ag738
ag739
ag740
ag741
ag742
aVadminister
p2081
ag743
ag744
ag745
ag746
ag198
ag644
aVtag
p2082
aVlabel
p2083
aVmark
p2084
aVrepair
p2085
ag1401
ag1402
ag1403
ag1404
ag813
aVcharge
p2086
ag972
ag533
ag534
ag535
ag536
ag862
ag720
ag864
ag867
ag868
ag1570
aVprove
p2087
ag1157
ag722
ag723
ag1293
ag1294
aVspend
p2088
ag1241
ag1571
ag1572
ag1573
aVsubject
p2089
ag1208
ag1209
ag1574
aVpursue
p2090
ag1421
aVpost
p2091
aVorder
p2092
ag1422
ag795
ag796
ag1308
ag1565
ag1566
ag1567
ag1568
ag1619
ag541
ag1620
aVpreserve
p2093
aVprovide
p2094
aVsupply
p2095
ag891
ag892
ag1068
ag1069
ag1215
ag977
ag978
ag545
ag206
ag210
ag211
ag212
ag213
ag214
ag215
ag217
ag218
ag219
ag939
ag940
ag941
ag942
ag943
ag944
ag945
ag946
ag620
ag125
ag126
ag1644
ag1813
ag1814
ag1815
ag1816
ag1817
ag990
ag1345
aVresult
p2096
ag1358
ag1320
ag1321
ag1322
ag1323
ag554
aVinstruct
p2097
ag1047
ag1048
aVorient
p2098
aVorientate
p2099
aVspeed
p2100
aVhurry
p2101
aVzip
p2102
ag1553
ag686
ag687
aVcirculate
p2103
ag1314
ag1315
ag1316
aVpropagate
p2104
ag1317
aVspread
p2105
ag1318
aVdisperse
p2106
ag671
ag673
aVfulfill
p2107
aVfulfil
p2108
aVmerchandise
p2109
ag1561
aVliberate
p2110
aVunloose
p2111
aVunloosen
p2112
aVloose
p2113
ag1558
ag873
ag988
ag989
ag749
ag750
ag797
ag1064
ag1067
ag709
ag710
ag711
ag1916
aVidentify
p2114
ag537
ag875
ag876
ag1070
ag967
ag968
ag969
ag188
ag724
ag1298
ag814
aVpull
p2115
ag817
ag818
ag819
ag820
ag822
ag823
ag824
ag826
ag827
ag1700
ag1701
ag1702
ag1703
ag1309
ag309
ag310
ag1625
ag625
ag626
ag879
ag1628
ag1629
ag1630
aVexpose
p2116
ag1423
ag1424
ag842
ag806
ag808
ag809
ag810
ag811
ag812
ag885
ag894
ag895
ag897
ag899
ag900
ag902
ag903
ag904
ag906
ag907
ag909
ag911
ag912
ag913
ag1597
ag1598
ag1599
ag1600
ag1958
ag1959
ag1960
ag1961
ag1721
aVabandon
p2117
aVdepart
p2118
ag999
ag1137
ag613
ag1328
ag1329
ag1330
ag1331
ag1332
ag1333
ag1844
ag1845
aVscatter
p2119
aVsplit
p2120
ag1843
ag1032
aVwield
p2121
ag1592
aVascertain
p2122
ag1593
aVmeasure
p2123
ag1594
ag1595
ag1596
ag674
ag678
ag679
ag680
ag681
ag682
ag684
ag685
ag688
ag1134
ag1158
aVrectify
p2124
aVright
p2125
aVarouse
p2126
aVbrace
p2127
aVenergize
p2128
aVenergise
p2129
aVunderwrite
p2130
aVtense
p2131
aVstrain
p2132
aVlengthen
p2133
ag1010
aVwiden
p2134
aVbroaden
p2135
aVextend
p2136
aVcorrupt
p2137
aVspoil
p2138
aVheat
p2139
ag1182
ag1183
ag1184
aVsteep
p2140
ag1185
ag1186
ag1187
ag1188
aVdonate
p2141
ag639
aVbind
p2142
ag203
ag1934
aVsmell
p2143
ag576
ag577
ag1133
ag721
ag1150
ag1151
ag922
ag1310
ag1311
ag546
ag547
ag548
aVstay
p2144
ag549
ag550
aVbill
p2145
ag948
aVmarket
p2146
aVworship
p2147
aVthreaten
p2148
aVopen
p2149
ag920
ag161
ag162
ag165
ag166
ag167
ag169
ag170
ag1840
ag1841
aVintroduce
p2150
aVstock
p2151
ag39
ag40
ag41
ag45
ag46
aVinnovate
p2152
aVexplore
p2153
ag973
ag974
ag571
ag572
ag573
ag979
ag993
ag994
ag996
ag579
ag580
ag581
ag582
ag583
ag584
ag585
ag1001
ag1002
ag1005
ag1006
ag1008
ag1013
ag1014
ag1015
ag1016
ag1018
ag1019
ag1020
ag1021
ag1022
ag1023
ag1024
ag379
ag380
aVblock
p2154
ag382
ag388
ag391
ag392
ag393
ag394
ag395
ag401
aVuncover
p2155
aVunveil
p2156
aVreveal
p2157
ag923
ag924
ag928
ag19
ag1752
ag1753
ag1754
ag1755
ag1756
aVforsake
p2158
aVdesolate
p2159
aVdesert
p2160
aVdestroy
p2161
ag752
ag1243
aVescape
p2162
ag1245
ag1248
ag1249
ag1250
ag1251
aVreclaim
p2163
ag1252
ag1253
ag1254
ag1255
ag1256
ag1257
ag1258
ag1259
ag1262
ag1263
ag1264
ag1265
ag1266
ag1267
aVdiscontinue
p2164
ag1270
ag1271
ag1272
ag1273
ag1274
ag1275
ag1280
ag1282
ag1284
ag1285
ag1286
ag1287
ag1288
ag1289
aVaccustom
p2165
ag1683
ag1667
ag1668
ag1826
ag1827
ag1828
aVdissemble
p2166
aVdisguise
p2167
aVmask
p2168
ag930
ag933
ag935
ag936
aVjustify
p2169
ag1884
ag1715
ag1716
ag1717
ag1718
ag1719
ag1720
aVsuppose
p2170
ag1373
aVrecur
p2171
aVdeceive
p2172
ag1425
ag788
ag790
ag791
ag792
ag793
ag794
ag1426
ag1427
ag1429
ag618
ag619
ag1680
ag1152
ag1153
ag1923
ag202
ag190
ag191
ag829
ag830
ag953
ag314
ag315
ag958
ag959
ag960
ag961
ag962
ag963
ag964
ag1576
ag1577
aVbequeath
p2173
aVwill
p2174
aVmention
p2175
ag1618
ag1135
ag1872
ag1873
ag1874
aVrevalue
p2176
ag748
ag1801
aVelaborate
p2177
aVlucubrate
p2178
aVexpatiate
p2179
aVenlarge
p2180
aVexpand
p2181
aVdilate
p2182
ag1848
ag1849
ag1342
aVexcite
p2183
aVstir
p2184
ag612
aVrear
p2185
aVparent
p2186
ag1692
ag1655
ag1656
aVbeat
p2187
ag1370
ag1372
ag771
ag772
ag773
ag774
ag776
ag777
ag778
ag779
ag780
ag781
ag782
ag783
ag785
ag786
aVaffix
p2188
aVlist
p2189
aVclarify
p2190
aVelucidate
p2191
ag1681
ag1682
ag1924
ag1925
aVdeface
p2192
aVdisfigure
p2193
aVblemish
p2194
ag1871
ag1926
ag832
ag833
ag834
ag835
aVdisown
p2195
aVrenounce
p2196
aVrepudiate
p2197
aVisolate
p2198
aVinsulate
p2199
aVfold
p2200
aVretire
p2201
aVtire
p2202
aVpall
p2203
aVweary
p2204
aVfatigue
p2205
aVjade
p2206
ag587
ag1659
ag1660
aVignite
p2207
ag1661
ag1662
ag1663
ag1664
aVcollect
p2208
ag1605
ag1606
ag1614
ag1615
aVbid
p2209
ag1665
ag1666
ag1669
ag1670
ag1671
ag1672
ag1136
aVsmoke
p2210
aVbreathe
p2211
aVrespire
p2212
aVsuspire
p2213
aVoccasion
p2214
aVindoctrinate
p2215
ag1811
aVline
p2216
ag1949
ag1950
ag1951
ag1952
ag1953
ag1954
ag1955
ag1956
ag1935
aVbarricade
p2217
aVblockade
p2218
aVbar
p2219
ag1350
ag1352
aVrefine
p2220
ag1353
aVveto
p2221
ag1787
ag1788
ag1789
ag1790
ag1791
aVovercome
p2222
ag1792
ag1793
ag617
ag221
ag1886
ag1887
ag1888
ag1889
ag1890
ag1891
ag1892
ag1938
ag630
ag631
ag1616
aVtwine
p2223
ag1617
aVsoak
p2224
aVimbue
p2225
aVdrill
p2226
aVinject
p2227
aVdisapprove
p2228
aVreject
p2229
aVrap
p2230
aVknap
p2231
aVcomment
p2232
aVremark
p2233
aVrule
p2234
aVdecree
p2235
aVreorder
p2236
aVtype
p2237
aVtypewrite
p2238
ag1027
ag1028
ag1030
ag1805
ag1806
ag1554
ag1555
ag1556
ag1557
ag1559
ag1560
aVdefend
p2239
ag1563
ag1564
ag1382
ag1383
ag1569
aVlean
p2240
ag578
ag735
aVencounter
p2241
ag1704
ag1038
ag634
ag635
ag636
ag637
ag641
ag643
ag645
ag646
ag648
ag649
ag650
ag651
ag652
ag653
ag654
ag655
ag226
ag1706
ag1707
ag1708
ag1051
ag1087
ag1089
ag1145
ag1049
ag1050
ag1054
ag1055
ag1056
ag1057
ag1059
ag294
ag295
ag296
ag297
ag301
ag303
ag304
ag305
ag306
ag1154
ag1155
ag1709
ag1710
ag1711
aVcircumvent
p2242
ag1228
ag1229
ag1230
ag1231
ag1232
ag1233
ag1234
ag1235
ag1236
ag1238
ag1239
ag1240
ag1712
ag1713
ag1714
ag1631
ag1632
ag1633
ag1634
ag1635
ag1722
ag1723
ag1726
ag1727
ag1728
ag1729
ag1730
ag1731
ag1732
ag1734
ag1735
ag1736
ag1737
ag1738
ag1651
ag1652
ag1739
ag1740
ag1741
ag1217
ag1218
ag1219
aVjourney
p2243
ag1742
ag1743
ag1744
ag1745
ag1746
ag1747
ag1748
ag1749
ag1750
ag1751
ag1757
ag1758
ag1759
ag1760
ag1761
ag1762
ag1763
ag1764
ag1765
ag1766
ag1767
ag1768
ag1769
ag1770
ag1771
ag560
ag561
ag562
ag1772
ag1773
ag1774
ag1775
ag1776
ag1777
ag663
ag664
ag1778
ag1876
ag1877
ag1878
ag1879
ag1880
ag1881
ag1882
ag1636
ag1637
ag1638
ag1639
ag1640
ag1642
ag1643
ag1192
ag1193
ag1195
ag1196
ag1197
ag1198
ag569
ag570
ag133
ag134
ag574
ag556
ag552
ag558
ag559
ag563
ag564
ag565
ag566
ag594
ag595
ag596
ag604
ag607
ag608
ag611
ag661
ag666
ag667
ag668
ag1608
ag1610
ag1611
ag1612
ag1613
aVrepress
p2244
aVforget
p2245
aVschedule
p2246
aVdecelerate
p2247
ag1389
aVcheat
p2248
aVchisel
p2249
ag1870
ag1365
ag1366
ag1367
ag1071
ag1072
ag1073
ag1075
ag1077
ag1083
ag1085
ag1086
ag1091
ag1093
ag1094
ag1096
ag1097
ag1098
ag1099
ag1102
ag1109
ag1110
ag1111
ag1112
ag1113
ag1114
ag1115
ag1119
ag1120
ag1121
ag1130
ag1138
ag1159
ag1160
ag1162
ag1163
ag1165
ag1166
ag1167
ag1168
ag1169
ag1170
ag1174
ag1175
ag1176
ag1177
ag1178
ag1179
ag1180
ag1181
ag1189
ag1191
ag1621
ag1622
ag692
ag1623
ag1624
ag1626
ag1627
aVimplore
p2250
aVpray
p2251
ag1319
ag1324
ag1325
ag1327
aVwipe
p2252
aVclean
p2253
ag1779
aVwoo
p2254
aVcourt
p2255
aVromance
p2256
aVlag
p2257
aVdawdle
p2258
aVtop
p2259
aVpinch
p2260
aVrhyme
p2261
aVrime
p2262
aVtan
p2263
ag1579
ag1580
ag1581
ag1582
ag1584
ag1585
ag1586
ag1587
ag1588
ag1589
ag1590
ag1591
ag1885
ag1220
aVencumber
p2264
aVcumber
p2265
aVconstrain
p2266
aVexplode
p2267
aVburst
p2268
aVail
p2269
aVburn
p2270
aVrage
p2271
aVanger
p2272
ag1893
ag1894
ag1895
aVvictimize
p2273
aVvictimise
p2274
ag1306
ag1307
aVcarve
p2275
ag1648
aVsedate
p2276
aVgratify
p2277
aVperplex
p2278
aVstick
p2279
aVpuzzle
p2280
aVmystify
p2281
aVbaffle
p2282
aVbewilder
p2283
aVflummox
p2284
aVstupefy
p2285
aVnonplus
p2286
aVamaze
p2287
aVdumbfound
p2288
ag1936
ag1937
ag1846
ag1847
aVdisprove
p2289
aVconfute
p2290
ag1808
ag1809
ag1825
aVdiffer
p2291
aVrefuse
p2292
aVitemize
p2293
aVitemise
p2294
ag715
ag716
ag717
ag718
ag719
ag725
ag727
ag728
ag729
ag763
ag764
ag765
ag767
ag768
ag1852
ag1853
ag1854
aVdiscard
p2295
aVfling
p2296
aVtoss
p2297
aVdispose
p2298
aVtoy
p2299
aVfiddle
p2300
aVdiddle
p2301
aVrequite
p2302
aVrepay
p2303
ag1645
ag1646
aVconcede
p2304
aVjump
p2305
aVleap
p2306
aVspring
p2307
aVadhere
p2308
aVbond
p2309
aVenrich
p2310
ag1782
ag1783
ag1684
ag1685
aVbrood
p2311
aVhover
p2312
aVloom
p2313
ag1211
ag1212
ag1221
ag1223
ag1224
ag1225
ag1226
ag1227
aVoffset
p2314
aVcrash
p2315
ag1784
ag1785
ag1786
aVdart
p2316
aVdash
p2317
aVscoot
p2318
aVscud
p2319
aVflash
p2320
aVpoison
p2321
aVwet
p2322
aVelate
p2323
aVuplift
p2324
ag1360
ag1362
ag1378
ag1379
ag1380
ag1381
ag1384
ag1385
ag1386
aVperfect
p2325
aVpurify
p2326
aVdistill
p2327
aVattenuate
p2328
aVtune
p2329
aVscuffle
p2330
aVshamble
p2331
ag1694
ag1695
ag1922
ag1689
ag1690
ag1693
aVrecycle
p2332
aVreprocess
p2333
aVreuse
p2334
aVendeavor
p2335
aVendeavour
p2336
aVstrive
p2337
aVfinance
p2338
aVplot
p2339
ag1931
ag1932
ag1933
aVcram
p2340
aVdrug
p2341
aVdose
p2342
aVimprint
p2343
aVsquash
p2344
aVsquelch
p2345
aVmash
p2346
aVsqueeze
p2347
aVcompress
p2348
aVconstrict
p2349
aVcompact
p2350
ag1802
aVstifle
p2351
aVdampen
p2352
aVdirty
p2353
aVsoil
p2354
aVbegrime
p2355
aVgrime
p2356
aVcolly
p2357
aVbemire
p2358
aVdishonor
p2359
aVdishonour
p2360
aVattaint
p2361
aVshame
p2362
aVdeny
p2363
ag1858
ag1859
ag1861
ag1862
ag1864
ag1865
ag1866
ag1868
ag1869
aVsquander
p2364
aVware
p2365
aVsow
p2366
aVseed
p2367
aVoffend
p2368
aVinfract
p2369
aVviolate
p2370
aVbreach
p2371
aVscat
p2372
aVscarper
p2373
aVlam
p2374
aVbunk
p2375
aVstumble
p2376
aVdamp
p2377
aVsoften
p2378
aVincise
p2379
aVdesensitize
p2380
aVdesensitise
p2381
ag1804
aVnegate
p2382
aVabstain
p2383
aVdesist
p2384
aVflog
p2385
aVwelt
p2386
aVwhip
p2387
aVlather
p2388
aVlash
p2389
aVslash
p2390
aVstrap
p2391
aVreassign
p2392
aVcast
p2393
aVcontrive
p2394
aVsmart
p2395
aVweave
p2396
aVinterweave
p2397
aVmensurate
p2398
aVdisconnect
p2399
ag1842
ag1303
ag1304
aVaccede
p2400
ag1906
ag1907
ag1908
ag1909
ag1910
ag1911
ag1850
aVlose
p2401
ag1851
ag1855
ag1857
ag1927
ag1946
ag1947
ag1948
ag1929
ag1601
ag1602
ag1603
ag1604
ag1898
aVagitate
p2402
aVcommove
p2403
ag1899
ag1900
ag1901
ag1902
ag1903
ag1904
ag1912
ag1913
ag1914
ag1915
ag1673
ag1674
ag1917
ag1918
ag1919
ag1920
ag1921
ag1649
ag1650
ag1653
ag1654
ag694
ag1657
ag1658
ag1675
ag1676
ag1677
ag1678
ag1679
ag769
ag770
ag1696
aVpoll
p2404
aVanimate
p2405
aVinvigorate
p2406
aVenliven
p2407
aVexalt
p2408
aVimitate
p2409
aVcopy
p2410
aVpractice
p2411
aVpersevere
p2412
aVpersist
p2413
aVinaugurate
p2414
aVcling
p2415
aVcleave
p2416
aVcohere
p2417
ag1818
aVrescue
p2418
aVpresume
p2419
ag1292
ag1957
ag1807
aVcircle
p2420
aValternate
p2421
aVhumiliate
p2422
aVmortify
p2423
aVchagrin
p2424
aVhumble
p2425
aVabase
p2426
aVbombard
p2427
aVbomb
p2428
aVprotract
p2429
aVincorporate
p2430
aVspurn
p2431
aVscorn
p2432
aVpooh-pooh
p2433
aVdisdain
p2434
aVrebel
p2435
aVrevise
p2436
aVload
p2437
aVadulterate
p2438
aVdilute
p2439
aVdebase
p2440
aVrefund
p2441
ag1780
ag1781
aVjoust
p2442
aVbias
p2443
aVpredetermine
p2444
aVfish
p2445
aVdeposit
p2446
aVimplant
p2447
aVengraft
p2448
aVembed
p2449
aVimbed
p2450
aVpossess
p2451
aVdisappoint
p2452
ag1406
ag1408
ag1409
ag1430
ag1431
aVhollow
p2453
aVexcavate
p2454
aVunearth
p2455
aVoverhaul
p2456
aVrid
p2457
aVdisembarrass
p2458
aVprofit
p2459
aVbenefit
p2460
aVentitle
p2461
aVtitle
p2462
aVroll
p2463
aVfluster
p2464
aVdisarrange
p2465
aVperuse
p2466
ag1575
aVliquefy
p2467
aVliquify
p2468
aVdisparage
p2469
aVbelittle
p2470
aVabort
p2471
aVyen
p2472
aVpine
p2473
aVlanguish
p2474
ag1820
ag1821
ag1822
ag1823
ag1824
aVoverspread
p2475
aVreciprocate
p2476
aVreply
p2477
aVreappear
p2478
aVre-emerge
p2479
aVelect
p2480
aVlisten
p2481
aVlower
p2482
aVerect
p2483
aVmingle
p2484
aVcommix
p2485
aVamalgamate
p2486
aVgrate
p2487
aVgrind
p2488
aVintermix
p2489
aVimmingle
p2490
aVintermingle
p2491
aVcontribute
p2492
ag1578
ag1875
aVrejuvenate
p2493
aVoutlaw
p2494
aVcriminalize
p2495
aVcriminalise
p2496
aVillegalize
p2497
aVillegalise
p2498
aVsmooth
p2499
aVsmoothen
p2500
aVmilk
p2501
aVredirect
p2502
aVairt
p2503
aVgasify
p2504
aVvaporize
p2505
aVvaporise
p2506
aVaerify
p2507
aVattend
p2508
aVallege
p2509
aVminimize
p2510
aVminimise
p2511
aVdive
p2512
aVplunk
p2513
aVdunk
p2514
aVdip
p2515
aVsouse
p2516
aVdouse
p2517
aVconsociate
p2518
aVpace
p2519
aVregularize
p2520
aVregularise
p2521
aVgovern
p2522
aVdry
p2523
aVrefresh
p2524
aVfreshen
p2525
aVoversee
p2526
aVsuperintend
p2527
aVbase
p2528
aVground
p2529
ag1883
aVknit
p2530
aVtissue
p2531
ag1812
aVliquidate
p2532
aVheave
p2533
aVbuckle
p2534
aVwarp
p2535
aVscalp
p2536
aVdeteriorate
p2537
aVfrighten
p2538
aVfright
p2539
aVscare
p2540
aVaffright
p2541
aVwarn
p2542
aVoverlap
p2543
aVlighten
p2544
aVland
p2545
aVresound
p2546
aVnoise
p2547
aVblow
p2548
aVsmash
p2549
aVshrivel
p2550
aVwither
p2551
aVboom
p2552
aVthrive
p2553
aVflourish
p2554
aVswing
p2555
aVsway
p2556
aVhesitate
p2557
aVwaver
p2558
aVwaffle
p2559
aVofficiate
p2560
aVfashion
p2561
ag1930
ag1939
ag1940
ag1941
ag1944
ag1945
aVdegenerate
p2562
aVstare
p2563
aVshine
p2564
aVbeam
p2565
aVregress
p2566
aVretrograde
p2567
aVretrogress
p2568
aVshampoo
p2569
aVnock
p2570
aVreinforce
p2571
aVreenforce
p2572
aVshelter
p2573
aVdistress
p2574
aVimportune
p2575
aVdiscriminate
p2576
aVfile
p2577
aVinseminate
p2578
aVfecundate
p2579
aVfertilize
p2580
aVfertilise
p2581
aVcure
p2582
aVdarken
p2583
aVdisengage
p2584
aVsteady
p2585
aVround
p2586
aVsnipe
p2587
aVrevert
p2588
aVretrovert
p2589
aVheal
p2590
aVlaunch
p2591
aVcoordinate
p2592
aVentangle
p2593
aVtangle
p2594
aVmat
p2595
aVsnarl
p2596
aVembrace
p2597
aVhug
p2598
aVbosom
p2599
aVflaunt
p2600
aVostentate
p2601
aVswank
p2602
ag1794
ag1795
ag1797
ag1798
ag1799
ag1800
aVsaddle
p2603
aVburden
p2604
aVassimilate
p2605
ag1829
ag1830
ag1831
ag1833
ag1834
ag1836
ag1837
aVslip
p2606
aVforfeit
p2607
aVwaive
p2608
aVforgo
p2609
aVforego
p2610
aVdivert
p2611
aVovercharge
p2612
aVsurcharge
p2613
aVgazump
p2614
aVfleece
p2615
aVplume
p2616
aVpluck
p2617
aVrob
p2618
aVgrip
p2619
aVclasp
p2620
aVbounce
p2621
aVresile
p2622
aVrebound
p2623
aVrecoil
p2624
aVreverberate
p2625
aVricochet
p2626
aVforeswear
p2627
aVflood
p2628
aVbleed
p2629
aVhemorrhage
p2630
aVregale
p2631
aVradiate
p2632
aVwash
p2633
aVlaunder
p2634
aVlave
p2635
aVquench
p2636
aVfurl
p2637
aVslacken
p2638
aVdivine
p2639
aVbribe
p2640
aVsecrete
p2641
aVappend
p2642
aVflatter
p2643
aVblandish
p2644
aVcomfort
p2645
aVsoothe
p2646
aVconsole
p2647
aVsolace
p2648
aVmitigate
p2649
aVrot
p2650
aVmolder
p2651
aVmoulder
p2652
aVencase
p2653
aVincase
p2654
aVcase
p2655
aVrain
p2656
aVmedicate
p2657
aVmedicine
p2658
aVexclude
p2659
aVexcept
p2660
aVomit
p2661
aVenfeeble
p2662
aVdebilitate
p2663
aVdrain
p2664
aVassoil
p2665
aVexonerate
p2666
aVexculpate
p2667
aVloop
p2668
aVcry
p2669
aVweep
p2670
aVarray
p2671
aVcherish
p2672
aVspite
p2673
aVdisarray
p2674
aVsplice
p2675
aVshlep
p2676
aVschlep
p2677
aVmatter
p2678
aVweigh
p2679
aVflatten
p2680
aVmass
p2681
aVprotrude
p2682
aVjut
p2683
aVyaw
p2684
aVoscillate
p2685
aVsubdue
p2686
aVhush
p2687
aVsilence
p2688
ag47
ag48
ag20
ag21
ag22
ag843
ag402
ag403
ag404
ag405
ag406
ag407
ag408
ag844
ag409
ag410
ag411
ag845
ag336
ag49
ag50
ag51
ag52
ag53
ag54
ag55
ag56
ag57
ag58
ag59
ag7
ag8
ag9
ag60
ag61
ag62
ag65
ag66
ag67
ag68
ag69
ag70
ag71
ag72
ag73
ag25
ag26
ag1312
ag1962
ag1963
ag1964
ag1965
ag1966
ag1967
ag1334
ag1968
ag1335
ag396
ag397
ag398
ag399
ag947
ag400
ag1969
ag27
ag29
ag30
ag1411
ag1970
ag1432
ag1433
ag351
ag352
ag1971
ag1036
ag1037
ag1011
ag223
ag224
ag1972
ag1973
ag1974
ag1216
ag1975
ag732
ag733
ag1976
ag1434
ag1977
ag1978
ag1979
ag1435
ag487
ag599
ag600
ag601
ag1980
ag602
ag603
ag1981
ag970
ag1982
ag971
ag120
ag121
ag122
ag123
ag1436
ag502
ag503
ag504
ag1983
ag5
ag1437
ag1984
ag1438
ag1439
ag1440
ag1441
ag1442
ag181
ag182
ag183
ag240
ag241
ag242
ag243
ag244
ag245
ag1443
ag1444
ag1985
ag1445
ag1986
ag1446
ag1447
ag1448
ag227
ag228
ag83
ag84
ag229
ag230
ag231
ag232
ag233
ag234
ag38
ag237
ag238
ag239
ag247
ag248
ag249
ag250
ag251
ag252
ag253
ag254
ag255
ag256
ag257
ag258
ag259
ag260
ag261
ag262
ag263
ag264
ag265
ag266
ag267
ag268
ag269
ag270
ag271
ag272
ag273
ag274
ag275
ag276
ag277
ag278
ag279
ag280
ag282
ag283
ag284
ag285
ag286
ag287
ag288
ag1987
ag707
ag708
ag1336
ag1337
ag1338
ag1339
ag846
ag412
ag413
ag414
ag415
ag416
ag417
ag135
ag136
ag850
ag419
ag420
ag421
ag289
ag290
ag291
ag85
ag422
ag423
ag424
ag425
ag426
ag427
ag428
ag429
ag430
ag431
ag432
ag434
ag435
ag436
ag437
ag438
ag439
ag440
ag441
ag442
ag383
ag384
ag385
ag443
ag444
ag445
ag853
ag64
ag74
ag76
ag77
ag78
ag79
ag80
ag81
ag446
ag447
ag448
ag137
ag139
ag449
ag450
ag451
ag452
ag453
ag454
ag455
ag456
ag321
ag473
ag474
ag475
ag855
ag477
ag478
ag479
ag480
ag481
ag482
ag483
ag484
ag485
ag486
ag311
ag488
ag489
ag220
ag221
ag222
ag1721
ag684
ag685
aVproduce
p2689
aVaffect
p2690
ag721
ag1000
ag579
ag580
ag581
ag582
ag583
ag584
ag585
ag1673
ag1674
ag1136
ag317
ag86
ag590
ag1999
ag753
ag164
aVreceive
p2691
ag754
ag1063
aVtally
p2692
ag356
ag357
ag358
ag359
ag360
ag361
ag362
ag363
ag364
ag508
aVtransport
p2693
ag509
ag510
ag511
ag771
ag772
ag773
ag369
ag544
ag545
ag207
ag312
ag774
ag775
aVdraw
p2694
ag354
ag355
ag1090
ag776
ag1300
ag777
aVrag
p2695
ag778
ag779
ag780
ag781
ag782
ag783
ag784
ag785
ag786
ag1301
ag787
ag752
ag788
ag789
ag790
ag791
ag792
ag793
ag794
ag186
ag187
ag188
ag724
ag1297
ag1298
aVreach
p2696
ag127
ag128
ag606
ag813
ag2086
ag814
ag815
ag816
ag817
aVneaten
p2697
ag818
ag349
ag819
ag820
ag821
ag822
aVnumber
p2698
ag823
ag13
ag14
ag176
ag824
ag825
ag826
ag827
ag828
aVgrow
p2699
aVform
p2700
ag1694
ag1695
ag2415
ag2416
aVadhere
p2701
aVstick
p2702
ag2417
ag1140
ag1141
ag1142
ag1143
ag2036
ag1144
ag1346
ag1347
ag1348
ag1349
ag888
ag331
ag332
ag333
ag334
ag2088
aVexpend
p2703
ag751
ag2089
ag1208
ag1209
ag2058
ag1410
aVpresent
p2704
ag2059
aVwrite
p2705
ag2060
ag2061
aVstart
p2706
ag1412
ag1413
aVimpress
p2707
ag1414
ag1416
ag1417
ag1418
ag2062
ag1419
aVfit
p2708
ag1420
ag2063
ag2064
ag1172
ag1173
ag690
ag1276
ag1277
aVassign
p2709
ag1421
ag2091
aVsend
p2710
ag2092
ag1422
ag795
ag796
ag868
ag869
ag1308
ag2116
ag1423
ag1424
ag2172
ag1425
ag738
ag739
ag740
ag741
ag1066
ag1426
ag1427
ag1428
ag1429
aVimpose
p2711
ag618
ag619
ag32
ag33
ag206
ag113
ag115
ag116
ag117
ag118
ag226
ag1490
ag1491
ag1492
ag1493
ag1494
ag2044
ag1495
ag1496
ag2045
ag1497
ag2046
ag1498
ag1499
ag2047
ag2048
ag2049
ag1500
ag1501
ag1502
ag1503
ag1504
ag2050
ag2051
ag1505
ag2052
ag2054
ag702
ag703
ag1396
ag1397
ag505
ag506
ag507
ag1042
ag1043
ag1044
ag1045
ag704
ag1363
ag1364
aVconsort
p2712
ag705
ag2079
ag1390
ag1391
ag1392
ag1393
ag1394
ag1715
ag1716
ag1717
ag1718
ag1719
ag1720
ag2170
ag930
ag931
ag932
ag1722
ag1723
ag1352
ag2220
ag1353
ag1354
ag1724
ag294
ag295
ag296
ag297
ag298
ag299
ag300
ag301
ag302
ag303
ag304
ag305
ag306
ag307
ag308
ag920
ag457
ag458
ag459
ag460
ag461
ag462
ag463
ag464
ag465
ag466
aVdecline
p2713
ag1264
aVgive
p2714
ag1265
ag2447
ag2448
ag2449
ag2450
aVplant
p2715
ag747
ag546
ag547
ag748
ag2004
ag2005
ag1452
ag2006
ag1453
ag1936
ag1937
aVpromote
p2716
aVpush
p2717
ag2335
ag2336
ag2337
aVclimb
p2718
ag1360
ag1361
ag1362
aVlead
p2719
aVextend
p2720
ag1928
ag1929
ag806
ag2187
ag1369
ag1370
ag1371
ag1372
ag1842
ag1793
ag695
ag2001
ag1342
aVoperate
p2721
ag144
ag1046
ag146
ag2183
ag612
ag575
ag161
ag162
ag2353
ag2354
ag2355
ag2356
ag2357
ag2358
ag995
ag314
ag315
ag954
ag955
ag956
ag957
ag958
ag959
ag952
ag953
ag960
ag961
ag962
ag963
ag964
ag880
aVqualify
p2722
ag1924
ag1925
ag1681
ag1682
ag551
ag552
aVutter
p2723
ag554
aVmeet
p2724
ag555
ag556
aVask
p2725
aVrequire
p2726
ag558
ag559
ag560
ag561
ag562
ag563
ag564
ag565
ag566
ag972
ag112
aVordain
p2727
ag198
ag1801
ag2178
ag2179
aVexposit
p2728
ag2180
aVexpound
p2729
ag2182
ag322
ag323
ag324
ag325
ag661
ag662
ag663
ag664
ag210
ag870
ag871
ag665
ag666
ag667
ag668
ag669
ag1592
aVfind
p2730
ag2122
ag1593
ag2123
ag1594
ag1595
ag1530
ag1531
aVmix
p2731
ag1532
ag1533
ag1534
ag1535
ag1536
ag1537
ag1538
aVmerge
p2732
ag1596
ag39
ag40
ag41
ag44
ag45
ag46
ag999
ag2453
ag2454
ag2455
ag1938
aVcircle
p2733
ag698
ag699
ag700
ag873
ag875
ag876
ag353
ag878
ag720
ag863
ag879
ag533
ag534
ag535
ag536
ag537
ag538
ag541
ag1064
aVpostulate
p2734
ag1067
ag1068
ag1069
ag1070
aVsail
p2735
ag1200
ag2008
ag1201
ag1203
ag1204
ag1206
ag1207
ag839
ag840
ag841
aVovertake
p2736
ag2456
ag2190
ag2191
ag2019
ag2457
ag2458
aVpay
p2737
ag2459
ag2460
ag318
ag170
ag1693
ag147
ag148
ag184
ag605
ag604
ag607
ag608
ag609
ag610
ag611
ag613
ag108
ag109
ag617
ag2461
ag2462
ag1934
aVannounce
p2738
ag1047
ag1048
ag3
ag87
ag89
ag91
ag94
ag96
ag97
ag98
ag99
ag100
ag101
ag102
ag103
ag105
ag106
ag107
ag19
ag521
ag522
ag339
ag1049
aVaccommodate
p2739
ag1050
ag1051
ag1052
ag1054
ag1055
ag1056
ag1057
ag1059
ag1060
aVtalk
p2740
aVspeak
p2741
ag709
ag710
ag711
ag1071
ag1072
ag1073
ag1074
ag1075
ag1076
ag1077
ag499
ag500
ag501
aVassist
p2742
ag1078
ag1079
ag199
ag1081
ag1083
ag1084
ag1085
ag798
ag1086
ag1087
ag1088
ag1089
ag1091
ag1092
ag1093
ag1094
ag1095
ag1096
ag1097
ag1098
ag1099
ag1100
ag1101
ag1102
ag1103
ag1104
ag1105
ag1106
ag1109
ag1110
ag1111
ag1112
ag1113
ag1114
ag1115
ag1116
ag1119
ag1120
ag1121
ag1122
ag1123
ag1124
ag1125
ag1126
ag1127
ag1128
ag1129
ag143
ag150
ag152
ag153
ag155
ag156
ag157
ag158
ag159
ag160
ag1130
ag1131
ag1133
ag1135
ag1137
ag1138
ag1139
ag1145
ag1150
ag1151
ag111
ag1152
ag1153
ag979
ag980
ag981
ag736
ag1154
ag1155
ag1157
aVcompensate
p2743
ag1158
ag1159
ag1160
ag1161
ag1162
ag1163
ag1164
ag1165
ag1166
ag1167
ag1168
ag1169
ag1170
ag982
ag983
ag984
ag985
ag1174
ag1175
ag1176
ag1177
ag1178
ag1179
ag1180
ag1181
ag1182
ag1183
ag1184
ag2140
ag1185
ag1186
ag1187
ag1188
ag1189
ag1190
ag1191
ag328
ag340
ag341
ag342
ag345
ag347
ag365
ag367
ag1192
ag1193
ag1195
ag1196
ag1197
aVride
p2744
ag1198
ag673
ag213
ag214
ag1778
ag1772
ag1005
ag1006
ag941
ag942
ag943
ag944
ag945
ag946
ag2175
ag1618
aVcite
p2745
ag1570
ag35
ag36
ag542
ag543
ag548
ag549
ag550
ag568
ag569
ag570
ag571
ag573
ag133
ag134
ag574
ag203
ag576
ag577
ag578
ag587
ag591
ag592
ag593
ag594
ag595
ag165
ag166
ag167
ag177
ag178
ag596
ag598
ag490
ag492
ag495
ag132
ag496
ag497
ag498
ag1355
ag1356
ag195
ag1989
ag1449
ag1990
ag1450
ag620
ag623
ag624
ag625
ag626
ag627
ag628
ag630
ag631
ag633
ag634
ag635
ag636
ag637
ag639
ag641
ag643
ag645
ag646
ag648
ag649
ag650
ag651
ag652
ag653
ag654
ag657
ag659
ag660
ag209
ag696
ag1291
ag923
ag924
ag925
ag928
ag934
aVdistribute
p2746
ag938
ag867
ag808
ag809
ag810
ag812
ag885
ag889
ag890
ag743
ag745
ag891
ag892
ag895
ag896
ag897
ag899
ag900
ag902
ag903
ag904
ag906
ag750
ag907
ag909
ag912
ag913
ag2418
ag1655
ag1656
ag1459
ag1029
ag1030
aVcovenant
p2747
ag1571
ag190
ag191
ag200
ag202
ag829
ag830
ag1776
ag1777
ag1631
ag1632
ag1633
ag1634
ag1635
ag1922
aVbump
p2748
ag842
ag922
ag1309
ag1310
ag1311
ag1313
ag1314
ag1315
ag1316
ag1317
ag1318
ag2106
ag1319
ag1321
ag1322
ag1323
ag1324
ag1325
aVshift
p2749
ag1326
ag1327
aVnurture
p2750
ag832
ag833
ag836
ag1382
ag1569
ag2240
ag1870
ag1241
ag1871
ag1872
ag1873
ag1874
ag674
ag831
ag1365
ag1295
ag1296
ag801
ag802
ag803
ag804
ag805
ag1366
ag1367
ag1368
ag1373
ag1007
ag1008
ag973
ag974
ag975
ag977
ag1803
ag1804
ag712
ag713
ag715
ag716
ag717
ag718
ag719
ag722
ag723
ag725
ag727
ag728
ag729
ag730
ag731
aVexchange
p2751
ag1302
ag1303
ag1304
ag1306
ag1307
ag1923
aVdiverge
p2752
ag1926
ag1927
ag2173
ag2174
ag967
ag968
ag969
ag1808
ag1810
ag211
ag212
ag216
ag217
ag218
ag219
ag692
ag1623
ag1624
ag1625
ag1626
ag1627
ag670
ag125
ag126
aVdecree
p2753
ag1636
ag1637
ag1597
ag1598
ag1599
ag1600
aVweaken
p2754
ag1805
ag1806
ag513
ag516
ag517
ag525
ag528
ag529
ag530
ag1686
ag1687
ag1688
ag1689
ag1690
ag1691
ag1692
ag1958
ag1959
ag1960
ag1961
ag1451
ag1025
ag1525
ag1526
ag1527
ag1601
ag1602
ag1603
ag1604
ag1605
ag1606
aVprocess
p2755
ag757
ag758
ag759
ag760
ag763
ag764
ag765
ag766
ag767
ag768
ag1607
ag1608
ag1609
ag1610
ag1611
ag1612
ag1613
ag1614
ag1615
ag1616
ag1617
ag837
ag1540
ag1541
ag1542
ag1543
aVtrim
p2756
ag1544
ag1545
ag1546
ag1547
ag1548
ag1549
ag1550
ag1551
ag1552
ag915
ag918
ag2264
ag2265
ag2266
ag1476
ag1477
ag1479
ag1480
ag1481
ag1482
ag1278
ag1475
ag1483
aVdivide
p2757
aVpart
p2758
ag1484
ag1485
ag1486
ag1487
ag1521
ag1522
ag1523
ag1524
ag1283
ag1456
ag1457
ag1458
ag1279
ag1460
ag1461
ag1463
ag1464
ag1465
ag1466
ag1467
ag1469
ag1470
ag1471
ag1472
ag1473
ag1474
ag1454
ag1400
ag1261
ag1811
ag2216
ag1802
aVavoid
p2759
ag746
ag735
ag2463
ag2385
ag2386
ag2387
ag2388
ag2389
ag2390
ag2391
ag2237
ag2238
ag1344
ag1345
ag675
ag676
ag677
ag678
ag679
ag680
ag681
ag682
ag686
ag687
ag688
ag2100
ag2101
ag2102
ag2109
ag1561
ag2110
ag2111
ag2112
ag1558
ag1590
aVflow
p2760
ag2464
ag2465
ag1377
aVcompound
p2761
ag2466
aVfling
p2762
ag996
ag1946
ag1947
ag1850
ag2164
ag2401
ag1851
ag1852
ag1853
ag1854
ag1855
ag1856
ag1857
ag1840
ag1841
ag1591
ag1575
aVsnap
p2763
ag2467
ag2468
ag1266
ag1267
ag1949
ag1950
ag1951
ag1952
ag1953
ag1954
ag1955
ag1956
ag1539
ag1380
ag1381
ag1384
ag1385
ag1386
ag1280
aVattribute
p2764
ag1243
ag1245
ag1246
ag1248
ag1249
ag1250
ag1251
ag2163
ag1252
ag1253
ag1254
ag1255
ag1256
ag1257
ag1258
ag1259
ag1262
ag1263
ag1270
ag1271
ag1272
ag1273
ag1275
ag1282
ag1284
ag1285
ag1286
ag1287
ag1288
ag1289
ag2392
ag2422
ag2423
ag2424
ag2425
ag2426
ag1900
ag1901
ag1902
ag2469
ag2470
ag2305
ag2306
ag2307
ag2309
aVbind
p2765
ag2310
ag1743
ag1744
ag1745
ag1746
ag2244
ag2245
aVpress
p2766
ag1769
ag1770
ag1771
ag1223
ag1224
ag1398
ag1399
ag1679
ag2452
ag2471
aVyearn
p2767
ag2472
ag2473
ag2474
ag2211
ag2212
ag2213
ag2348
ag2349
aVsqueeze
p2768
ag2350
ag2351
ag2352
ag1820
ag1821
ag1822
ag1823
ag1824
ag2368
ag2369
ag2370
ag2371
ag2475
ag2117
ag2476
ag2477
ag2478
ag2479
ag2480
ag1406
ag1408
ag1409
ag2481
ag2482
aVrear
p2769
ag2483
aVsurface
p2770
ag472
ag1920
ag1921
ag2484
ag2485
ag2486
ag1506
ag1508
ag1509
ag1510
ag1511
ag1512
ag1513
ag1514
ag1515
ag1516
ag1517
ag1518
ag1519
ag1520
ag2098
ag2099
ag1563
ag1706
ag1707
ag1708
ag2149
ag2446
ag1022
ag1023
ag1024
ag1916
ag2234
ag2236
ag1758
ag1759
ag1760
ag1761
ag1762
ag1763
ag1764
ag1765
ag1766
ag1767
ag1768
ag1747
ag1748
ag2487
ag2488
ag1021
ag2293
ag2294
ag1680
ag2436
ag2124
ag2125
ag2151
ag1779
ag1217
ag1218
ag1219
ag1574
ag2090
ag1935
ag2217
ag2219
aVfill
p2771
ag2338
ag2489
ag2490
ag2491
ag2492
ag1331
ag1332
ag1333
ag1395
aVworry
p2772
ag1528
ag1529
ag370
ag371
ag373
ag468
ag469
ag1401
ag1402
ag1403
ag1404
ag1572
ag1573
ag1554
ag1555
ag1556
ag1557
ag1559
ag1560
ag1564
ag1565
ag1566
ag1567
ag1568
ag1215
ag1576
ag1577
ag1578
ag1579
ag1580
ag1581
ag1582
ag1583
ag1584
ag1585
ag1586
ag1587
ag1588
ag1589
ag309
ag1875
ag1876
ag1877
ag1878
ag1879
ag1880
ag1881
ag1882
ag1328
ag1329
ag1330
ag2493
ag1657
ag2409
ag2410
ag2411
ag2412
ag2413
ag1807
ag2494
ag2495
ag2496
ag2497
ag2498
ag2253
ag1240
ag2499
ag2500
ag2501
ag2502
ag2503
ag2504
ag2505
ag2506
ag2507
ag797
ag939
ag1350
ag1358
ag1376
ag1378
ag1379
ag1843
ag1844
ag1845
ag1742
ag2261
ag2262
ag2192
ag2193
ag2194
ag2127
ag2128
ag2129
ag2437
ag2438
ag2439
ag2440
ag2441
aVrepay
p2773
ag1729
ag1730
ag1731
ag1732
ag1734
ag1735
ag1736
ag1737
ag1738
ag1726
ag1727
ag1728
ag1651
ag1652
ag1739
ag1740
ag1741
ag1620
ag1644
ag1813
ag1814
ag1815
ag1816
ag1817
ag990
ag1621
ag1622
ag1825
ag1906
ag1907
ag1908
ag1909
ag1910
ag1911
ag2379
ag2188
ag2189
ag1700
ag1702
ag1703
ag2121
ag2186
ag1628
ag1629
ag1630
ag988
ag989
ag1001
ag1002
ag1010
ag1013
ag1014
ag1015
ag1016
ag1018
ag1019
ag1020
ag1884
ag2171
ag2275
aVenlist
p2774
ag1666
ag2405
ag2406
ag2407
ag2408
ag1638
ag1639
ag1640
ag1641
ag1642
ag1643
ag2176
aVfamiliarize
p2775
aVfamiliarise
p2776
ag1931
ag1933
ag1827
ag1828
ag2404
ag2366
ag2367
aVundo
p2777
aVuntie
p2778
aVunbrace
p2779
aVunlace
p2780
ag2250
ag2251
ag2252
ag1886
ag1887
ag1888
ag1889
ag1891
ag1892
ag1948
aVdisentangle
p2781
ag2569
ag1292
aVuncover
p2782
ag2156
ag1752
ag1753
ag1754
ag1755
ag1756
ag2158
ag2159
ag2160
ag2451
ag2254
ag2255
ag2256
ag1930
ag1939
ag1940
ag1941
ag1944
ag1945
ag2130
ag2131
ag2132
ag2133
ag2134
ag2135
ag2137
ag2138
ag2139
ag2141
ag2145
ag948
ag2146
ag2147
ag2148
ag2523
ag2524
ag2525
ag2295
ag2297
ag2298
aVdivert
p2783
ag2195
ag2196
ag2197
ag2198
ag2199
ag2203
ag2304
ag2414
ag1883
ag2645
ag2646
ag2647
ag2648
ag2649
ag2520
ag2521
ag2522
ag1787
ag1788
ag1789
ag1790
ag1791
ag1794
ag1795
ag1796
ag1797
ag1798
ag1799
ag1800
ag1676
ag1677
ag1678
ag2302
ag1846
ag1847
ag2314
ag2326
ag2327
aVsit
p2784
ag2429
aVmar
p2785
aVimpair
p2786
aVdeflower
p2787
aVvitiate
p2788
ag2225
ag2316
ag2317
ag2318
ag2319
ag2320
ag1818
ag2311
ag2312
ag2313
aVreject
p2789
ag379
ag382
aVshop
p2790
aVadore
p2791
aVreverence
p2792
aVfear
p2793
aVrevere
p2794
aVvenerate
p2795
aVattend
p2796
ag2542
aVbode
p2797
aVportend
p2798
aVauspicate
p2799
aVomen
p2800
aVpresage
p2801
aVforeshadow
p2802
aVaugur
p2803
aVprefigure
p2804
ag2152
ag2153
ag769
ag770
ag2642
ag391
ag392
ag393
ag395
aVdiagnose
p2805
ag1848
ag1849
ag1659
ag1660
ag1661
ag1662
ag1663
ag1664
ag2209
ag1667
ag1668
ag1669
ag1670
ag1671
ag1672
ag2210
ag2214
ag2215
ag2226
ag2227
ag2228
ag2230
ag2231
ag2232
ag1388
ag1389
ag1228
ag1229
ag1230
ag1231
ag1232
ag1233
ag1234
ag1235
ag1236
ag1238
ag1239
ag1430
ag1431
ag2585
ag2586
ag2587
aVknit
p2806
ag1027
ag1858
ag1859
ag1861
ag1862
ag1863
ag1864
ag1865
ag1866
ag1868
ag1869
ag2278
ag2280
ag2281
ag2283
ag2284
ag2285
ag2286
ag2287
ag2288
ag2364
ag2365
ag2332
ag2333
ag2334
ag2372
ag2373
ag2374
ag2375
ag2376
ag2377
ag2378
ag2380
ag2381
ag2382
ag2383
ag2384
ag2393
ag2394
ag2395
ag2396
ag2397
ag2398
ag2399
ag2628
ag2629
ag2630
ag2631
ag2167
ag2168
ag2165
ag2665
ag2666
ag2667
ag2419
ag2273
ag2274
ag1917
ag1918
ag1919
ag2339
ag2560
ag2561
aVrecover
p2807
aVrate
p2808
ag2289
ag2290
ag1684
ag1685
ag1696
ag1697
ag1698
ag2427
ag2428
ag1885
ag1220
ag1893
ag1894
ag1898
ag1899
ag1903
ag1904
ag1905
ag1912
ag1913
ag1914
ag1915
ag1957
aVvacate
p2809
ag2292
aVdeny
p2810
ag2576
ag2430
ag2299
ag2300
ag2301
aVdeteriorate
p2811
ag2562
aVintimidate
p2812
aVsatiate
p2813
aVsate
p2814
aVreplete
p2815
ag1675
ag2544
ag2545
ag2546
ag2547
ag2548
ag2549
ag2550
ag2551
ag2526
ag2527
ag2528
ag2529
ag1812
ag2532
ag2533
ag2534
ag2536
ag2552
ag2553
ag2554
ag1645
ag1646
aVsurvive
p2816
aVsubsist
p2817
aVinstill
p2818
aVtransfuse
p2819
aVoxidize
p2820
aVoxidise
p2821
aVoxidate
p2822
ag2570
ag2571
ag2572
ag2686
ag2687
ag2688
ag1709
ag1710
ag1711
ag2328
ag2603
ag2604
ag2605
ag2669
ag2670
ag2671
ag2682
ag2683
ag1704
ag2322
aVrede
p2823
aVgrade
p2824
ag2606
ag2588
ag2589
aVregress
p2825
ag2607
ag2608
ag2609
ag2610
ag2329
ag1780
ag1781
ag1658
ag1712
ag1713
ag1714
ag1749
ag1751
ag1757
ag1774
ag1775
ag2573
ag1783
ag2246
ag1211
ag1212
ag1221
ag1225
ag1226
ag1227
ag2574
ag2575
ag2342
ag2343
ag2344
ag2345
ag2346
ag2359
ag2360
ag2361
ag2362
ag2577
ag2578
ag2579
ag2580
ag2581
ag2582
ag2583
ag2584
ag1648
ag2590
ag2591
ag2592
ag2593
ag2594
ag2595
ag2596
ag2597
ag2598
ag2599
ag2325
ag2257
ag2258
ag2330
ag2331
ag1653
ag1654
ag694
ag1649
ag1650
ag1784
ag1785
ag1786
ag2531
aVpretermit
p2826
aVomit
p2827
aVoverlook
p2828
aVoverleap
p2829
ag2421
ag2259
ag2260
ag2263
ag2267
ag2268
ag2269
ag2271
ag2272
ag2276
ag2277
ag2315
ag2321
ag2323
ag2324
aVcommune
p2830
aVsky
p2831
aVsnip
p2832
aVclip
p2833
aVcrop
p2834
aVlop
p2835
aVprune
p2836
aVculminate
p2837
aVclimax
p2838
ag2619
ag2509
ag2510
ag2511
ag2512
ag2513
ag2514
ag2515
ag2516
ag2517
ag2518
ag2519
ag2668
aVcondemn
p2839
aVshine
p2840
ag2565
ag2672
aVwrong
p2841
aVadopt
p2842
aVespouse
p2843
aVobscure
p2844
aVobliterate
p2845
aVveil
p2846
aVimmobilize
p2847
aVimmobilise
p2848
ag1829
ag1830
ag1831
ag1833
ag1834
ag1836
ag1837
ag2653
ag2654
ag2655
aVembezzle
p2849
aVdefalcate
p2850
aVpeculate
p2851
aVmisappropriate
p2852
aVmalversate
p2853
aVparticipate
p2854
aVmortgage
p2855
aVsulk
p2856
aVpout
p2857
ag2557
ag2558
ag2559
aVwing
p2858
ag2340
aVcollide
p2859
aVclash
p2860
aVreside
p2861
aVhurl
p2862
aVhurtle
p2863
aVlunge
p2864
ag2632
aVpervert
p2865
aVsubvert
p2866
aVdemoralize
p2867
aVdemoralise
p2868
aVdebauch
p2869
aVprofane
p2870
aVdeprave
p2871
aVmisdirect
p2872
aVurinate
p2873
aVpiddle
p2874
aVpuddle
p2875
aVmicturate
p2876
aVpiss
p2877
aVpee
p2878
aVpee-pee
p2879
aVwee
p2880
aVwee-wee
p2881
ag2431
ag2432
ag2433
ag2434
ag2435
aVcycle
p2882
aVmap
p2883
ag2678
ag2679
ag2680
ag2681
ag2657
ag2658
aVslog
p2884
aVfootslog
p2885
aVplod
p2886
aVtrudge
p2887
aVpad
p2888
aVtramp
p2889
ag2612
ag2613
ag2614
ag2615
ag2616
ag2617
ag2618
ag2620
aVcontravene
p2890
aVdisavow
p2891
ag2662
ag2663
ag2664
aVspill
p2892
aVshed
p2893
aVdisgorge
p2894
aVinoculate
p2895
aVnauseate
p2896
aVerr
p2897
aVconvulse
p2898
aVthresh
p2899
aVthrash
p2900
aVjactitate
p2901
aVscramble
p2902
aVfoam
p2903
aVfroth
p2904
aVfizz
p2905
aVeffervesce
p2906
aVsparkle
p2907
aVcleanse
p2908
ag2555
ag2556
ag2643
ag2644
ag2674
ag2567
ag2568
ag2650
ag2651
ag2652
ag2656
ag2659
ag2660
ag2673
ag2675
ag2538
ag2539
ag2540
ag2541
ag2543
ag2563
aVvote
p2909
aVduplicate
p2910
aVreduplicate
p2911
aVdouble
p2912
aVreplicate
p2913
ag2400
aVmemorize
p2914
aVmemorise
p2915
aVcon
p2916
aVdiscipline
p2917
aVirradiate
p2918
aVray
p2919
aVhate
p2920
aVdetest
p2921
aVrewrite
p2922
aVreorganize
p2923
aVreorganise
p2924
aVdevalue
p2925
ag2600
ag2601
ag2602
aVprejudice
p2926
aVprepossess
p2927
aVgroup
p2928
aVaggroup
p2929
ag2442
ag2443
ag2444
ag2445
aVupgrade
p2930
aVtumble
p2931
aVrock
p2932
aVchurn
p2933
aVboil
p2934
aVmoil
p2935
aVroil
p2936
ag2621
ag2622
ag2623
ag2624
ag2625
ag2626
ag2627
aVgrimace
p2937
aVrevitalize
p2938
aVsubmerge
p2939
aVsubmerse
p2940
aVswim
p2941
aVstain
p2942
aVscoop
p2943
ag2636
ag2637
ag2638
aVwrinkle
p2944
aVruckle
p2945
aVcrease
p2946
aVcrinkle
p2947
aVscrunch
p2948
aVcrisp
p2949
aVcash
p2950
aVinflate
p2951
aVcoincide
p2952
aVco-occur
p2953
aVcooccur
p2954
aVcheer
p2955
aVunburden
p2956
aVdisburden
p2957
aVexhale
p2958
aVspurt
p2959
aVspirt
p2960
aVgush
p2961
aVspout
p2962
aVdemolish
p2963
aVsocialize
p2964
aVsocialise
p2965
aVfornicate
p2966
aVvoice
p2967
aVvocalize
p2968
aVvocalise
p2969
ag2676
ag2677
ag2684
ag2685
aVsmile
p2970
aVorb
p2971
aVorbit
p2972
aVretreat
p2973
aVrecede
p2974
aVrecapitulate
p2975
aVrecap
p2976
aVwash
p2977
ag2635
aVinconvenience
p2978
aVdisoblige
p2979
aVdiscommode
p2980
aVincommode
p2981
aVmarch
p2982
aVharden
p2983
aVindurate
p2984
aVtarnish
p2985
aVmaculate
p2986
aVsully
p2987
aVdefile
p2988
aVmutate
p2989
aVburthen
p2990
aVweight
p2991
ag2634
ag2639
ag2640
ag2641
aVglide
p2992
aVentertain
p2993
aVlade
p2994
aVladen
p2995
aVovercrowd
p2996
aVoverprint
p2997
aVshave
p2998
aVbedight
p2999
aVbedeck
p3000
aVprevail
p3001
aVextort
p3002
aVrack
p3003
aVgouge
p3004
aVwring
p3005
aVerode
p3006
aVfret
p3007
aVrefreshen
p3008
aVcool
p3009
aVchill
p3010
aValleviate
p3011
aVpalliate
p3012
aVassuage
p3013
aVprecipitate
p3014
aVwind
p3015
aVswerve
p3016
aVsheer
p3017
aVcurve
p3018
aVtrend
p3019
aVveer
p3020
aVslue
p3021
aVslew
p3022
aVlour
p3023
ag47
ag48
ag20
ag21
ag22
ag843
ag402
ag403
ag404
ag405
ag406
ag407
ag408
ag844
ag409
ag410
ag411
ag845
ag336
ag49
ag50
ag51
ag52
ag53
ag54
ag55
ag56
ag57
ag58
ag59
ag7
ag8
ag9
ag60
ag61
ag62
ag65
ag66
ag67
ag68
ag69
ag70
ag71
ag72
ag73
ag25
ag26
ag1312
ag1962
ag1963
ag1964
ag1965
ag1966
ag1967
ag1334
ag1968
ag1335
ag396
ag397
ag398
ag399
ag947
ag400
ag1969
ag27
ag29
ag30
ag1411
ag1970
ag1432
ag1433
ag351
ag352
ag1971
ag1036
ag1037
ag1011
ag223
ag224
ag1972
ag1973
ag1974
ag1216
ag1975
ag732
ag733
ag1976
ag1434
ag1977
ag1978
ag1979
ag1435
ag487
ag599
ag600
ag601
ag1980
ag602
ag603
ag1981
ag970
ag1982
ag971
ag120
ag121
ag122
ag123
ag1436
ag502
ag503
ag504
ag1983
ag5
ag1437
ag1984
ag1438
ag1439
ag1440
ag1441
ag1442
ag181
ag182
ag183
ag240
ag241
ag242
ag243
ag244
ag245
ag1443
ag1444
ag1985
ag1445
ag1986
ag1446
ag1447
ag1448
ag227
ag228
ag83
ag84
ag229
ag230
ag231
ag232
ag233
ag234
ag38
ag237
ag238
ag239
ag247
ag248
ag249
ag250
ag251
ag252
ag253
ag254
ag255
ag256
ag257
ag258
ag259
ag260
ag261
ag262
ag263
ag264
ag265
ag266
ag267
ag268
ag269
ag270
ag271
ag272
ag273
ag274
ag275
ag276
ag277
ag278
ag279
ag280
ag282
ag283
ag284
ag285
ag286
ag287
ag288
ag1987
ag707
ag708
ag1336
ag1337
ag1338
ag1339
ag846
ag412
ag413
ag414
ag415
ag416
ag417
ag135
ag136
ag850
ag419
ag420
ag421
ag289
ag290
ag291
ag85
ag422
ag423
ag424
ag425
ag426
ag427
ag428
ag429
ag430
ag431
ag432
ag434
ag435
ag436
ag437
ag438
ag439
ag440
ag441
ag442
ag383
ag384
ag385
ag443
ag444
ag445
ag853
ag64
ag74
ag76
ag77
ag78
ag79
ag80
ag81
ag446
ag447
ag448
ag137
ag139
ag449
ag450
ag451
ag452
ag453
ag454
ag455
ag456
ag321
ag473
ag474
ag475
ag855
ag477
ag478
ag479
ag480
ag481
ag482
ag483
ag484
ag485
ag486
ag311
ag488
ag489
ag220
ag221
ag222
ag1721
ag684
ag685
ag2689
ag2690
ag721
ag1000
ag579
ag580
ag581
ag582
ag583
ag584
ag585
ag1673
ag1674
ag1136
ag317
ag86
ag590
ag1999
ag753
ag164
ag2691
ag754
ag1063
ag2692
ag356
ag357
ag358
ag359
ag360
ag361
ag362
ag363
ag364
ag508
ag2693
ag509
ag510
ag511
ag771
ag772
ag773
ag369
ag544
ag545
ag207
ag312
ag774
ag775
ag2694
ag354
ag355
ag1090
ag776
ag1300
ag777
ag2695
ag778
ag779
ag780
ag781
ag782
ag783
ag784
ag785
ag786
ag1301
ag787
ag752
ag788
ag789
ag790
ag791
ag792
ag793
ag794
ag186
ag187
ag188
ag724
ag1297
ag1298
ag2696
ag127
ag128
ag606
ag813
ag2086
ag814
ag815
ag816
ag817
ag2697
ag818
ag349
ag819
ag820
ag821
ag822
ag2698
ag823
ag13
ag14
ag176
ag824
ag825
ag826
ag827
ag828
ag2699
ag2700
ag1694
ag1695
ag2415
ag2416
ag2701
ag2702
ag2417
ag1140
ag1141
ag1142
ag1143
ag2036
ag1144
ag1346
ag1347
ag1348
ag1349
ag888
ag331
ag332
ag333
ag334
ag2088
ag2703
ag751
ag2089
ag1208
ag1209
ag2058
ag1410
ag2704
ag2059
ag2705
ag2060
ag2061
ag2706
ag1412
ag1413
ag2707
ag1414
ag1416
ag1417
ag1418
ag2062
ag1419
ag2708
ag1420
ag2063
ag2064
ag1172
ag1173
ag690
ag1276
ag1277
ag2709
ag1421
ag2091
ag2710
ag2092
ag1422
ag795
ag796
ag868
ag869
ag1308
ag2116
ag1423
ag1424
ag2172
ag1425
ag738
ag739
ag740
ag741
ag1066
ag1426
ag1427
ag1428
ag1429
ag2711
ag618
ag619
ag32
ag33
ag206
ag113
ag115
ag116
ag117
ag118
ag226
ag1490
ag1491
ag1492
ag1493
ag1494
ag2044
ag1495
ag1496
ag2045
ag1497
ag2046
ag1498
ag1499
ag2047
ag2048
ag2049
ag1500
ag1501
ag1502
ag1503
ag1504
ag2050
ag2051
ag1505
ag2052
ag2054
ag702
ag703
ag1396
ag1397
ag505
ag506
ag507
ag1042
ag1043
ag1044
ag1045
ag704
ag1363
ag1364
ag2712
ag705
ag2079
ag1390
ag1391
ag1392
ag1393
ag1394
ag1715
ag1716
ag1717
ag1718
ag1719
ag1720
ag2170
ag930
ag931
ag932
ag1722
ag1723
ag1352
ag2220
ag1353
ag1354
ag1724
ag294
ag295
ag296
ag297
ag298
ag299
ag300
ag301
ag302
ag303
ag304
ag305
ag306
ag307
ag308
ag920
ag457
ag458
ag459
ag460
ag461
ag462
ag463
ag464
ag465
ag466
ag2713
ag1264
ag2714
ag1265
ag2447
ag2448
ag2449
ag2450
ag2715
ag747
ag546
ag547
ag748
ag2004
ag2005
ag1452
ag2006
ag1453
ag1936
ag1937
ag2716
ag2717
ag2335
ag2336
ag2337
ag2718
ag1360
ag1361
ag1362
ag2719
ag2720
ag1928
ag1929
ag806
ag2187
ag1369
ag1370
ag1371
ag1372
ag1842
ag1793
ag695
ag2001
ag1342
ag2721
ag144
ag1046
ag146
ag2183
ag612
ag575
ag161
ag162
ag2353
ag2354
ag2355
ag2356
ag2357
ag2358
ag995
ag314
ag315
ag954
ag955
ag956
ag957
ag958
ag959
ag952
ag953
ag960
ag961
ag962
ag963
ag964
ag880
ag2722
ag1924
ag1925
ag1681
ag1682
ag551
ag552
ag2723
ag554
ag2724
ag555
ag556
ag2725
ag2726
ag558
ag559
ag560
ag561
ag562
ag563
ag564
ag565
ag566
ag972
ag112
ag2727
ag198
ag1801
ag2178
ag2179
ag2728
ag2180
ag2729
ag2182
ag322
ag323
ag324
ag325
ag661
ag662
ag663
ag664
ag210
ag870
ag871
ag665
ag666
ag667
ag668
ag669
ag1592
ag2730
ag2122
ag1593
ag2123
ag1594
ag1595
ag1530
ag1531
ag2731
ag1532
ag1533
ag1534
ag1535
ag1536
ag1537
ag1538
ag2732
ag1596
ag39
ag40
ag41
ag44
ag45
ag46
ag999
ag2453
ag2454
ag2455
ag1938
ag2733
ag698
ag699
ag700
ag873
ag875
ag876
ag353
ag878
ag720
ag863
ag879
ag533
ag534
ag535
ag536
ag537
ag538
ag541
ag1064
ag2734
ag1067
ag1068
ag1069
ag1070
ag2735
ag1200
ag2008
ag1201
ag1203
ag1204
ag1206
ag1207
ag839
ag840
ag841
ag2736
ag2456
ag2190
ag2191
ag2019
ag2457
ag2458
ag2737
ag2459
ag2460
ag318
ag170
ag1693
ag147
ag148
ag184
ag605
ag604
ag607
ag608
ag609
ag610
ag611
ag613
ag108
ag109
ag617
ag2461
ag2462
ag1934
ag2738
ag1047
ag1048
ag3
ag87
ag89
ag91
ag94
ag96
ag97
ag98
ag99
ag100
ag101
ag102
ag103
ag105
ag106
ag107
ag19
ag521
ag522
ag339
ag1049
ag2739
ag1050
ag1051
ag1052
ag1054
ag1055
ag1056
ag1057
ag1059
ag1060
ag2740
ag2741
ag709
ag710
ag711
ag1071
ag1072
ag1073
ag1074
ag1075
ag1076
ag1077
ag499
ag500
ag501
ag2742
ag1078
ag1079
ag199
ag1081
ag1083
ag1084
ag1085
ag798
ag1086
ag1087
ag1088
ag1089
ag1091
ag1092
ag1093
ag1094
ag1095
ag1096
ag1097
ag1098
ag1099
ag1100
ag1101
ag1102
ag1103
ag1104
ag1105
ag1106
ag1109
ag1110
ag1111
ag1112
ag1113
ag1114
ag1115
ag1116
ag1119
ag1120
ag1121
ag1122
ag1123
ag1124
ag1125
ag1126
ag1127
ag1128
ag1129
ag143
ag150
ag152
ag153
ag155
ag156
ag157
ag158
ag159
ag160
ag1130
ag1131
ag1133
ag1135
ag1137
ag1138
ag1139
ag1145
ag1150
ag1151
ag111
ag1152
ag1153
ag979
ag980
ag981
ag736
ag1154
ag1155
ag1157
ag2743
ag1158
ag1159
ag1160
ag1161
ag1162
ag1163
ag1164
ag1165
ag1166
ag1167
ag1168
ag1169
ag1170
ag982
ag983
ag984
ag985
ag1174
ag1175
ag1176
ag1177
ag1178
ag1179
ag1180
ag1181
ag1182
ag1183
ag1184
ag2140
ag1185
ag1186
ag1187
ag1188
ag1189
ag1190
ag1191
ag328
ag340
ag341
ag342
ag345
ag347
ag365
ag367
ag1192
ag1193
ag1195
ag1196
ag1197
ag2744
ag1198
ag673
ag213
ag214
ag1778
ag1355
ag1356
ag1357
ag195
ag1989
ag1449
ag1990
ag1450
ag1997
ag1998
ag209
ag696
ag1291
ag1295
ag1296
ag801
ag802
ag803
ag804
ag805
ag1451
ag712
ag713
ag670
ag513
ag516
ag517
ag525
ag528
ag529
ag530
ag531
ag532
ag1454
ag1455
ag1283
ag2017
ag2018
ag1456
ag1457
ag627
ag628
ag1458
ag1279
ag2022
ag1459
ag975
ag1460
ag1461
ag1463
ag1464
ag1465
ag1466
ag1467
ag730
ag731
ag1468
ag1469
ag1470
ag1290
ag1471
ag1472
ag1473
ag1474
ag1400
ag2031
ag1475
ag1476
ag1477
ag1478
ag1479
ag2034
ag2035
ag1480
ag1481
ag1482
ag1278
ag1483
ag1484
ag1485
ag1486
ag1487
ag1488
ag1398
ag1399
ag2042
ag2043
ag1506
ag1507
ag1508
ag1509
ag1510
ag1025
ag1511
ag1512
ag1513
ag1514
ag1515
ag1516
ag1517
ag1518
ag2068
ag1519
ag1520
ag1521
ag1522
ag1523
ag1524
ag675
ag676
ag677
ag1525
ag1526
ag1527
ag915
ag918
ag1395
ag2073
ag1528
ag495
ag1529
ag1539
ag370
ag371
ag373
ag468
ag469
ag471
ag472
ag492
ag132
ag496
ag497
ag498
ag1540
ag1541
ag1542
ag757
ag758
ag759
ag760
ag1543
ag1544
ag1545
ag2077
ag542
ag543
ag1546
ag1547
ag1548
ag1549
ag1550
ag1551
ag1552
ag836
ag657
ag659
ag660
ag742
ag2081
ag743
ag744
ag745
ag746
ag2085
ag1401
ag1402
ag1403
ag1404
ag867
ag1570
ag722
ag723
ag1293
ag1241
ag1571
ag1572
ag1573
ag1574
ag2090
ag1027
ag1028
ag1029
ag1030
ag674
ag842
ag1818
ag1819
aVforce
p3024
ag587
ag1659
ag1660
aVderive
p3025
ag1661
ag750
ag1662
aVshoot
p3026
ag1663
ag1664
ag623
ag624
ag625
ag626
ag1605
ag1606
ag1614
ag1615
ag2209
ag1665
ag1666
ag2175
ag1618
ag1667
ag1668
ag1669
ag1670
ag1671
ag1672
ag1645
ag1646
ag1021
ag1382
ag1569
ag2240
ag1870
ag1631
ag1632
ag1633
ag1634
ag1635
ag203
ag576
ag577
ag578
ag1871
ag1872
ag1873
ag1874
ag829
ag830
ag1365
ag1366
ag1367
ag1373
ag1008
ag1597
ag1598
ag1599
ag1600
ag1601
ag1602
ag1603
ag1604
ag1885
ag1789
ag1790
ag1791
ag1220
ag1380
ag1381
ag1384
ag1385
ag1386
ag2747
ag1628
ag1629
ag1630
ag967
ag968
ag969
aVdrive
p3027
ag1886
ag1887
ag1888
ag1889
ag1890
ag1891
ag1892
ag1001
ag1002
ag1005
ag1006
aVstretch
p3028
ag1013
ag1014
ag1015
ag1016
ag1018
ag1019
ag1020
ag692
ag1893
ag1894
ag1895
ag1655
ag1656
ag1309
ag1699
ag1768
ag1758
ag1759
ag1760
ag1761
ag1762
ag1763
ag1764
ag1765
ag1766
ag1767
ag1747
ag1748
ag1022
ag1023
ag1024
ag1769
ag1770
ag1771
ag1897
aVintrude
p3029
ag1898
ag2402
ag2403
ag1899
ag1900
ag1901
ag1902
aVdisturb
p3030
ag1903
ag1904
ag1905
ag1906
ag1907
ag1908
aVtrouble
p3031
ag1909
ag1910
ag1911
ag1912
ag1913
ag1914
ag1915
aVrepeat
p3032
ag1916
ag1858
ag1859
ag1860
ag1861
ag1862
aVfrustrate
p3033
ag1863
ag1864
ag1865
ag1866
ag1867
ag1868
ag1869
ag1284
ag1285
ag1286
ag1917
ag1918
aVembarrass
p3034
ag1919
ag1920
ag1921
ag1776
ag1777
ag1922
ag1306
ag1307
ag211
ag212
ag217
ag218
ag219
ag682
ag808
ag809
ag810
ag678
ag679
ag680
ag681
ag686
ag687
ag688
ag1729
ag1730
ag1731
ag1732
ag1733
ag1734
ag1735
ag1736
ag1737
ag1738
ag1726
ag1727
ag1728
ag1739
ag1387
ag1740
ag1741
ag1032
ag1946
ag1947
ag1948
ag2781
ag1358
ag797
ag125
ag126
ag832
ag833
aVpledge
p3035
ag1779
ag1217
ag1218
ag1219
ag1949
ag1950
ag1951
ag1952
ag1953
ag1954
ag1955
ag1956
ag2842
ag2843
aVpersist
p3036
aVpierce
p3037
ag2305
ag2306
ag2307
ag2309
ag2765
ag2310
ag1328
ag1329
ag1330
ag1331
ag1332
ag1333
ag1692
ag1850
ag2164
ag1851
ag1852
ag1853
ag1854
ag1855
ag1856
ag1857
aVsubmit
p3038
ag2149
ag190
ag191
ag200
ag202
ag1811
ag2216
ag715
ag716
ag717
ag718
ag719
ag2446
ag2188
ag2189
ag909
ag1636
ag1637
ag2101
ag2102
ag1553
ag2103
ag1314
ag1315
ag1316
ag1317
ag1318
ag2106
ag2109
ag1561
ag2110
ag2111
ag2112
ag1558
ag923
ag924
ag925
ag928
ag2782
ag2156
ag1752
ag1753
ag1754
ag1755
ag1756
aVabandon
p3039
ag2158
ag2160
ag2451
aVwalk
p3040
ag2254
ag2255
ag2256
ag2273
ag2274
ag2452
ag1313
ag1319
ag1321
ag1322
ag1323
ag1324
ag1325
ag1327
ag2750
ag2173
ag2174
ag2339
ag2145
ag309
ag310
ag630
ag631
ag633
ag634
ag635
ag636
ag639
ag641
ag643
ag645
ag646
ag648
ag649
ag650
ag651
ag652
ag653
ag654
ag2471
ag2472
ag2473
ag2474
ag2211
ag2212
ag2213
ag2348
ag2349
ag2350
aVpress
p3041
ag1802
ag2351
ag2352
ag1820
ag1821
ag1822
ag1823
ag1824
ag2368
ag2369
ag2370
ag2371
ag1243
ag2475
ag2118
ag2476
aVanswer
p3042
ag2477
ag2478
ag2479
ag2480
ag1406
ag1408
ag1409
ag2481
ag2482
ag2762
ag2769
ag2483
ag1805
ag1806
ag1876
ag1877
ag1878
ag1879
ag1880
ag1881
ag1882
ag1807
ag1253
ag1254
ag1255
ag1256
ag1257
ag1258
ag1259
ag2436
ag2124
ag2125
ag2419
ag2165
ag2326
ag2327
ag2328
ag1210
ag1211
ag1212
ag1215
ag1221
ag1223
ag1224
ag1225
ag1226
ag1227
ag1228
ag1229
ag1230
ag1231
ag1232
ag1233
ag1234
ag1235
ag1236
ag1238
ag1239
ag1240
ag1245
ag1246
ag1249
ag1250
ag1251
ag1252
ag1261
ag1262
ag1263
ag1266
ag1267
ag1270
ag1271
ag1272
ag1273
ag1274
ag1275
ag1280
ag1287
ag1288
ag1289
ag2152
ag2153
ag1554
ag1555
ag1556
ag1557
ag1559
ag1560
ag1563
ag1564
ag1565
ag1566
ag1567
ag1568
ag977
ag1377
ag885
ag891
ag892
ag895
ag897
ag900
ag903
ag904
ag906
ag912
ag913
ag2376
ag1840
ag1841
ag1923
ag2928
ag2929
ag2151
ag1846
ag1847
ag1848
ag1849
ag1623
ag1624
aVafflict
p3043
ag1625
ag1626
ag1627
ag133
ag134
ag1931
ag1933
ag1935
ag1292
ag1957
ag1676
ag1677
ag1678
ag2131
ag2133
ag2784
ag2429
ag1696
ag1686
ag1687
ag1688
ag1689
ag1690
ag1691
ag2422
ag2423
ag2424
ag2425
ag2426
ag2427
ag2428
ag2643
ag2644
ag2605
ag735
ag569
ag570
ag571
ag573
ag574
ag1684
ag1685
ag769
ag770
ag2192
ag2193
ag2194
ag1576
ag1577
ag2176
ag973
ag1638
ag1639
ag1640
ag1641
ag1642
ag1643
ag1644
ag1648
ag1649
ag1650
ag620
ag2753
aVwiden
p3044
ag922
ag1310
ag1311
ag988
ag989
ag990
ag1780
ag1781
ag1782
ag1783
aVsurround
p3045
ag1784
ag1785
aVskirt
p3046
ag1786
ag165
ag166
ag167
ag2520
ag2521
ag2522
ag2484
ag2485
ag2486
ag2489
ag2490
ag2491
ag2467
ag2468
ag2492
ag1679
ag379
ag382
ag391
ag392
ag393
ag395
ag2195
ag2196
ag2197
ag2198
ag2199
ag2203
ag2682
ag2683
aVproject
p3047
ag1813
ag1814
ag1815
ag1816
ag1817
ag1344
ag1345
ag1620
ag1621
ag1622
ag2250
ag2251
ag1350
ag2252
ag2253
ag2121
ag2243
ag1742
ag1958
ag1959
ag1960
ag1961
ag939
ag940
ag2302
ag2303
ag1303
ag1304
ag2166
ag2930
ag548
ag550
ag594
ag595
ag596
ag598
ag1607
ag1608
ag1609
ag1610
ag1611
ag1612
ag1613
ag1706
ag1707
ag1708
ag2244
ag2245
ag2246
ag2247
ag1389
ag2257
ag2258
ag2259
ag2260
ag2261
ag2262
ag2263
ag1579
ag1580
ag1581
ag1582
ag1583
ag1584
ag1586
ag1587
ag1588
ag1589
ag942
ag943
ag944
ag945
ag946
ag1680
ag2264
ag2265
ag2266
ag2267
ag2268
ag2269
ag2271
ag2272
ag2275
ag2276
ag2277
ag2278
ag2280
ag2281
ag2283
ag2284
ag2285
ag2286
ag2287
ag2288
ag2289
ag2290
ag1808
ag1809
ag1825
ag2291
ag2292
ag2293
ag2294
ag725
ag727
ag728
ag729
ag763
ag764
ag765
ag766
ag767
ag768
ag2295
ag2297
ag2298
ag2299
ag2300
ag2301
ag2304
ag1844
ag1845
ag1751
ag2228
ag2229
ag2311
ag2312
ag2313
ag2314
ag2315
ag2225
ag2316
ag2317
ag2318
ag2319
ag2320
ag2321
ag2322
ag2139
ag2323
ag2324
ag1376
ag1378
ag1379
ag2325
ag2329
ag1775
ag2330
ag2331
ag2171
ag1653
ag1654
ag694
ag1657
ag1658
ag1675
ag1575
ag1578
ag1772
ag2418
ag1700
ag1702
ag1703
ag1704
ag1709
ag1710
ag1712
ag1713
ag1714
ag1743
ag1744
ag1745
ag1749
ag1757
ag1773
ag1774
ag1804
ag1826
ag1827
ag1828
ag2167
ag2168
ag2098
ag2099
ag1930
ag1939
ag1940
ag1941
ag1944
ag1945
ag1843
ag2127
ag2128
ag2129
ag2130
ag2135
ag2137
ag2141
ag2146
ag2147
ag2148
ag1787
ag1788
ag2592
ag2593
ag2594
ag2595
ag2596
ag2597
ag2598
ag2599
ag2404
ag2366
ag2367
ag2405
ag2406
ag2407
ag2408
ag2237
ag2238
ag2409
ag2410
ag2411
ag2412
ag2508
ag2379
ag1926
ag1927
ag2421
ag2217
ag2219
ag2186
ag1812
ag1829
ag1830
ag1831
ag1832
ag1833
ag1834
ag1835
ag1836
ag1837
ag2392
ag2611
ag2537
ag2523
ag2524
ag2525
ag2606
ag2588
ag2589
ag2825
ag2607
ag2608
ag2609
ag2610
ag1616
ag1617
ag2562
ag2234
ag2236
ag2526
ag2527
ag2528
ag2529
ag1875
ag1883
ag1884
ag2530
aVweave
p3048
ag2531
ag2532
ag2533
ag2534
ag2535
ag2536
ag2493
ag2494
ag2495
ag2496
ag2497
ag2498
ag2499
ag2500
ag2501
ag2502
ag2503
ag2504
ag2505
ag2506
ag2507
ag2469
ag2470
ag2463
ag2385
ag2386
ag2387
ag2388
ag2389
ag2390
ag2391
ag2464
ag2465
ag2466
ag2570
ag2571
ag2572
ag2383
ag2384
aVflatten
p3049
ag2931
ag2932
aVsway
p3050
ag2933
ag2934
ag2935
ag2936
ag2898
ag2899
ag2900
ag2901
ag2902
ag2586
ag2587
ag2903
ag2904
ag2905
ag2906
ag2907
ag2908
ag2555
ag1794
ag1795
ag1797
ag1798
ag1799
ag1800
ag2778
ag2779
ag2780
ag2518
ag2519
ag2628
ag2629
ag2630
ag2674
ag2430
ag2364
ag2365
ag2561
ag2567
ag2568
ag2650
ag2651
ag2652
ag2653
ag2654
ag2655
ag2656
ag2657
ag2658
ag2659
ag2660
ag2661
ag2642
ag2377
ag2378
ag2380
ag2381
ag2645
ag2646
ag2647
ag2648
ag2686
ag2687
ag2688
ag2431
ag2432
ag2433
ag2434
ag2435
ag2332
ag2333
ag2334
ag2372
ag2373
ag2374
ag2375
ag2382
ag2393
ag2394
ag2395
ag2397
ag2398
ag2399
ag2673
ag2917
ag2854
ag2512
ag2513
ag2826
ag2828
ag2829
ag2855
ag2582
ag2583
ag2678
ag2679
ag2681
ag2672
ag2816
ag2817
ag2818
ag2819
ag2820
ag2821
ag2822
ag2612
ag2613
ag2614
ag2615
ag2616
ag2617
ag2618
ag2619
ag2620
ag2621
ag2622
ag2623
ag2624
ag2625
ag2626
ag2627
ag2896
ag2442
ag2443
ag2444
ag2445
ag2925
ag2937
ag2675
ag2487
ag2488
ag2775
ag2776
ag2573
ag2230
ag2231
ag2232
aVrate
p3051
ag2824
ag2560
ag2922
ag2923
ag2924
ag2338
ag2414
ag2437
ag2438
ag2439
ag2440
ag2441
ag2509
ag2510
ag2511
ag2514
ag2515
ag2938
ag2910
ag2911
ag2912
ag2913
ag2363
ag2649
ag2785
ag2786
ag2787
ag2788
ag2577
ag2578
ag2579
ag2580
ag2581
ag2569
ag2210
ag2214
ag2215
ag2226
ag2227
ag2665
ag2666
ag2667
ag2631
ag2909
ag2832
ag2833
ag2834
ag2835
ag2836
ag2892
ag2893
ag2894
ag2895
aVrelax
p3052
aVunbend
p3053
ag2830
ag2669
ag2670
ag2671
ag2584
ag2977
ag2635
ag2400
ag2585
ag2676
ag2677
ag2684
ag2685
ag2790
ag2791
ag2792
ag2793
ag2794
ag2795
ag2542
ag2797
ag2798
ag2799
ag2800
ag2801
ag2802
ag2803
ag2804
ag2993
ag2809
ag2576
ag2812
ag2813
ag2814
ag2815
ag3011
ag3012
ag3013
ag2603
ag2604
ag1430
ag1431
aVmaim
p3054
ag2864
aVhurl
p3055
aVhurtle
p3056
ag2632
ag2856
ag2857
ag2557
ag2558
ag2559
ag2858
aVesteem
p3057
aVprise
p3058
aVregret
p3059
ag2805
ag2544
ag2545
ag2546
ag2547
ag2548
ag2549
ag2550
ag2551
ag2552
ag2553
ag2554
ag2342
ag2343
ag2344
ag2345
ag2346
ag2359
ag2360
ag2361
ag2362
ag2944
ag2945
ag2946
ag2947
ag2948
ag2949
ag2662
ag2663
ag2664
ag2844
ag2845
ag2846
ag2847
ag2848
ag2882
ag2897
ag3002
ag3003
ag3004
ag3005
ag2841
ag2883
ag2563
ag2564
ag2565
ag2918
ag2919
ag2668
ag2890
ag2891
ag2849
ag2850
ag2851
ag2852
ag2853
ag2538
ag2539
ag2540
ag2541
ag2955
ag2956
ag2957
ag2958
ag2959
ag2960
ag2961
ag2962
ag2859
ag2860
ag2963
ag2950
ag2951
aVbestow
p3060
ag3023
ag2574
ag2575
ag2990
ag2991
ag2873
ag2874
ag2875
ag2876
ag2877
ag2878
ag2879
ag2880
ag2881
ag2992
ag2989
ag2600
ag2601
ag2602
ag2543
ag2590
ag2591
ag2340
ag2978
ag2979
ag2980
ag2981
ag2884
ag2885
ag2886
ag2887
ag2888
ag2889
aVcondemn
p3061
ag2982
ag2983
ag2984
ag2985
aVstain
p3062
ag2986
ag2987
ag2988
ag2831
aVignore
p3063
aVdisregard
p3064
aVoverdo
p3065
ag2914
ag2915
ag2916
ag2837
ag2838
ag2861
ag2865
ag2866
ag2867
ag2868
ag2869
ag2870
ag2871
ag2872
ag2939
ag2940
ag2941
ag2943
ag2636
ag2637
ag2638
ag3015
aVdenounce
p3066
aVimpound
p3067
aVsequester
p3068
aVconfiscate
p3069
ag2970
aVblur
p3070
aVdim
p3071
aVslur
p3072
ag2634
ag2639
ag2640
ag2641
aVowe
p3073
ag2967
ag2968
ag2969
aVconflict
p3074
aVdepose
p3075
aVwade
p3076
aVpack
p3077
aVbundle
p3078
aVwad
p3079
aVputter
p3080
aVpotter
p3081
aVtinker
p3082
aVmonkey
p3083
aVspatter
p3084
aVsplatter
p3085
aVplash
p3086
aVsplash
p3087
aVsplosh
p3088
aVswash
p3089
aVjumble
p3090
ag2920
ag2921
aVpicture
p3091
aVhike
p3092
ag2994
ag2995
ag2996
ag2997
ag2998
ag2999
ag3000
aVamuse
p3093
aVlaugh
p3094
aVflap
p3095
aVpound
p3096
aVthump
p3097
aVswap
p3098
aVbubble
p3099
ag2964
ag2965
ag2966
ag2971
ag2972
ag2973
ag2974
ag2975
ag2976
ag3014
ag2952
ag2953
ag2954
aVmanifold
p3100
aVprophesy
p3101
aVvaticinate
p3102
aVdislike
p3103
aVcheapen
p3104
aVown
p3105
aVpreoccupy
p3106
ag2926
ag2927
aVsmear
p3107
ag3001
aVfleck
p3108
aVblob
p3109
aVblot
p3110
ag3009
ag3010
aVrattle
p3111
aVbrush
p3112
aVcrunch
p3113
aVscranch
p3114
aVscraunch
p3115
aVcrackle
p3116
aVcoexist
p3117
aVapplaud
p3118
aVrejoice
p3119
aVjoy
p3120
ag3016
ag3017
ag3018
ag3019
ag3020
ag3021
ag3022
aVsummarize
p3121
aVsummarise
p3122
aVresume
p3123
ag3006
ag3007
ag3008
aVtoughen
p3124
aVaviate
p3125
aVpilot
p3126
aVherd
p3127
aVgraze
p3128
aVrake
p3129
aVstress
p3130
aVtorture
p3131
aVexcruciate
p3132
aVmutilate
p3133
aVcorrode
p3134
aVrust
p3135
aVdepress
p3136
aVdeject
p3137
aVdismay
p3138
aVdispirit
p3139
ag47
ag48
ag20
ag21
ag22
ag843
ag402
ag403
ag404
ag405
ag406
ag407
ag408
ag844
ag409
ag410
ag411
ag845
ag336
ag49
ag50
ag51
ag52
ag53
ag54
ag55
ag56
ag57
ag58
ag59
ag7
ag8
ag9
ag60
ag61
ag62
ag65
ag66
ag67
ag68
ag69
ag70
ag71
ag72
ag73
ag25
ag26
ag1312
ag1962
ag1963
ag1964
ag1965
ag1966
ag1967
ag1334
ag1968
ag1335
ag396
ag397
ag398
ag399
ag947
ag400
ag1969
ag27
ag29
ag30
ag1411
ag1970
ag1432
ag1433
ag351
ag352
ag1971
ag1036
ag1037
ag1011
ag223
ag224
ag1972
ag1973
ag1974
ag1216
ag1975
ag732
ag733
ag1976
ag1434
ag1977
ag1978
ag1979
ag1435
ag487
ag599
ag600
ag601
ag1980
ag602
ag603
ag1981
ag970
ag1982
ag971
ag120
ag121
ag122
ag123
ag1436
ag502
ag503
ag504
ag1983
ag5
ag1437
ag1984
ag1438
ag1439
ag1440
ag1441
ag1442
ag181
ag182
ag183
ag240
ag241
ag242
ag243
ag244
ag245
ag1443
ag1444
ag1985
ag1445
ag1986
ag1446
ag1447
ag1448
ag227
ag228
ag83
ag84
ag229
ag230
ag231
ag232
ag233
ag234
ag38
ag237
ag238
ag239
ag247
ag248
ag249
ag250
ag251
ag252
ag253
ag254
ag255
ag256
ag257
ag258
ag259
ag260
ag261
ag262
ag263
ag264
ag265
ag266
ag267
ag268
ag269
ag270
ag271
ag272
ag273
ag274
ag275
ag276
ag277
ag278
ag279
ag280
ag282
ag283
ag284
ag285
ag286
ag287
ag288
ag1987
ag707
ag708
ag1336
ag1337
ag1338
ag1339
ag846
ag412
ag413
ag414
ag415
ag416
ag417
ag135
ag136
ag850
ag419
ag420
ag421
ag289
ag290
ag291
ag85
ag422
ag423
ag424
ag425
ag426
ag427
ag428
ag429
ag430
ag431
ag432
ag434
ag435
ag436
ag437
ag438
ag439
ag440
ag441
ag442
ag383
ag384
ag385
ag443
ag444
ag445
ag853
ag64
ag74
ag76
ag77
ag78
ag79
ag80
ag81
ag446
ag447
ag448
ag137
ag139
ag449
ag450
ag451
ag452
ag453
ag454
ag455
ag456
ag321
ag473
ag474
ag475
ag855
ag477
ag478
ag479
ag480
ag481
ag482
ag483
ag484
ag485
ag486
ag311
ag488
ag489
ag220
ag221
ag222
ag1721
ag684
ag685
ag2689
ag2690
ag721
ag1000
ag579
ag580
ag581
ag582
ag583
ag584
ag585
ag1673
ag1674
ag1136
ag317
ag86
ag590
ag1999
ag753
ag164
ag2691
ag754
ag1063
ag2692
ag356
ag357
ag358
ag359
ag360
ag361
ag362
ag363
ag364
ag508
ag2693
ag509
ag510
ag511
ag771
ag772
ag773
ag369
ag544
ag545
ag207
ag312
ag774
ag775
ag2694
ag354
ag355
ag1090
ag776
ag1300
ag777
ag2695
ag778
ag779
ag780
ag781
ag782
ag783
ag784
ag785
ag786
ag1301
ag787
ag752
ag788
ag789
ag790
ag791
ag792
ag793
ag794
ag186
ag187
ag188
ag724
ag1297
ag1298
ag2696
ag127
ag128
ag606
ag813
ag2086
ag814
ag815
ag816
ag817
ag2697
ag818
ag349
ag819
ag820
ag821
ag822
ag2698
ag823
ag13
ag14
ag176
ag824
ag825
ag826
ag827
ag828
ag2699
ag2700
ag1694
ag1695
ag2415
ag2416
ag2701
ag2702
ag2417
ag1140
ag1141
ag1142
ag1143
ag2036
ag1144
ag1346
ag1347
ag1348
ag1349
ag888
ag331
ag332
ag333
ag334
ag2088
ag2703
ag751
ag2089
ag1208
ag1209
ag2058
ag1410
ag2704
ag2059
ag2705
ag2060
ag2061
ag2706
ag1412
ag1413
ag2707
ag1414
ag1416
ag1417
ag1418
ag2062
ag1419
ag2708
ag1420
ag2063
ag2064
ag1172
ag1173
ag690
ag1276
ag1277
ag2709
ag1421
ag2091
ag2710
ag2092
ag1422
ag795
ag796
ag868
ag869
ag1308
ag2116
ag1423
ag1424
ag2172
ag1425
ag738
ag739
ag740
ag741
ag1066
ag1426
ag1427
ag1428
ag1429
ag2711
ag618
ag619
ag32
ag33
ag206
ag113
ag115
ag116
ag117
ag118
ag226
ag1490
ag1491
ag1492
ag1493
ag1494
ag2044
ag1495
ag1496
ag2045
ag1497
ag2046
ag1498
ag1499
ag2047
ag2048
ag2049
ag1500
ag1501
ag1502
ag1503
ag1504
ag2050
ag2051
ag1505
ag2052
ag2054
ag702
ag703
ag1396
ag1397
ag505
ag506
ag507
ag1042
ag1043
ag1044
ag1045
ag704
ag1363
ag1364
ag2712
ag705
ag2079
ag1390
ag1391
ag1392
ag1393
ag1394
ag1715
ag1716
ag1717
ag1718
ag1719
ag1720
ag2170
ag930
ag931
ag932
ag1722
ag1723
ag1352
ag2220
ag1353
ag1354
ag1724
ag294
ag295
ag296
ag297
ag298
ag299
ag300
ag301
ag302
ag303
ag304
ag305
ag306
ag307
ag308
ag920
ag457
ag458
ag459
ag460
ag461
ag462
ag463
ag464
ag465
ag466
ag2713
ag1264
ag2714
ag1265
ag2447
ag2448
ag2449
ag2450
ag2715
ag747
ag546
ag547
ag748
ag2004
ag2005
ag1452
ag2006
ag1453
ag1936
ag1937
ag2716
ag2717
ag2335
ag2336
ag2337
ag2718
ag1360
ag1361
ag1362
ag2719
ag2720
ag1928
ag1929
ag806
ag2187
ag1369
ag1370
ag1371
ag1372
ag1842
ag1793
ag695
ag2001
ag1342
ag2721
ag144
ag1046
ag146
ag2183
ag612
ag575
ag161
ag162
ag2353
ag2354
ag2355
ag2356
ag2357
ag2358
ag995
ag314
ag315
ag954
ag955
ag956
ag957
ag958
ag959
ag952
ag953
ag960
ag961
ag962
ag963
ag964
ag880
ag2722
ag1924
ag1925
ag1681
ag1682
ag551
ag552
ag2723
ag554
ag2724
ag555
ag556
ag2725
ag2726
ag558
ag559
ag560
ag561
ag562
ag563
ag564
ag565
ag566
ag972
ag112
ag2727
ag198
ag1801
ag2178
ag2179
ag2728
ag2180
ag2729
ag2182
ag322
ag323
ag324
ag325
ag661
ag662
ag663
ag664
ag210
ag870
ag871
ag665
ag666
ag667
ag668
ag669
ag1592
ag2730
ag2122
ag1593
ag2123
ag1594
ag1595
ag1530
ag1531
ag2731
ag1532
ag1533
ag1534
ag1535
ag1536
ag1537
ag1538
ag2732
ag1596
ag39
ag40
ag41
ag44
ag45
ag46
ag999
ag2453
ag2454
ag2455
ag1938
ag2733
ag698
ag699
ag700
ag873
ag875
ag876
ag353
ag878
ag720
ag863
ag879
ag533
ag534
ag535
ag536
ag537
ag538
ag541
ag1064
ag2734
ag1067
ag1068
ag1069
ag1070
ag2735
ag1200
ag2008
ag1201
ag1203
ag1204
ag1206
ag1207
ag839
ag840
ag841
ag2736
ag2456
ag2190
ag2191
ag2019
ag2457
ag2458
ag2737
ag2459
ag2460
ag318
ag170
ag1693
ag147
ag148
ag184
ag605
ag604
ag607
ag608
ag609
ag610
ag611
ag613
ag108
ag109
ag617
ag2461
ag2462
ag1934
ag2738
ag1047
ag1048
ag3
ag87
ag89
ag91
ag94
ag96
ag97
ag98
ag99
ag100
ag101
ag102
ag103
ag105
ag106
ag107
ag19
ag521
ag522
ag339
ag1049
ag2739
ag1050
ag1051
ag1052
ag1054
ag1055
ag1056
ag1057
ag1059
ag1060
ag2740
ag2741
ag709
ag710
ag711
ag1071
ag1072
ag1073
ag1074
ag1075
ag1076
ag1077
ag499
ag500
ag501
ag2742
ag1078
ag1079
ag199
ag1081
ag1083
ag1084
ag1085
ag798
ag1086
ag1087
ag1088
ag1089
ag1091
ag1092
ag1093
ag1094
ag1095
ag1096
ag1097
ag1098
ag1099
ag1100
ag1101
ag1102
ag1103
ag1104
ag1105
ag1106
ag1109
ag1110
ag1111
ag1112
ag1113
ag1114
ag1115
ag1116
ag1119
ag1120
ag1121
ag1122
ag1123
ag1124
ag1125
ag1126
ag1127
ag1128
ag1129
ag143
ag150
ag152
ag153
ag155
ag156
ag157
ag158
ag159
ag160
ag1130
ag1131
ag1133
ag1135
ag1137
ag1138
ag1139
ag1145
ag1150
ag1151
ag111
ag1152
ag1153
ag979
ag980
ag981
ag736
ag1154
ag1155
ag1157
ag2743
ag1158
ag1159
ag1160
ag1161
ag1162
ag1163
ag1164
ag1165
ag1166
ag1167
ag1168
ag1169
ag1170
ag982
ag983
ag984
ag985
ag1174
ag1175
ag1176
ag1177
ag1178
ag1179
ag1180
ag1181
ag1182
ag1183
ag1184
ag2140
ag1185
ag1186
ag1187
ag1188
ag1189
ag1190
ag1191
ag328
ag340
ag341
ag342
ag345
ag347
ag365
ag367
ag1192
ag1193
ag1195
ag1196
ag1197
ag2744
ag1198
ag673
ag213
ag214
ag1778
ag1355
ag1356
ag1357
ag195
ag1989
ag1449
ag1990
ag1450
ag1997
ag1998
ag209
ag696
ag1291
ag1295
ag1296
ag801
ag802
ag803
ag804
ag805
ag1451
ag712
ag713
ag670
ag513
ag516
ag517
ag525
ag528
ag529
ag530
ag531
ag532
ag1454
ag1455
ag1283
ag2017
ag2018
ag1456
ag1457
ag627
ag628
ag1458
ag1279
ag2022
ag1459
ag975
ag1460
ag1461
ag1463
ag1464
ag1465
ag1466
ag1467
ag730
ag731
ag1468
ag1469
ag1470
ag1290
ag1471
ag1472
ag1473
ag1474
ag1400
ag2031
ag1475
ag1476
ag1477
ag1478
ag1479
ag2034
ag2035
ag1480
ag1481
ag1482
ag1278
ag1483
ag1484
ag1485
ag1486
ag1487
ag1488
ag1398
ag1399
ag2042
ag2043
ag1506
ag1507
ag1508
ag1509
ag1510
ag1025
ag1511
ag1512
ag1513
ag1514
ag1515
ag1516
ag1517
ag1518
ag2068
ag1519
ag1520
ag1521
ag1522
ag1523
ag1524
ag675
ag676
ag677
ag1525
ag1526
ag1527
ag915
ag918
ag1395
ag2073
ag1528
ag495
ag1529
ag1539
ag370
ag371
ag373
ag468
ag469
ag471
ag472
ag492
ag132
ag496
ag497
ag498
ag1540
ag1541
ag1542
ag757
ag758
ag759
ag760
ag1543
ag1544
ag1545
ag2077
ag542
ag543
ag1546
ag1547
ag1548
ag1549
ag1550
ag1551
ag1552
ag836
ag657
ag659
ag660
ag742
ag2081
ag743
ag744
ag745
ag746
ag2085
ag1401
ag1402
ag1403
ag1404
ag867
ag1570
ag722
ag723
ag1293
ag1241
ag1571
ag1572
ag1573
ag1574
ag2090
ag1027
ag1028
ag1029
ag1030
ag674
ag842
ag1818
ag1819
ag3024
ag587
ag1659
ag1660
ag3025
ag1661
ag750
ag1662
ag3026
ag1663
ag1664
ag623
ag624
ag625
ag626
ag1605
ag1606
ag1614
ag1615
ag2209
ag1665
ag1666
ag2175
ag1618
ag1667
ag1668
ag1669
ag1670
ag1671
ag1672
ag1645
ag1646
ag1021
ag1382
ag1569
ag2240
ag1870
ag1631
ag1632
ag1633
ag1634
ag1635
ag203
ag576
ag577
ag578
ag1871
ag1872
ag1873
ag1874
ag829
ag830
ag1365
ag1366
ag1367
ag1373
ag1008
ag1597
ag1598
ag1599
ag1600
ag1601
ag1602
ag1603
ag1604
ag1885
ag1789
ag1790
ag1791
ag1220
ag1380
ag1381
ag1384
ag1385
ag1386
ag2747
ag1628
ag1629
ag1630
ag967
ag968
ag969
ag3027
ag1886
ag1887
ag1888
ag1889
ag1890
ag1891
ag1892
ag1001
ag1002
ag1005
ag1006
ag3028
ag1013
ag1014
ag1015
ag1016
ag1018
ag1019
ag1020
ag692
ag1893
ag1894
ag1895
ag1655
ag1656
ag1309
ag1699
ag1768
ag1758
ag1759
ag1760
ag1761
ag1762
ag1763
ag1764
ag1765
ag1766
ag1767
ag1747
ag1748
ag1022
ag1023
ag1024
ag1769
ag1770
ag1771
ag1897
ag3029
ag1898
ag2402
ag2403
ag1899
ag1900
ag1901
ag1902
ag3030
ag1903
ag1904
ag1905
ag1906
ag1907
ag1908
ag3031
ag1909
ag1910
ag1911
ag1912
ag1913
ag1914
ag1915
ag3032
ag1916
ag1858
ag1859
ag1860
ag1861
ag1862
ag3033
ag1863
ag1864
ag1865
ag1866
ag1867
ag1868
ag1869
ag1284
ag1285
ag1286
ag1917
ag1918
ag3034
ag1919
ag1920
ag1921
ag1776
ag1777
ag1922
ag1306
ag1307
ag211
ag212
ag217
ag218
ag219
ag682
ag808
ag809
ag810
ag678
ag679
ag680
ag681
ag686
ag687
ag688
ag1729
ag1730
ag1731
ag1732
ag1733
ag1734
ag1735
ag1736
ag1737
ag1738
ag1726
ag1727
ag1728
ag1739
ag1387
ag1740
ag1741
ag1032
ag1946
ag1947
ag1948
ag2781
ag1358
ag797
ag125
ag126
ag832
ag833
ag3035
ag1779
ag1217
ag1218
ag1219
ag1949
ag1950
ag1951
ag1952
ag1953
ag1954
ag1955
ag1956
ag2842
ag2843
ag3036
ag3037
ag2305
ag2306
ag2307
ag2309
ag2765
ag2310
ag1328
ag1329
ag1330
ag1331
ag1332
ag1333
ag1692
ag1850
ag2164
ag1851
ag1852
ag1853
ag1854
ag1855
ag1856
ag1857
ag3038
ag2149
ag190
ag191
ag200
ag202
ag1811
ag2216
ag715
ag716
ag717
ag718
ag719
ag2446
ag2188
ag2189
ag909
ag1636
ag1637
ag2101
ag2102
ag1553
ag2103
ag1314
ag1315
ag1316
ag1317
ag1318
ag2106
ag2109
ag1561
ag2110
ag2111
ag2112
ag1558
ag923
ag924
ag925
ag928
ag2782
ag2156
ag1752
ag1753
ag1754
ag1755
ag1756
ag3039
ag2158
ag2160
ag2451
ag3040
ag2254
ag2255
ag2256
ag2273
ag2274
ag2452
ag1313
ag1319
ag1321
ag1322
ag1323
ag1324
ag1325
ag1327
ag2750
ag2173
ag2174
ag2339
ag2145
ag309
ag310
ag630
ag631
ag633
ag634
ag635
ag636
ag639
ag641
ag643
ag645
ag646
ag648
ag649
ag650
ag651
ag652
ag653
ag654
ag2471
ag2472
ag2473
ag2474
ag2211
ag2212
ag2213
ag2348
ag2349
ag2350
ag3041
ag1802
ag2351
ag2352
ag1820
ag1821
ag1822
ag1823
ag1824
ag2368
ag2369
ag2370
ag2371
ag1243
ag2475
ag2118
ag2476
ag3042
ag2477
ag2478
ag2479
ag2480
ag1406
ag1408
ag1409
ag2481
ag2482
ag2762
ag2769
ag2483
ag1805
ag1806
ag1876
ag1877
ag1878
ag1879
ag1880
ag1881
ag1882
ag1807
ag1253
ag1254
ag1255
ag1256
ag1257
ag1258
ag1259
ag2436
ag2124
ag2125
ag2419
ag2165
ag2326
ag2327
ag2328
ag1210
ag1211
ag1212
ag1215
ag1221
ag1223
ag1224
ag1225
ag1226
ag1227
ag1228
ag1229
ag1230
ag1231
ag1232
ag1233
ag1234
ag1235
ag1236
ag1238
ag1239
ag1240
ag1245
ag1246
ag1249
ag1250
ag1251
ag1252
ag1261
ag1262
ag1263
ag1266
ag1267
ag1270
ag1271
ag1272
ag1273
ag1274
ag1275
ag1280
ag1287
ag1288
ag1289
ag2152
ag2153
ag1554
ag1555
ag1556
ag1557
ag1559
ag1560
ag1563
ag1564
ag1565
ag1566
ag1567
ag1568
ag977
ag1377
ag885
ag891
ag892
ag895
ag897
ag900
ag903
ag904
ag906
ag912
ag913
ag2376
ag1840
ag1841
ag1923
ag2928
ag2929
ag2151
ag1846
ag1847
ag1848
ag1849
ag1623
ag1624
ag3043
ag1625
ag1626
ag1627
ag133
ag134
ag1931
ag1933
ag1935
ag1292
ag1957
ag1676
ag1677
ag1678
ag2131
ag2133
ag2784
ag2429
ag1696
ag1686
ag1687
ag1688
ag1689
ag1690
ag1691
ag2422
ag2423
ag2424
ag2425
ag2426
ag2427
ag2428
ag2643
ag2644
ag2605
ag735
ag569
ag570
ag571
ag573
ag574
ag1684
ag1685
ag769
ag770
ag2192
ag2193
ag2194
ag1576
ag1577
ag2176
ag973
ag1638
ag1639
ag1640
ag1641
ag1642
ag1643
ag1644
ag1648
ag1649
ag1650
ag620
ag2753
ag3044
ag922
ag1310
ag1311
ag988
ag989
ag990
ag1780
ag1781
ag1782
ag1783
ag3045
ag1784
ag1785
ag3046
ag1786
ag165
ag166
ag167
ag2520
ag2521
ag2522
ag2484
ag2485
ag2486
ag2489
ag2490
ag2491
ag2467
ag2468
ag2492
ag1679
ag379
ag382
ag391
ag392
ag393
ag395
ag2195
ag2196
ag2197
ag2198
ag2199
ag2203
ag2682
ag2683
ag3047
ag1813
ag1814
ag1815
ag1816
ag1817
ag1344
ag1345
ag1620
ag1621
ag1622
ag2250
ag2251
ag1350
ag2252
ag2253
ag2121
ag2243
ag1742
ag1958
ag1959
ag1960
ag1961
ag939
ag940
ag2302
ag2303
ag1303
ag1304
ag2166
ag2930
ag548
ag550
ag594
ag595
ag596
ag598
ag1607
ag1608
ag1609
ag1610
ag1611
ag1612
ag1613
ag1706
ag1707
ag1708
ag2244
ag2245
ag2246
ag2247
ag1389
ag2257
ag2258
ag2259
ag2260
ag2261
ag2262
ag2263
ag1579
ag1580
ag1581
ag1582
ag1583
ag1584
ag1586
ag1587
ag1588
ag1589
ag942
ag943
ag944
ag945
ag946
ag1680
ag2264
ag2265
ag2266
ag2267
ag2268
ag2269
ag2271
ag2272
ag2275
ag2276
ag2277
ag2278
ag2280
ag2281
ag2283
ag2284
ag2285
ag2286
ag2287
ag2288
ag2289
ag2290
ag1808
ag1809
ag1825
ag2291
ag2292
ag2293
ag2294
ag725
ag727
ag728
ag729
ag763
ag764
ag765
ag766
ag767
ag768
ag2295
ag2297
ag2298
ag2299
ag2300
ag2301
ag2304
ag1844
ag1845
ag1751
ag2228
ag2229
ag2311
ag2312
ag2313
ag2314
ag2315
ag2225
ag2316
ag2317
ag2318
ag2319
ag2320
ag2321
ag2322
ag2139
ag2323
ag2324
ag1376
ag1378
ag1379
ag2325
ag2329
ag1775
ag2330
ag2331
ag1772
ag2418
ag1804
ag1926
ag1927
ag1616
ag1617
ag2463
ag2385
ag2386
ag2387
ag2388
ag2389
ag2390
ag2391
ag2237
ag2238
ag2760
ag2464
ag2465
ag2466
ag1575
ag2392
ag2469
ag2470
ag1743
ag1744
ag1745
ag2098
ag2099
ag2234
ag2236
ag2487
ag2488
ag2217
ag2219
ag2338
ag1578
ag1875
ag2493
ag1657
ag2409
ag2410
ag2411
ag2412
ag2494
ag2495
ag2496
ag2497
ag2498
ag2499
ag2500
ag2501
ag2502
ag2503
ag2504
ag2505
ag2506
ag2507
ag1843
ag2127
ag2128
ag2129
ag2437
ag2438
ag2439
ag2440
ag2441
ag2379
ag1787
ag1788
ag2612
ag2613
ag2614
ag2615
ag2616
ag2617
ag2618
ag2619
ag2620
ag1675
ag2544
ag2545
ag2546
ag2547
ag2548
ag2549
ag2550
ag2551
ag2393
ag2394
ag2395
ag2396
ag2397
ag2364
ag2365
ag2398
ag1700
ag1702
ag1703
ag2526
ag2527
ag2528
ag2529
ag1812
ag2532
ag2533
ag2534
ag2535
ag2536
ag2552
ag2553
ag2554
ag2508
ag1658
ag2421
ag2523
ag2524
ag2525
ag2668
ag2603
ag2604
ag2431
ag2432
ag2433
ag2434
ag2435
ag1939
ag1940
ag1941
ag1944
ag1945
ag2669
ag2670
ag2671
ag2210
ag2214
ag2215
ag2135
ag2137
ag2226
ag2227
ag2672
ag2566
ag2567
ag2568
ag2230
ag2231
ag2232
ag2673
ag2840
ag2565
ag2674
ag2570
ag1827
ag1828
ag2662
ag2663
ag2664
ag2811
ag2562
ag2675
ag2592
ag2593
ag2594
ag2595
ag2596
ag2597
ag2598
ag2599
ag1930
ag1794
ag1795
ag1797
ag1798
ag1799
ag1800
ag2577
ag2578
ag2579
ag2580
ag2581
ag2561
ag2584
ag2141
ag2645
ag2646
ag2647
ag2648
ag2686
ag2687
ag2688
ag2854
ag2512
ag2513
ag2826
ag2827
ag2828
ag2829
ag2855
ag2414
ag2650
ag2651
ag2652
ag2653
ag2654
ag2655
ag2656
ag2657
ag2658
ag2659
ag2660
ag2571
ag2572
ag2404
ag2366
ag2367
ag2778
ag2779
ag2780
ag2585
ag2586
ag2587
ag2806
ag2518
ag2519
ag2841
ag2405
ag2406
ag2407
ag2408
ag2883
ag1704
ag1709
ag1710
ag1712
ag1713
ag1714
ag1749
ag1757
ag1773
ag1774
ag2816
ag2817
ag2818
ag2819
ag2820
ag2821
ag2822
ag2678
ag2679
ag2680
ag2681
aVsoften
p3140
ag2377
ag2621
ag2622
ag2623
ag2624
ag2625
ag2626
aVwaive
p3141
aVforgo
p3142
aVforego
p3143
ag2627
ag2896
ag2783
ag2442
ag2443
ag2444
ag2445
ag2925
ag2937
ag2606
ag2588
ag2589
ag2607
ag2922
ag2923
ag2924
ag2332
ag2333
ag2334
ag2340
ag2342
ag2343
ag2344
ag2345
ag2346
ag2359
ag2360
ag2361
ag2362
ag2363
ag2372
ag2373
ag2374
ag2375
ag2380
ag2381
ag2382
ag2383
ag2384
ag2399
ag2805
ag2186
ag2430
ag2130
ag2146
ag2147
ag2148
ag2897
ag2642
ag694
ag2400
ag1430
ag1431
ag2563
ag2917
ag2918
ag2919
ag1653
ag1654
ag2785
ag2786
ag2787
ag2788
ag2808
ag2538
ag2539
ag2540
ag2541
ag2542
ag2600
ag2601
ag2602
ag2809
ag2576
ag2812
ag2813
ag2814
ag2815
ag2830
ag1884
ag2167
ag2168
ag2824
ag2531
ag2573
ag2831
ag2832
ag2833
ag2834
ag2835
ag2836
ag2837
ag2838
ag2509
ag2510
ag2511
ag2514
ag2515
ag2516
ag2517
ag2171
ag2560
ag2839
ag2844
ag2845
ag2846
ag2847
ag2848
ag1829
ag1830
ag1831
ag1833
ag1834
ag1836
ag1837
ag1883
ag2849
ag2850
ag2851
ag2852
ag2853
ag2649
ag2856
ag2857
ag2557
ag2558
ag2559
ag2858
ag2859
ag2860
ag2861
ag2862
ag2863
ag2864
ag2632
ag2865
ag2866
ag2867
ag2868
ag2869
ag2870
ag2871
ag2872
ag2873
ag2874
ag2875
ag2876
ag2877
ag2878
ag2879
ag2880
ag2881
ag2591
ag2543
ag2555
ag2556
ag2569
ag2574
ag2575
ag2582
ag2583
ag2590
ag2628
ag2629
ag2630
ag2631
ag2775
ag2776
ag2676
ag2677
ag2684
ag2685
ag2790
ag2791
ag2792
ag2793
ag2794
ag2795
ag2797
ag2798
ag2799
ag2800
ag2801
ag2802
ag2803
ag2804
ag2909
ag2892
ag2893
ag2894
ag2895
ag2910
ag2911
ag2912
ag2913
ag2914
ag2915
ag2916
ag2633
ag2634
ag2635
ag2636
ag2637
ag2638
ag2639
ag2640
ag2641
ag2993
ag2992
ag2989
ag2665
ag2666
ag2667
ag2944
ag2945
ag2946
ag2947
ag2948
ag2949
ag2950
ag2951
ag2938
ag2931
ag2932
ag2933
ag2934
ag2935
ag2936
ag2898
ag2899
ag2900
ag2901
ag2902
ag2903
ag2904
ag2905
ag2906
ag2907
ag2908
aVjumble
p3144
ag3107
ag3093
ag3094
ag3095
ag3096
ag3097
ag3098
ag3099
ag2964
ag2965
ag2966
ag3052
ag3053
ag3002
ag3003
ag3004
ag3005
ag2971
ag2972
ag2973
ag2974
ag2975
ag2976
ag3014
ag3011
ag3012
ag3013
ag3023
ag2920
ag2921
ag2882
ag2939
ag2940
ag2941
ag3063
ag3064
ag3065
ag3073
ag2983
ag2984
ag2985
ag3062
ag2986
ag2987
ag2988
ag3060
ag2994
ag2995
ag2996
ag2997
ag2998
ag2999
ag3000
ag3001
ag2926
ag2927
ag3104
ag2943
ag3100
ag2890
ag2891
ag3054
ag2982
aVunfasten
p3145
aVunstrain
p3146
aVunlax
p3147
ag3006
ag3007
ag3008
ag3016
ag3017
ag3018
ag3019
ag3020
ag3021
ag3022
ag3057
ag3058
ag3059
ag2990
ag2991
ag2967
ag2968
ag2969
ag2955
ag2956
ag2957
ag2958
ag2959
ag2960
ag2961
ag2962
ag2963
ag2884
ag2885
ag2886
ag2887
ag2888
ag2889
ag3111
ag3112
ag3113
ag3114
ag3115
ag3116
ag3070
ag3071
ag3072
ag3130
ag3131
ag3132
ag3133
ag3091
ag2970
ag3101
ag3102
ag3015
ag3118
ag3119
ag3120
ag3074
aVaward
p3148
ag2978
ag2979
ag2980
ag2981
ag3076
ag3077
ag3078
ag3079
ag3080
ag3081
ag3082
ag3083
ag3084
ag3085
ag3086
ag3087
ag3088
ag3089
ag3125
ag3126
ag2952
ag2953
ag2954
ag3092
ag3066
ag3067
ag3068
ag3069
ag3124
ag3108
ag3109
ag3110
ag3075
ag3009
ag3010
aVoust
p3149
aVnominate
p3150
aVseal
p3151
aVsleep
p3152
aVkip
p3153
aVslumber
p3154
aVbusy
p3155
aVsprinkle
p3156
aVdot
p3157
aVdust
p3158
aVoverlay
p3159
ag3103
ag3127
ag3128
ag3129
aVfuss
p3160
aVniggle
p3161
aVpartition
p3162
ag3121
ag3122
ag3123
ag3117
ag3105
ag3106
aVsuck
p3163
ag3136
ag3137
ag3138
ag3139
aVchew
p3164
aVmasticate
p3165
aVmanducate
p3166
aVexult
p3167
ag3134
ag3135
aVnosh
p3168
aVsnack
p3169
ag47
ag48
ag20
ag21
ag22
ag843
ag402
ag403
ag404
ag405
ag406
ag407
ag408
ag844
ag409
ag410
ag411
ag845
ag336
ag49
ag50
ag51
ag52
ag53
ag54
ag55
ag56
ag57
ag58
ag59
ag7
ag8
ag9
ag60
ag61
ag62
ag65
ag66
ag67
ag68
ag69
ag70
ag71
ag72
ag73
ag25
ag26
ag1312
ag1962
ag1963
ag1964
ag1965
ag1966
ag1967
ag1334
ag1968
ag1335
ag396
ag397
ag398
ag399
ag947
ag400
ag1969
ag27
ag29
ag30
ag1411
ag1970
ag1432
ag1433
ag351
ag352
ag1971
ag1036
ag1037
ag1011
ag223
ag224
ag1972
ag1973
ag1974
ag1216
ag1975
ag732
ag733
ag1976
ag1434
ag1977
ag1978
ag1979
ag1435
ag487
ag599
ag600
ag601
ag1980
ag602
ag603
ag1981
ag970
ag1982
ag971
ag120
ag121
ag122
ag123
ag1436
ag502
ag503
ag504
ag1983
ag5
ag1437
ag1984
ag1438
ag1439
ag1440
ag1441
ag1442
ag181
ag182
ag183
ag240
ag241
ag242
ag243
ag244
ag245
ag1443
ag1444
ag1985
ag1445
ag1986
ag1446
ag1447
ag1448
ag227
ag228
ag83
ag84
ag229
ag230
ag231
ag232
ag233
ag234
ag38
ag237
ag238
ag239
ag247
ag248
ag249
ag250
ag251
ag252
ag253
ag254
ag255
ag256
ag257
ag258
ag259
ag260
ag261
ag262
ag263
ag264
ag265
ag266
ag267
ag268
ag269
ag270
ag271
ag272
ag273
ag274
ag275
ag276
ag277
ag278
ag279
ag280
ag282
ag283
ag284
ag285
ag286
ag287
ag288
ag1987
ag707
ag708
ag1336
ag1337
ag1338
ag1339
ag846
ag412
ag413
ag414
ag415
ag416
ag417
ag135
ag136
ag850
ag419
ag420
ag421
ag289
ag290
ag291
ag85
ag422
ag423
ag424
ag425
ag426
ag427
ag428
ag429
ag430
ag431
ag432
ag434
ag435
ag436
ag437
ag438
ag439
ag440
ag441
ag442
ag383
ag384
ag385
ag443
ag444
ag445
ag853
ag64
ag74
ag76
ag77
ag78
ag79
ag80
ag81
ag446
ag447
ag448
ag137
ag139
ag449
ag450
ag451
ag452
ag453
ag454
ag455
ag456
ag321
ag473
ag474
ag475
ag855
ag477
ag478
ag479
ag480
ag481
ag482
ag483
ag484
ag485
ag486
ag311
ag488
ag489
ag220
ag221
ag222
ag1721
ag684
ag685
ag2689
ag2690
ag721
ag1000
ag579
ag580
ag581
ag582
ag583
ag584
ag585
ag1673
ag1674
ag1136
ag317
ag86
ag590
ag1999
ag753
ag164
ag2691
ag754
ag1063
ag2692
ag356
ag357
ag358
ag359
ag360
ag361
ag362
ag363
ag364
ag508
ag2693
ag509
ag510
ag511
ag771
ag772
ag773
ag369
ag544
ag545
ag207
ag312
ag774
ag775
ag2694
ag354
ag355
ag1090
ag776
ag1300
ag777
ag2695
ag778
ag779
ag780
ag781
ag782
ag783
ag784
ag785
ag786
ag1301
ag787
ag752
ag788
ag789
ag790
ag791
ag792
ag793
ag794
ag186
ag187
ag188
ag724
ag1297
ag1298
ag2696
ag127
ag128
ag606
ag813
ag2086
ag814
ag815
ag816
ag817
ag2697
ag818
ag349
ag819
ag820
ag821
ag822
ag2698
ag823
ag13
ag14
ag176
ag824
ag825
ag826
ag827
ag828
ag2699
ag2700
ag1694
ag1695
ag2415
ag2416
ag2701
ag2702
ag2417
ag1140
ag1141
ag1142
ag1143
ag2036
ag1144
ag1346
ag1347
ag1348
ag1349
ag888
ag331
ag332
ag333
ag334
ag2088
ag2703
ag751
ag2089
ag1208
ag1209
ag2058
ag1410
ag2704
ag2059
ag2705
ag2060
ag2061
ag2706
ag1412
ag1413
ag2707
ag1414
ag1416
ag1417
ag1418
ag2062
ag1419
ag2708
ag1420
ag2063
ag2064
ag1172
ag1173
ag690
ag1276
ag1277
ag2709
ag1421
ag2091
ag2710
ag2092
ag1422
ag795
ag796
ag868
ag869
ag1308
ag2116
ag1423
ag1424
ag2172
ag1425
ag738
ag739
ag740
ag741
ag1066
ag1426
ag1427
ag1428
ag1429
ag2711
ag618
ag619
ag32
ag33
ag206
ag113
ag115
ag116
ag117
ag118
ag226
ag1490
ag1491
ag1492
ag1493
ag1494
ag2044
ag1495
ag1496
ag2045
ag1497
ag2046
ag1498
ag1499
ag2047
ag2048
ag2049
ag1500
ag1501
ag1502
ag1503
ag1504
ag2050
ag2051
ag1505
ag2052
ag2054
ag702
ag703
ag1396
ag1397
ag505
ag506
ag507
ag1042
ag1043
ag1044
ag1045
ag704
ag1363
ag1364
ag2712
ag705
ag2079
ag1390
ag1391
ag1392
ag1393
ag1394
ag1715
ag1716
ag1717
ag1718
ag1719
ag1720
ag2170
ag930
ag931
ag932
ag1722
ag1723
ag1352
ag2220
ag1353
ag1354
ag1724
ag294
ag295
ag296
ag297
ag298
ag299
ag300
ag301
ag302
ag303
ag304
ag305
ag306
ag307
ag308
ag920
ag457
ag458
ag459
ag460
ag461
ag462
ag463
ag464
ag465
ag466
ag2713
ag1264
ag2714
ag1265
ag2447
ag2448
ag2449
ag2450
ag2715
ag747
ag546
ag547
ag748
ag2004
ag2005
ag1452
ag2006
ag1453
ag1936
ag1937
ag2716
ag2717
ag2335
ag2336
ag2337
ag2718
ag1360
ag1361
ag1362
ag2719
ag2720
ag1928
ag1929
ag806
ag2187
ag1369
ag1370
ag1371
ag1372
ag1842
ag1793
ag695
ag2001
ag1342
ag2721
ag144
ag1046
ag146
ag2183
ag612
ag575
ag161
ag162
ag2353
ag2354
ag2355
ag2356
ag2357
ag2358
ag995
ag314
ag315
ag954
ag955
ag956
ag957
ag958
ag959
ag952
ag953
ag960
ag961
ag962
ag963
ag964
ag880
ag2722
ag1924
ag1925
ag1681
ag1682
ag551
ag552
ag2723
ag554
ag2724
ag555
ag556
ag2725
ag2726
ag558
ag559
ag560
ag561
ag562
ag563
ag564
ag565
ag566
ag972
ag112
ag2727
ag198
ag1801
ag2178
ag2179
ag2728
ag2180
ag2729
ag2182
ag322
ag323
ag324
ag325
ag661
ag662
ag663
ag664
ag210
ag870
ag871
ag665
ag666
ag667
ag668
ag669
ag1592
ag2730
ag2122
ag1593
ag2123
ag1594
ag1595
ag1530
ag1531
ag2731
ag1532
ag1533
ag1534
ag1535
ag1536
ag1537
ag1538
ag2732
ag1596
ag39
ag40
ag41
ag44
ag45
ag46
ag999
ag2453
ag2454
ag2455
ag1938
ag2733
ag698
ag699
ag700
ag873
ag875
ag876
ag353
ag878
ag720
ag863
ag879
ag533
ag534
ag535
ag536
ag537
ag538
ag541
ag1064
ag2734
ag1067
ag1068
ag1069
ag1070
ag2735
ag1200
ag2008
ag1201
ag1203
ag1204
ag1206
ag1207
ag839
ag840
ag841
ag2736
ag2456
ag2190
ag2191
ag2019
ag2457
ag2458
ag2737
ag2459
ag2460
ag318
ag170
ag1693
ag147
ag148
ag184
ag605
ag604
ag607
ag608
ag609
ag610
ag611
ag613
ag108
ag109
ag617
ag2461
ag2462
ag1934
ag2738
ag1047
ag1048
ag3
ag87
ag89
ag91
ag94
ag96
ag97
ag98
ag99
ag100
ag101
ag102
ag103
ag105
ag106
ag107
ag19
ag521
ag522
ag339
ag1049
ag2739
ag1050
ag1051
ag1052
ag1054
ag1055
ag1056
ag1057
ag1059
ag1060
ag2740
ag2741
ag709
ag710
ag711
ag1071
ag1072
ag1073
ag1074
ag1075
ag1076
ag1077
ag499
ag500
ag501
ag2742
ag1078
ag1079
ag199
ag1081
ag1083
ag1084
ag1085
ag798
ag1086
ag1087
ag1088
ag1089
ag1091
ag1092
ag1093
ag1094
ag1095
ag1096
ag1097
ag1098
ag1099
ag1100
ag1101
ag1102
ag1103
ag1104
ag1105
ag1106
ag1109
ag1110
ag1111
ag1112
ag1113
ag1114
ag1115
ag1116
ag1119
ag1120
ag1121
ag1122
ag1123
ag1124
ag1125
ag1126
ag1127
ag1128
ag1129
ag143
ag150
ag152
ag153
ag155
ag156
ag157
ag158
ag159
ag160
ag1130
ag1131
ag1133
ag1135
ag1137
ag1138
ag1139
ag1145
ag1150
ag1151
ag111
ag1152
ag1153
ag979
ag980
ag981
ag736
ag1154
ag1155
ag1157
ag2743
ag1158
ag1159
ag1160
ag1161
ag1162
ag1163
ag1164
ag1165
ag1166
ag1167
ag1168
ag1169
ag1170
ag982
ag983
ag984
ag985
ag1174
ag1175
ag1176
ag1177
ag1178
ag1179
ag1180
ag1181
ag1182
ag1183
ag1184
ag2140
ag1185
ag1186
ag1187
ag1188
ag1189
ag1190
ag1191
ag328
ag340
ag341
ag342
ag345
ag347
ag365
ag367
ag1192
ag1193
ag1195
ag1196
ag1197
ag2744
ag1198
ag673
ag213
ag214
ag1778
ag1355
ag1356
ag1357
ag195
ag1989
ag1449
ag1990
ag1450
ag1997
ag1998
ag209
ag696
ag1291
ag1295
ag1296
ag801
ag802
ag803
ag804
ag805
ag1451
ag712
ag713
ag670
ag513
ag516
ag517
ag525
ag528
ag529
ag530
ag531
ag532
ag1454
ag1455
ag1283
ag2017
ag2018
ag1456
ag1457
ag627
ag628
ag1458
ag1279
ag2022
ag1459
ag975
ag1460
ag1461
ag1463
ag1464
ag1465
ag1466
ag1467
ag730
ag731
ag1468
ag1469
ag1470
ag1290
ag1471
ag1472
ag1473
ag1474
ag1400
ag2031
ag1475
ag1476
ag1477
ag1478
ag1479
ag2034
ag2035
ag1480
ag1481
ag1482
ag1278
ag1483
ag1484
ag1485
ag1486
ag1487
ag1488
ag1398
ag1399
ag2042
ag2043
ag1506
ag1507
ag1508
ag1509
ag1510
ag1025
ag1511
ag1512
ag1513
ag1514
ag1515
ag1516
ag1517
ag1518
ag2068
ag1519
ag1520
ag1521
ag1522
ag1523
ag1524
ag675
ag676
ag677
ag1525
ag1526
ag1527
ag915
ag918
ag1395
ag2073
ag1528
ag495
ag1529
ag1539
ag370
ag371
ag373
ag468
ag469
ag471
ag472
ag492
ag132
ag496
ag497
ag498
ag1540
ag1541
ag1542
ag757
ag758
ag759
ag760
ag1543
ag1544
ag1545
ag2077
ag542
ag543
ag1546
ag1547
ag1548
ag1549
ag1550
ag1551
ag1552
ag836
ag657
ag659
ag660
ag742
ag2081
ag743
ag744
ag745
ag746
ag2085
ag1401
ag1402
ag1403
ag1404
ag867
ag1570
ag722
ag723
ag1293
ag1241
ag1571
ag1572
ag1573
ag1574
ag2090
ag1027
ag1028
ag1029
ag1030
ag674
ag842
ag1818
ag1819
ag3024
ag587
ag1659
ag1660
ag3025
ag1661
ag750
ag1662
ag3026
ag1663
ag1664
ag623
ag624
ag625
ag626
ag1605
ag1606
ag1614
ag1615
ag2209
ag1665
ag1666
ag2175
ag1618
ag1667
ag1668
ag1669
ag1670
ag1671
ag1672
ag1645
ag1646
ag1021
ag1382
ag1569
ag2240
ag1870
ag1631
ag1632
ag1633
ag1634
ag1635
ag203
ag576
ag577
ag578
ag1871
ag1872
ag1873
ag1874
ag829
ag830
ag1365
ag1366
ag1367
ag1373
ag1008
ag1597
ag1598
ag1599
ag1600
ag1601
ag1602
ag1603
ag1604
ag1885
ag1789
ag1790
ag1791
ag1220
ag1380
ag1381
ag1384
ag1385
ag1386
ag2747
ag1628
ag1629
ag1630
ag967
ag968
ag969
ag3027
ag1886
ag1887
ag1888
ag1889
ag1890
ag1891
ag1892
ag1001
ag1002
ag1005
ag1006
ag3028
ag1013
ag1014
ag1015
ag1016
ag1018
ag1019
ag1020
ag692
ag1893
ag1894
ag1895
ag1655
ag1656
ag1309
ag1699
ag1768
ag1758
ag1759
ag1760
ag1761
ag1762
ag1763
ag1764
ag1765
ag1766
ag1767
ag1747
ag1748
ag1022
ag1023
ag1024
ag1769
ag1770
ag1771
ag1897
ag3029
ag1898
ag2402
ag2403
ag1899
ag1900
ag1901
ag1902
ag3030
ag1903
ag1904
ag1905
ag1906
ag1907
ag1908
ag3031
ag1909
ag1910
ag1911
ag1912
ag1913
ag1914
ag1915
ag3032
ag1916
ag1858
ag1859
ag1860
ag1861
ag1862
ag3033
ag1863
ag1864
ag1865
ag1866
ag1867
ag1868
ag1869
ag1284
ag1285
ag1286
ag1917
ag1918
ag3034
ag1919
ag1920
ag1921
ag1776
ag1777
ag1922
ag1306
ag1307
ag211
ag212
ag217
ag218
ag219
ag682
ag808
ag809
ag810
ag678
ag679
ag680
ag681
ag686
ag687
ag688
ag1729
ag1730
ag1731
ag1732
ag1733
ag1734
ag1735
ag1736
ag1737
ag1738
ag1726
ag1727
ag1728
ag1739
ag1387
ag1740
ag1741
ag1032
ag1946
ag1947
ag1948
ag2781
ag1358
ag797
ag125
ag126
ag832
ag833
ag3035
ag1779
ag1217
ag1218
ag1219
ag1949
ag1950
ag1951
ag1952
ag1953
ag1954
ag1955
ag1956
ag2842
ag2843
ag3036
ag3037
ag2305
ag2306
ag2307
ag2309
ag2765
ag2310
ag1328
ag1329
ag1330
ag1331
ag1332
ag1333
ag1692
ag1850
ag2164
ag1851
ag1852
ag1853
ag1854
ag1855
ag1856
ag1857
ag3038
ag2149
ag190
ag191
ag200
ag202
ag1811
ag2216
ag715
ag716
ag717
ag718
ag719
ag2446
ag2188
ag2189
ag909
ag1636
ag1637
ag2101
ag2102
ag1553
ag2103
ag1314
ag1315
ag1316
ag1317
ag1318
ag2106
ag2109
ag1561
ag2110
ag2111
ag2112
ag1558
ag923
ag924
ag925
ag928
ag2782
ag2156
ag1752
ag1753
ag1754
ag1755
ag1756
ag3039
ag2158
ag2160
ag2451
ag3040
ag2254
ag2255
ag2256
ag2273
ag2274
ag2452
ag1313
ag1319
ag1321
ag1322
ag1323
ag1324
ag1325
ag1327
ag2750
ag2173
ag2174
ag2339
ag2145
ag309
ag310
ag630
ag631
ag633
ag634
ag635
ag636
ag639
ag641
ag643
ag645
ag646
ag648
ag649
ag650
ag651
ag652
ag653
ag654
ag2471
ag2472
ag2473
ag2474
ag2211
ag2212
ag2213
ag2348
ag2349
ag2350
ag3041
ag1802
ag2351
ag2352
ag1820
ag1821
ag1822
ag1823
ag1824
ag2368
ag2369
ag2370
ag2371
ag1243
ag2475
ag2118
ag2476
ag3042
ag2477
ag2478
ag2479
ag2480
ag1406
ag1408
ag1409
ag2481
ag2482
ag2762
ag2769
ag2483
ag1805
ag1806
ag1876
ag1877
ag1878
ag1879
ag1880
ag1881
ag1882
ag1807
ag1253
ag1254
ag1255
ag1256
ag1257
ag1258
ag1259
ag2436
ag2124
ag2125
ag2419
ag2165
ag2326
ag2327
ag2328
ag1210
ag1211
ag1212
ag1215
ag1221
ag1223
ag1224
ag1225
ag1226
ag1227
ag1228
ag1229
ag1230
ag1231
ag1232
ag1233
ag1234
ag1235
ag1236
ag1238
ag1239
ag1240
ag1245
ag1246
ag1249
ag1250
ag1251
ag1252
ag1261
ag1262
ag1263
ag1266
ag1267
ag1270
ag1271
ag1272
ag1273
ag1274
ag1275
ag1280
ag1287
ag1288
ag1289
ag2152
ag2153
ag1554
ag1555
ag1556
ag1557
ag1559
ag1560
ag1563
ag1564
ag1565
ag1566
ag1567
ag1568
ag977
ag1377
ag885
ag891
ag892
ag895
ag897
ag900
ag903
ag904
ag906
ag912
ag913
ag2376
ag1840
ag1841
ag1923
ag2928
ag2929
ag2151
ag1846
ag1847
ag1848
ag1849
ag1623
ag1624
ag3043
ag1625
ag1626
ag1627
ag133
ag134
ag1931
ag1933
ag1935
ag1292
ag1957
ag1676
ag1677
ag1678
ag2131
ag2133
ag2784
ag2429
ag1696
ag1686
ag1687
ag1688
ag1689
ag1690
ag1691
ag2422
ag2423
ag2424
ag2425
ag2426
ag2427
ag2428
ag2643
ag2644
ag2605
ag735
ag569
ag570
ag571
ag573
ag574
ag1684
ag1685
ag769
ag770
ag2192
ag2193
ag2194
ag1576
ag1577
ag2176
ag973
ag1638
ag1639
ag1640
ag1641
ag1642
ag1643
ag1644
ag1648
ag1649
ag1650
ag620
ag2753
ag3044
ag922
ag1310
ag1311
ag988
ag989
ag990
ag1780
ag1781
ag1782
ag1783
ag3045
ag1784
ag1785
ag3046
ag1786
ag165
ag166
ag167
ag2520
ag2521
ag2522
ag2484
ag2485
ag2486
ag2489
ag2490
ag2491
ag2467
ag2468
ag2492
ag1679
ag379
ag382
ag391
ag392
ag393
ag395
ag2195
ag2196
ag2197
ag2198
ag2199
ag2203
ag2682
ag2683
ag3047
ag1813
ag1814
ag1815
ag1816
ag1817
ag1344
ag1345
ag1620
ag1621
ag1622
ag2250
ag2251
ag1350
ag2252
ag2253
ag2121
ag2243
ag1742
ag1958
ag1959
ag1960
ag1961
ag939
ag940
ag2302
ag2303
ag1303
ag1304
ag2166
ag2930
ag548
ag550
ag594
ag595
ag596
ag598
ag1607
ag1608
ag1609
ag1610
ag1611
ag1612
ag1613
ag1706
ag1707
ag1708
ag2244
ag2245
ag2246
ag2247
ag1389
ag2257
ag2258
ag2259
ag2260
ag2261
ag2262
ag2263
ag1579
ag1580
ag1581
ag1582
ag1583
ag1584
ag1586
ag1587
ag1588
ag1589
ag942
ag943
ag944
ag945
ag946
ag1680
ag2264
ag2265
ag2266
ag2267
ag2268
ag2269
ag2271
ag2272
ag2275
ag2276
ag2277
ag2278
ag2280
ag2281
ag2283
ag2284
ag2285
ag2286
ag2287
ag2288
ag2289
ag2290
ag1808
ag1809
ag1825
ag2291
ag2292
ag2293
ag2294
ag725
ag727
ag728
ag729
ag763
ag764
ag765
ag766
ag767
ag768
ag2295
ag2297
ag2298
ag2299
ag2300
ag2301
ag2304
ag1844
ag1845
ag1751
ag2228
ag2229
ag2311
ag2312
ag2313
ag2314
ag2315
ag2225
ag2316
ag2317
ag2318
ag2319
ag2320
ag2321
ag2322
ag2139
ag2323
ag2324
ag1376
ag1378
ag1379
ag2325
ag2329
ag1775
ag2330
ag2331
ag1772
ag2418
ag1804
ag1926
ag1927
ag1616
ag1617
ag2463
ag2385
ag2386
ag2387
ag2388
ag2389
ag2390
ag2391
ag2237
ag2238
ag2760
ag2464
ag2465
ag2466
ag1575
ag2392
ag2469
ag2470
ag1743
ag1744
ag1745
ag2098
ag2099
ag2234
ag2236
ag2487
ag2488
ag2217
ag2219
ag2338
ag1578
ag1875
ag2493
ag1657
ag2409
ag2410
ag2411
ag2412
ag2494
ag2495
ag2496
ag2497
ag2498
ag2499
ag2500
ag2501
ag2502
ag2503
ag2504
ag2505
ag2506
ag2507
ag1843
ag2127
ag2128
ag2129
ag2437
ag2438
ag2439
ag2440
ag2441
ag2379
ag1787
ag1788
ag2612
ag2613
ag2614
ag2615
ag2616
ag2617
ag2618
ag2619
ag2620
ag1675
ag2544
ag2545
ag2546
ag2547
ag2548
ag2549
ag2550
ag2551
ag2393
ag2394
ag2395
ag2396
ag2397
ag2364
ag2365
ag2398
ag1700
ag1702
ag1703
ag2526
ag2527
ag2528
ag2529
ag1812
ag2532
ag2533
ag2534
ag2535
ag2536
ag2552
ag2553
ag2554
ag2508
ag1658
ag2421
ag2523
ag2524
ag2525
ag2668
ag2603
ag2604
ag2431
ag2432
ag2433
ag2434
ag2435
ag1939
ag1940
ag1941
ag1944
ag1945
ag2669
ag2670
ag2671
ag2210
ag2214
ag2215
ag2135
ag2137
ag2226
ag2227
ag2672
ag2566
ag2567
ag2568
ag2230
ag2231
ag2232
ag2673
ag2840
ag2565
ag2674
ag2570
ag1827
ag1828
ag2662
ag2663
ag2664
ag2811
ag2562
ag2675
ag2592
ag2593
ag2594
ag2595
ag2596
ag2597
ag2598
ag2599
ag1930
ag1794
ag1795
ag1797
ag1798
ag1799
ag1800
ag2577
ag2578
ag2579
ag2580
ag2581
ag2561
ag2584
ag2141
ag2645
ag2646
ag2647
ag2648
ag2686
ag2687
ag2688
ag2854
ag2512
ag2513
ag2826
ag2827
ag2828
ag2829
ag2855
ag2414
ag2650
ag2651
ag2652
ag2653
ag2654
ag2655
ag2656
ag2657
ag2658
ag2659
ag2660
ag2571
ag2572
ag2404
ag2366
ag2367
ag2778
ag2779
ag2780
ag2585
ag2586
ag2587
ag2806
ag2518
ag2519
ag2841
ag2405
ag2406
ag2407
ag2408
ag2883
ag1704
ag1709
ag1710
ag1712
ag1713
ag1714
ag1749
ag1757
ag1773
ag1774
ag2816
ag2817
ag2818
ag2819
ag2820
ag2821
ag2822
ag2678
ag2679
ag2680
ag2681
ag3140
ag2377
ag2621
ag2622
ag2623
ag2624
ag2625
ag2626
ag3141
ag3142
ag3143
ag2627
ag2896
ag2783
ag2442
ag2443
ag2444
ag2445
ag2925
ag2937
ag2606
ag2588
ag2589
ag2607
ag2922
ag2923
ag2924
ag2332
ag2333
ag2334
ag2340
ag2342
ag2343
ag2344
ag2345
ag2346
ag2359
ag2360
ag2361
ag2362
ag2363
ag2372
ag2373
ag2374
ag2375
ag2380
ag2381
ag2382
ag2383
ag2384
ag2399
ag2805
ag2186
ag2430
ag2130
ag2146
ag2147
ag2148
ag2897
ag2642
ag694
ag2400
ag1430
ag1431
ag2563
ag2917
ag2918
ag2919
ag1653
ag1654
ag2785
ag2786
ag2787
ag2788
ag2808
ag2538
ag2539
ag2540
ag2541
ag2542
ag2600
ag2601
ag2602
ag2809
ag2576
ag2812
ag2813
ag2814
ag2815
ag2830
ag1884
ag2167
ag2168
ag2824
ag2531
ag2573
ag2831
ag2832
ag2833
ag2834
ag2835
ag2836
ag2837
ag2838
ag2509
ag2510
ag2511
ag2514
ag2515
ag2516
ag2517
ag2171
ag2560
ag2839
ag2844
ag2845
ag2846
ag2847
ag2848
ag1829
ag1830
ag1831
ag1833
ag1834
ag1836
ag1837
ag1883
ag2849
ag2850
ag2851
ag2852
ag2853
ag2649
ag2856
ag2857
ag2557
ag2558
ag2559
ag2858
ag2859
ag2860
ag2861
ag2862
ag2863
ag2864
ag2632
ag2865
ag2866
ag2867
ag2868
ag2869
ag2870
ag2871
ag2872
ag2873
ag2874
ag2875
ag2876
ag2877
ag2878
ag2879
ag2880
ag2881
ag2591
ag2931
ag2932
ag3050
ag2933
ag2934
ag2935
ag2936
ag2898
ag2899
ag2900
ag2901
ag2902
ag2903
ag2904
ag2905
ag2906
ag2907
ag2908
ag2555
ag2628
ag2629
ag2630
ag2582
ag2583
ag2775
ag2776
ag2938
ag2910
ag2911
ag2912
ag2913
ag2994
ag2995
ag2996
ag2997
ag2998
ag2999
ag3000
ag2955
ag2956
ag2957
ag2958
ag2959
ag2960
ag2961
ag2962
ag2963
ag2569
ag2950
ag2951
ag2543
ag2914
ag2915
ag2916
ag3015
ag2990
ag2991
ag2920
ag2921
ag2684
ag2685
ag2971
ag2972
ag2973
ag2974
ag2975
ag2976
ag2970
ag2631
ag2676
ag2677
ag2982
ag3011
ag3012
ag3013
ag3023
ag2977
ag2635
ag2939
ag2940
ag2941
ag3063
ag3064
ag3065
ag3073
ag3014
ag2909
ag2892
ag2893
ag2894
ag2895
ag3052
ag3053
ag2944
ag2945
ag2946
ag2947
ag2948
ag2949
ag3091
ag2574
ag2575
ag2590
ag3060
ag3001
ag2993
ag2926
ag2927
ag3104
ag2992
ag2989
ag2882
ag2884
ag2885
ag2886
ag2887
ag2888
ag2889
ag2890
ag2891
ag2790
ag2791
ag2792
ag2793
ag2794
ag2795
ag2797
ag2798
ag2799
ag2800
ag2801
ag2802
ag2803
ag2804
ag3101
ag3102
ag3054
ag2665
ag2666
ag2667
ag2942
ag2943
ag2636
ag2637
ag2638
ag3066
ag3067
ag3068
ag3069
ag3070
ag3071
ag3072
ag2634
ag2639
ag2640
ag2641
ag2967
ag2968
ag2969
ag3074
ag3075
ag3076
ag3077
ag3078
ag3079
ag3080
ag3081
ag3082
ag3083
ag3084
ag3085
ag3086
ag3087
ag3088
ag3089
ag3090
ag2952
ag2953
ag2954
ag2964
ag2965
ag2966
ag2978
ag2979
ag2980
ag2981
ag2983
ag2984
ag2985
ag2986
ag2987
ag2988
ag3002
ag3003
ag3004
ag3005
ag3016
ag3017
ag3018
ag3019
ag3020
ag3021
ag3022
ag3057
ag3058
ag3059
ag3100
ag3006
ag3007
ag3008
ag3009
ag3010
ag3125
ag3126
ag3111
ag3112
ag3113
ag3114
ag3115
ag3116
ag3107
ag3093
ag3094
ag3095
ag3096
ag3097
ag3098
ag3099
ag3160
ag3161
ag3162
ag3145
ag3146
ag3147
ag3130
ag3131
ag3132
ag3133
ag3121
ag3122
ag3123
ag3103
ag3124
ag3108
ag3109
ag3110
ag3148
ag3127
ag3128
ag3129
ag3105
ag3106
ag3134
ag3135
ag3118
ag3119
ag3120
ag3092
ag3164
ag3165
ag3166
ag3167
ag3150
ag3151
ag3152
ag3153
ag3154
ag3155
ag3156
ag3157
ag3158
ag3159
ag3117
ag3163
ag3149
ag3136
ag3137
ag3138
ag3139
aVsmudge
p3170
aVsmutch
p3171
ag3168
ag3169
aVknead
p3172
ag47
ag48
ag20
ag21
ag22
ag843
ag402
ag403
ag404
ag405
ag406
ag407
ag408
ag844
ag409
ag410
ag411
ag845
ag336
ag49
ag50
ag51
ag52
ag53
ag54
ag55
ag56
ag57
ag58
ag59
ag7
ag8
ag9
ag60
ag61
ag62
ag65
ag66
ag67
ag68
ag69
ag70
ag71
ag72
ag73
ag25
ag26
ag1312
ag1962
ag1963
ag1964
ag1965
ag1966
ag1967
ag1334
ag1968
ag1335
ag396
ag397
ag398
ag399
ag947
ag400
ag1969
ag27
ag29
ag30
ag1411
ag1970
ag1432
ag1433
ag351
ag352
ag1971
ag1036
ag1037
ag1011
ag223
ag224
ag1972
ag1973
ag1974
ag1216
ag1975
ag732
ag733
ag1976
ag1434
ag1977
ag1978
ag1979
ag1435
ag487
ag599
ag600
ag601
ag1980
ag602
ag603
ag1981
ag970
ag1982
ag971
ag120
ag121
ag122
ag123
ag1436
ag502
ag503
ag504
ag1983
ag5
ag1437
ag1984
ag1438
ag1439
ag1440
ag1441
ag1442
ag181
ag182
ag183
ag240
ag241
ag242
ag243
ag244
ag245
ag1443
ag1444
ag1985
ag1445
ag1986
ag1446
ag1447
ag1448
ag227
ag228
ag83
ag84
ag229
ag230
ag231
ag232
ag233
ag234
ag38
ag237
ag238
ag239
ag247
ag248
ag249
ag250
ag251
ag252
ag253
ag254
ag255
ag256
ag257
ag258
ag259
ag260
ag261
ag262
ag263
ag264
ag265
ag266
ag267
ag268
ag269
ag270
ag271
ag272
ag273
ag274
ag275
ag276
ag277
ag278
ag279
ag280
ag282
ag283
ag284
ag285
ag286
ag287
ag288
ag1987
ag707
ag708
ag1336
ag1337
ag1338
ag1339
ag846
ag412
ag413
ag414
ag415
ag416
ag417
ag135
ag136
ag850
ag419
ag420
ag421
ag289
ag290
ag291
ag85
ag422
ag423
ag424
ag425
ag426
ag427
ag428
ag429
ag430
ag431
ag432
ag434
ag435
ag436
ag437
ag438
ag439
ag440
ag441
ag442
ag383
ag384
ag385
ag443
ag444
ag445
ag853
ag64
ag74
ag76
ag77
ag78
ag79
ag80
ag81
ag446
ag447
ag448
ag137
ag139
ag449
ag450
ag451
ag452
ag453
ag454
ag455
ag456
ag321
ag473
ag474
ag475
ag855
ag477
ag478
ag479
ag480
ag481
ag482
ag483
ag484
ag485
ag486
ag311
ag488
ag489
ag220
ag221
ag222
ag1721
ag684
ag685
ag2689
ag2690
ag721
ag1000
ag579
ag580
ag581
ag582
ag583
ag584
ag585
ag1673
ag1674
ag1136
ag317
ag86
ag590
ag1999
ag753
ag164
ag2691
ag754
ag1063
ag2692
ag356
ag357
ag358
ag359
ag360
ag361
ag362
ag363
ag364
ag508
ag2693
ag509
ag510
ag511
ag771
ag772
ag773
ag369
ag544
ag545
ag207
ag312
ag774
ag775
ag2694
ag354
ag355
ag1090
ag776
ag1300
ag777
ag2695
ag778
ag779
ag780
ag781
ag782
ag783
ag784
ag785
ag786
ag1301
ag787
ag752
ag788
ag789
ag790
ag791
ag792
ag793
ag794
ag186
ag187
ag188
ag724
ag1297
ag1298
ag2696
ag127
ag128
ag606
ag813
ag2086
ag814
ag815
ag816
ag817
ag2697
ag818
ag349
ag819
ag820
ag821
ag822
ag2698
ag823
ag13
ag14
ag176
ag824
ag825
ag826
ag827
ag828
ag2699
ag2700
ag1694
ag1695
ag2415
ag2416
ag2701
ag2702
ag2417
ag1140
ag1141
ag1142
ag1143
ag2036
ag1144
ag1346
ag1347
ag1348
ag1349
ag888
ag331
ag332
ag333
ag334
ag2088
ag2703
ag751
ag2089
ag1208
ag1209
ag2058
ag1410
ag2704
ag2059
ag2705
ag2060
ag2061
ag2706
ag1412
ag1413
ag2707
ag1414
ag1416
ag1417
ag1418
ag2062
ag1419
ag2708
ag1420
ag2063
ag2064
ag1172
ag1173
ag690
ag1276
ag1277
ag2709
ag1421
ag2091
ag2710
ag2092
ag1422
ag795
ag796
ag868
ag869
ag1308
ag2116
ag1423
ag1424
ag2172
ag1425
ag738
ag739
ag740
ag741
ag1066
ag1426
ag1427
ag1428
ag1429
ag2711
ag618
ag619
ag32
ag33
ag206
ag113
ag115
ag116
ag117
ag118
ag226
ag1490
ag1491
ag1492
ag1493
ag1494
ag2044
ag1495
ag1496
ag2045
ag1497
ag2046
ag1498
ag1499
ag2047
ag2048
ag2049
ag1500
ag1501
ag1502
ag1503
ag1504
ag2050
ag2051
ag1505
ag2052
ag2054
ag702
ag703
ag1396
ag1397
ag505
ag506
ag507
ag1042
ag1043
ag1044
ag1045
ag704
ag1363
ag1364
ag2712
ag705
ag2079
ag1390
ag1391
ag1392
ag1393
ag1394
ag1715
ag1716
ag1717
ag1718
ag1719
ag1720
ag2170
ag930
ag931
ag932
ag1722
ag1723
ag1352
ag2220
ag1353
ag1354
ag1724
ag294
ag295
ag296
ag297
ag298
ag299
ag300
ag301
ag302
ag303
ag304
ag305
ag306
ag307
ag308
ag920
ag457
ag458
ag459
ag460
ag461
ag462
ag463
ag464
ag465
ag466
ag2713
ag1264
ag2714
ag1265
ag2447
ag2448
ag2449
ag2450
ag2715
ag747
ag546
ag547
ag748
ag2004
ag2005
ag1452
ag2006
ag1453
ag1936
ag1937
ag2716
ag2717
ag2335
ag2336
ag2337
ag2718
ag1360
ag1361
ag1362
ag2719
ag2720
ag1928
ag1929
ag806
ag2187
ag1369
ag1370
ag1371
ag1372
ag1842
ag1793
ag695
ag2001
ag1342
ag2721
ag144
ag1046
ag146
ag2183
ag612
ag575
ag161
ag162
ag2353
ag2354
ag2355
ag2356
ag2357
ag2358
ag995
ag314
ag315
ag954
ag955
ag956
ag957
ag958
ag959
ag952
ag953
ag960
ag961
ag962
ag963
ag964
ag880
ag2722
ag1924
ag1925
ag1681
ag1682
ag551
ag552
ag2723
ag554
ag2724
ag555
ag556
ag2725
ag2726
ag558
ag559
ag560
ag561
ag562
ag563
ag564
ag565
ag566
ag972
ag112
ag2727
ag198
ag1801
ag2178
ag2179
ag2728
ag2180
ag2729
ag2182
ag322
ag323
ag324
ag325
ag661
ag662
ag663
ag664
ag210
ag870
ag871
ag665
ag666
ag667
ag668
ag669
ag1592
ag2730
ag2122
ag1593
ag2123
ag1594
ag1595
ag1530
ag1531
ag2731
ag1532
ag1533
ag1534
ag1535
ag1536
ag1537
ag1538
ag2732
ag1596
ag39
ag40
ag41
ag44
ag45
ag46
ag999
ag2453
ag2454
ag2455
ag1938
ag2733
ag698
ag699
ag700
ag873
ag875
ag876
ag353
ag878
ag720
ag863
ag879
ag533
ag534
ag535
ag536
ag537
ag538
ag541
ag1064
ag2734
ag1067
ag1068
ag1069
ag1070
ag2735
ag1200
ag2008
ag1201
ag1203
ag1204
ag1206
ag1207
ag839
ag840
ag841
ag2736
ag2456
ag2190
ag2191
ag2019
ag2457
ag2458
ag2737
ag2459
ag2460
ag318
ag170
ag1693
ag147
ag148
ag184
ag605
ag604
ag607
ag608
ag609
ag610
ag611
ag613
ag108
ag109
ag617
ag2461
ag2462
ag1934
ag2738
ag1047
ag1048
ag3
ag87
ag89
ag91
ag94
ag96
ag97
ag98
ag99
ag100
ag101
ag102
ag103
ag105
ag106
ag107
ag19
ag521
ag522
ag339
ag1049
ag2739
ag1050
ag1051
ag1052
ag1054
ag1055
ag1056
ag1057
ag1059
ag1060
ag2740
ag2741
ag709
ag710
ag711
ag1071
ag1072
ag1073
ag1074
ag1075
ag1076
ag1077
ag499
ag500
ag501
ag2742
ag1078
ag1079
ag199
ag1081
ag1083
ag1084
ag1085
ag798
ag1086
ag1087
ag1088
ag1089
ag1091
ag1092
ag1093
ag1094
ag1095
ag1096
ag1097
ag1098
ag1099
ag1100
ag1101
ag1102
ag1103
ag1104
ag1105
ag1106
ag1109
ag1110
ag1111
ag1112
ag1113
ag1114
ag1115
ag1116
ag1119
ag1120
ag1121
ag1122
ag1123
ag1124
ag1125
ag1126
ag1127
ag1128
ag1129
ag143
ag150
ag152
ag153
ag155
ag156
ag157
ag158
ag159
ag160
ag1130
ag1131
ag1133
ag1135
ag1137
ag1138
ag1139
ag1145
ag1150
ag1151
ag111
ag1152
ag1153
ag979
ag980
ag981
ag736
ag1154
ag1155
ag1157
ag2743
ag1158
ag1159
ag1160
ag1161
ag1162
ag1163
ag1164
ag1165
ag1166
ag1167
ag1168
ag1169
ag1170
ag982
ag983
ag984
ag985
ag1174
ag1175
ag1176
ag1177
ag1178
ag1179
ag1180
ag1181
ag1182
ag1183
ag1184
ag2140
ag1185
ag1186
ag1187
ag1188
ag1189
ag1190
ag1191
ag328
ag340
ag341
ag342
ag345
ag347
ag365
ag367
ag1192
ag1193
ag1195
ag1196
ag1197
ag2744
ag1198
ag673
ag213
ag214
ag1778
ag1355
ag1356
ag1357
ag195
ag1989
ag1449
ag1990
ag1450
ag1997
ag1998
ag209
ag696
ag1291
ag1295
ag1296
ag801
ag802
ag803
ag804
ag805
ag1451
ag712
ag713
ag670
ag513
ag516
ag517
ag525
ag528
ag529
ag530
ag531
ag532
ag1454
ag1455
ag1283
ag2017
ag2018
ag1456
ag1457
ag627
ag628
ag1458
ag1279
ag2022
ag1459
ag975
ag1460
ag1461
ag1463
ag1464
ag1465
ag1466
ag1467
ag730
ag731
ag1468
ag1469
ag1470
ag1290
ag1471
ag1472
ag1473
ag1474
ag1400
ag2031
ag1475
ag1476
ag1477
ag1478
ag1479
ag2034
ag2035
ag1480
ag1481
ag1482
ag1278
ag1483
ag1484
ag1485
ag1486
ag1487
ag1488
ag1398
ag1399
ag2042
ag2043
ag1506
ag1507
ag1508
ag1509
ag1510
ag1025
ag1511
ag1512
ag1513
ag1514
ag1515
ag1516
ag1517
ag1518
ag2068
ag1519
ag1520
ag1521
ag1522
ag1523
ag1524
ag675
ag676
ag677
ag1525
ag1526
ag1527
ag915
ag918
ag1395
ag2073
ag1528
ag495
ag1529
ag1539
ag370
ag371
ag373
ag468
ag469
ag471
ag472
ag492
ag132
ag496
ag497
ag498
ag1540
ag1541
ag1542
ag757
ag758
ag759
ag760
ag1543
ag1544
ag1545
ag2077
ag542
ag543
ag1546
ag1547
ag1548
ag1549
ag1550
ag1551
ag1552
ag836
ag657
ag659
ag660
ag742
ag2081
ag743
ag744
ag745
ag746
ag2085
ag1401
ag1402
ag1403
ag1404
ag867
ag1570
ag722
ag723
ag1293
ag1241
ag1571
ag1572
ag1573
ag1574
ag2090
ag1027
ag1028
ag1029
ag1030
ag674
ag842
ag1818
ag1819
ag3024
ag587
ag1659
ag1660
ag3025
ag1661
ag750
ag1662
ag3026
ag1663
ag1664
ag623
ag624
ag625
ag626
ag1605
ag1606
ag1614
ag1615
ag2209
ag1665
ag1666
ag2175
ag1618
ag1667
ag1668
ag1669
ag1670
ag1671
ag1672
ag1645
ag1646
ag1021
ag1382
ag1569
ag2240
ag1870
ag1631
ag1632
ag1633
ag1634
ag1635
ag203
ag576
ag577
ag578
ag1871
ag1872
ag1873
ag1874
ag829
ag830
ag1365
ag1366
ag1367
ag1373
ag1008
ag1597
ag1598
ag1599
ag1600
ag1601
ag1602
ag1603
ag1604
ag1885
ag1789
ag1790
ag1791
ag1220
ag1380
ag1381
ag1384
ag1385
ag1386
ag2747
ag1628
ag1629
ag1630
ag967
ag968
ag969
ag3027
ag1886
ag1887
ag1888
ag1889
ag1890
ag1891
ag1892
ag1001
ag1002
ag1005
ag1006
ag3028
ag1013
ag1014
ag1015
ag1016
ag1018
ag1019
ag1020
ag692
ag1893
ag1894
ag1895
ag1655
ag1656
ag1309
ag1699
ag1768
ag1758
ag1759
ag1760
ag1761
ag1762
ag1763
ag1764
ag1765
ag1766
ag1767
ag1747
ag1748
ag1022
ag1023
ag1024
ag1769
ag1770
ag1771
ag1897
ag3029
ag1898
ag2402
ag2403
ag1899
ag1900
ag1901
ag1902
ag3030
ag1903
ag1904
ag1905
ag1906
ag1907
ag1908
ag3031
ag1909
ag1910
ag1911
ag1912
ag1913
ag1914
ag1915
ag3032
ag1916
ag1858
ag1859
ag1860
ag1861
ag1862
ag3033
ag1863
ag1864
ag1865
ag1866
ag1867
ag1868
ag1869
ag1284
ag1285
ag1286
ag1917
ag1918
ag3034
ag1919
ag1920
ag1921
ag1776
ag1777
ag1922
ag1306
ag1307
ag211
ag212
ag217
ag218
ag219
ag682
ag808
ag809
ag810
ag678
ag679
ag680
ag681
ag686
ag687
ag688
ag1729
ag1730
ag1731
ag1732
ag1733
ag1734
ag1735
ag1736
ag1737
ag1738
ag1726
ag1727
ag1728
ag1739
ag1387
ag1740
ag1741
ag1032
ag1946
ag1947
ag1948
ag2781
ag1358
ag797
ag125
ag126
ag832
ag833
ag3035
ag1779
ag1217
ag1218
ag1219
ag1949
ag1950
ag1951
ag1952
ag1953
ag1954
ag1955
ag1956
ag2842
ag2843
ag3036
ag3037
ag2305
ag2306
ag2307
ag2309
ag2765
ag2310
ag1328
ag1329
ag1330
ag1331
ag1332
ag1333
ag1692
ag1850
ag2164
ag1851
ag1852
ag1853
ag1854
ag1855
ag1856
ag1857
ag3038
ag2149
ag190
ag191
ag200
ag202
ag1811
ag2216
ag715
ag716
ag717
ag718
ag719
ag2446
ag2188
ag2189
ag909
ag1636
ag1637
ag2101
ag2102
ag1553
ag2103
ag1314
ag1315
ag1316
ag1317
ag1318
ag2106
ag2109
ag1561
ag2110
ag2111
ag2112
ag1558
ag923
ag924
ag925
ag928
ag2782
ag2156
ag1752
ag1753
ag1754
ag1755
ag1756
ag3039
ag2158
ag2160
ag2451
ag3040
ag2254
ag2255
ag2256
ag2273
ag2274
ag2452
ag1313
ag1319
ag1321
ag1322
ag1323
ag1324
ag1325
ag1327
ag2750
ag2173
ag2174
ag2339
ag2145
ag309
ag310
ag630
ag631
ag633
ag634
ag635
ag636
ag639
ag641
ag643
ag645
ag646
ag648
ag649
ag650
ag651
ag652
ag653
ag654
ag2471
ag2472
ag2473
ag2474
ag2211
ag2212
ag2213
ag2348
ag2349
ag2350
ag3041
ag1802
ag2351
ag2352
ag1820
ag1821
ag1822
ag1823
ag1824
ag2368
ag2369
ag2370
ag2371
ag1243
ag2475
ag2118
ag2476
ag3042
ag2477
ag2478
ag2479
ag2480
ag1406
ag1408
ag1409
ag2481
ag2482
ag2762
ag2769
ag2483
ag1805
ag1806
ag1876
ag1877
ag1878
ag1879
ag1880
ag1881
ag1882
ag1807
ag1253
ag1254
ag1255
ag1256
ag1257
ag1258
ag1259
ag2436
ag2124
ag2125
ag2419
ag2165
ag2326
ag2327
ag2328
ag1210
ag1211
ag1212
ag1215
ag1221
ag1223
ag1224
ag1225
ag1226
ag1227
ag1228
ag1229
ag1230
ag1231
ag1232
ag1233
ag1234
ag1235
ag1236
ag1238
ag1239
ag1240
ag1245
ag1246
ag1249
ag1250
ag1251
ag1252
ag1261
ag1262
ag1263
ag1266
ag1267
ag1270
ag1271
ag1272
ag1273
ag1274
ag1275
ag1280
ag1287
ag1288
ag1289
ag2152
ag2153
ag1554
ag1555
ag1556
ag1557
ag1559
ag1560
ag1563
ag1564
ag1565
ag1566
ag1567
ag1568
ag977
ag1377
ag885
ag891
ag892
ag895
ag897
ag900
ag903
ag904
ag906
ag912
ag913
ag2376
ag1840
ag1841
ag1923
ag2928
ag2929
ag2151
ag1846
ag1847
ag1848
ag1849
ag1623
ag1624
ag3043
ag1625
ag1626
ag1627
ag133
ag134
ag1931
ag1933
ag1935
ag1292
ag1957
ag1676
ag1677
ag1678
ag2131
ag2133
ag2784
ag2429
ag1696
ag1686
ag1687
ag1688
ag1689
ag1690
ag1691
ag2422
ag2423
ag2424
ag2425
ag2426
ag2427
ag2428
ag2643
ag2644
ag2605
ag735
ag569
ag570
ag571
ag573
ag574
ag1684
ag1685
ag769
ag770
ag2192
ag2193
ag2194
ag1576
ag1577
ag2176
ag973
ag1638
ag1639
ag1640
ag1641
ag1642
ag1643
ag1644
ag1648
ag1649
ag1650
ag620
ag2753
ag3044
ag922
ag1310
ag1311
ag988
ag989
ag990
ag1780
ag1781
ag1782
ag1783
ag3045
ag1784
ag1785
ag3046
ag1786
ag165
ag166
ag167
ag2520
ag2521
ag2522
ag2484
ag2485
ag2486
ag2489
ag2490
ag2491
ag2467
ag2468
ag2492
ag1679
ag379
ag382
ag391
ag392
ag393
ag395
ag2195
ag2196
ag2197
ag2198
ag2199
ag2203
ag2682
ag2683
ag3047
ag1813
ag1814
ag1815
ag1816
ag1817
ag1344
ag1345
ag1620
ag1621
ag1622
ag2250
ag2251
ag1350
ag2252
ag2253
ag2121
ag2243
ag1742
ag1958
ag1959
ag1960
ag1961
ag939
ag940
ag2302
ag2303
ag1303
ag1304
ag2166
ag2930
ag548
ag550
ag594
ag595
ag596
ag598
ag1607
ag1608
ag1609
ag1610
ag1611
ag1612
ag1613
ag1706
ag1707
ag1708
ag2244
ag2245
ag2246
ag2247
ag1389
ag2257
ag2258
ag2259
ag2260
ag2261
ag2262
ag2263
ag1579
ag1580
ag1581
ag1582
ag1583
ag1584
ag1586
ag1587
ag1588
ag1589
ag942
ag943
ag944
ag945
ag946
ag1680
ag2264
ag2265
ag2266
ag2267
ag2268
ag2269
ag2271
ag2272
ag2275
ag2276
ag2277
ag2278
ag2280
ag2281
ag2283
ag2284
ag2285
ag2286
ag2287
ag2288
ag2289
ag2290
ag1808
ag1809
ag1825
ag2291
ag2292
ag2293
ag2294
ag725
ag727
ag728
ag729
ag763
ag764
ag765
ag766
ag767
ag768
ag2295
ag2297
ag2298
ag2299
ag2300
ag2301
ag2304
ag1844
ag1845
ag1751
ag2228
ag2229
ag2311
ag2312
ag2313
ag2314
ag2315
ag2225
ag2316
ag2317
ag2318
ag2319
ag2320
ag2321
ag2322
ag2139
ag2323
ag2324
ag1376
ag1378
ag1379
ag2325
ag2329
ag1775
ag2330
ag2331
ag1772
ag2418
ag1804
ag1926
ag1927
ag1616
ag1617
ag2463
ag2385
ag2386
ag2387
ag2388
ag2389
ag2390
ag2391
ag2237
ag2238
ag2760
ag2464
ag2465
ag2466
ag1575
ag2392
ag2469
ag2470
ag1743
ag1744
ag1745
ag2098
ag2099
ag2234
ag2236
ag2487
ag2488
ag2217
ag2219
ag2338
ag1578
ag1875
ag2493
ag1657
ag2409
ag2410
ag2411
ag2412
ag2494
ag2495
ag2496
ag2497
ag2498
ag2499
ag2500
ag2501
ag2502
ag2503
ag2504
ag2505
ag2506
ag2507
ag1843
ag2127
ag2128
ag2129
ag2437
ag2438
ag2439
ag2440
ag2441
ag2379
ag1787
ag1788
ag2612
ag2613
ag2614
ag2615
ag2616
ag2617
ag2618
ag2619
ag2620
ag1675
ag2544
ag2545
ag2546
ag2547
ag2548
ag2549
ag2550
ag2551
ag2393
ag2394
ag2395
ag2396
ag2397
ag2364
ag2365
ag2398
ag1700
ag1702
ag1703
ag2526
ag2527
ag2528
ag2529
ag1812
ag2532
ag2533
ag2534
ag2535
ag2536
ag2552
ag2553
ag2554
ag2508
ag1658
ag2421
ag2523
ag2524
ag2525
ag2668
ag2603
ag2604
ag2431
ag2432
ag2433
ag2434
ag2435
ag1939
ag1940
ag1941
ag1944
ag1945
ag2669
ag2670
ag2671
ag2210
ag2214
ag2215
ag2135
ag2137
ag2226
ag2227
ag2672
ag2566
ag2567
ag2568
ag2230
ag2231
ag2232
ag2673
ag2840
ag2565
ag2674
ag2570
ag1827
ag1828
ag2662
ag2663
ag2664
ag2811
ag2562
ag2675
ag2592
ag2593
ag2594
ag2595
ag2596
ag2597
ag2598
ag2599
ag1930
ag1794
ag1795
ag1797
ag1798
ag1799
ag1800
ag2577
ag2578
ag2579
ag2580
ag2581
ag2561
ag2584
ag2141
ag2645
ag2646
ag2647
ag2648
ag2686
ag2687
ag2688
ag2854
ag2512
ag2513
ag2826
ag2827
ag2828
ag2829
ag2855
ag2414
ag2650
ag2651
ag2652
ag2653
ag2654
ag2655
ag2656
ag2657
ag2658
ag2659
ag2660
ag2571
ag2572
ag2404
ag2366
ag2367
ag2778
ag2779
ag2780
ag2585
ag2586
ag2587
ag2806
ag2518
ag2519
ag2841
ag2405
ag2406
ag2407
ag2408
ag2883
ag1704
ag1709
ag1710
ag1712
ag1713
ag1714
ag1749
ag1757
ag1773
ag1774
ag2816
ag2817
ag2818
ag2819
ag2820
ag2821
ag2822
ag2678
ag2679
ag2680
ag2681
ag3140
ag2377
ag2621
ag2622
ag2623
ag2624
ag2625
ag2626
ag3141
ag3142
ag3143
ag2627
ag2896
ag2783
ag2442
ag2443
ag2444
ag2445
ag2925
ag2937
ag2606
ag2588
ag2589
ag2607
ag2922
ag2923
ag2924
ag2332
ag2333
ag2334
ag2340
ag2342
ag2343
ag2344
ag2345
ag2346
ag2359
ag2360
ag2361
ag2362
ag2363
ag2372
ag2373
ag2374
ag2375
ag2380
ag2381
ag2382
ag2383
ag2384
ag2399
ag2805
ag2186
ag2430
ag2130
ag2146
ag2147
ag2148
ag2897
ag2642
ag694
ag2400
ag1430
ag1431
ag2563
ag2917
ag2918
ag2919
ag1653
ag1654
ag2785
ag2786
ag2787
ag2788
ag2808
ag2538
ag2539
ag2540
ag2541
ag2542
ag2600
ag2601
ag2602
ag2809
ag2576
ag2812
ag2813
ag2814
ag2815
ag2830
ag1884
ag2167
ag2168
ag2824
ag2531
ag2573
ag2831
ag2832
ag2833
ag2834
ag2835
ag2836
ag2837
ag2838
ag2509
ag2510
ag2511
ag2514
ag2515
ag2516
ag2517
ag2171
ag2560
ag2839
ag2844
ag2845
ag2846
ag2847
ag2848
ag1829
ag1830
ag1831
ag1833
ag1834
ag1836
ag1837
ag1883
ag2849
ag2850
ag2851
ag2852
ag2853
ag2649
ag2856
ag2857
ag2557
ag2558
ag2559
ag2858
ag2859
ag2860
ag2861
ag2862
ag2863
ag2864
ag2632
ag2865
ag2866
ag2867
ag2868
ag2869
ag2870
ag2871
ag2872
ag2873
ag2874
ag2875
ag2876
ag2877
ag2878
ag2879
ag2880
ag2881
ag2591
ag2931
ag2932
ag3050
ag2933
ag2934
ag2935
ag2936
ag2898
ag2899
ag2900
ag2901
ag2902
ag2903
ag2904
ag2905
ag2906
ag2907
ag2908
ag2555
ag2628
ag2629
ag2630
ag2582
ag2583
ag2775
ag2776
ag2938
ag2910
ag2911
ag2912
ag2913
ag2994
ag2995
ag2996
ag2997
ag2998
ag2999
ag3000
ag2955
ag2956
ag2957
ag2958
ag2959
ag2960
ag2961
ag2962
ag2963
ag2569
ag2950
ag2951
ag2543
ag2914
ag2915
ag2916
ag3015
ag2990
ag2991
ag2920
ag2921
ag2684
ag2685
ag2971
ag2972
ag2973
ag2974
ag2975
ag2976
ag2970
ag2631
ag2676
ag2677
ag2982
ag3011
ag3012
ag3013
ag3023
ag2977
ag2635
ag2939
ag2940
ag2941
ag3063
ag3064
ag3065
ag3073
ag3014
ag2909
ag2892
ag2893
ag2894
ag2895
ag3052
ag3053
ag2944
ag2945
ag2946
ag2947
ag2948
ag2949
ag3091
ag2574
ag2575
ag2590
ag3060
ag3001
ag2993
ag2926
ag2927
ag3104
ag2992
ag2989
ag2882
ag2884
ag2885
ag2886
ag2887
ag2888
ag2889
ag2890
ag2891
ag2790
ag2791
ag2792
ag2793
ag2794
ag2795
ag2797
ag2798
ag2799
ag2800
ag2801
ag2802
ag2803
ag2804
ag3101
ag3102
ag3054
ag2665
ag2666
ag2667
ag2942
ag2943
ag2636
ag2637
ag2638
ag3066
ag3067
ag3068
ag3069
ag3070
ag3071
ag3072
ag2634
ag2639
ag2640
ag2641
ag2967
ag2968
ag2969
ag3074
ag3075
ag3076
ag3077
ag3078
ag3079
ag3080
ag3081
ag3082
ag3083
ag3084
ag3085
ag3086
ag3087
ag3088
ag3089
ag3090
ag3107
ag3093
ag3094
ag3095
ag3096
ag3097
ag3098
ag3099
ag2964
ag2965
ag2966
ag3002
ag3003
ag3004
ag3005
ag2983
ag2984
ag2985
ag2986
ag2987
ag2988
ag3100
ag3127
ag3128
ag3129
ag3118
ag3119
ag3120
ag2952
ag2953
ag2954
ag3103
ag3016
ag3017
ag3018
ag3019
ag3020
ag3021
ag3022
ag3121
ag3122
ag3123
ag3006
ag3007
ag3008
ag3145
ag3146
ag3147
ag3111
ag3112
ag3113
ag3114
ag3115
ag3116
ag2978
ag2979
ag2980
ag2981
ag3148
ag3105
ag3106
ag3125
ag3126
ag3092
ag3057
ag3058
ag3059
ag3108
ag3109
ag3110
ag3009
ag3010
ag3149
ag3150
ag3151
ag3152
ag3153
ag3154
ag3155
ag3156
ag3157
ag3158
ag3159
ag3117
ag3124
ag3130
ag3131
ag3132
ag3133
ag3134
ag3135
ag3136
ag3137
ag3138
ag3139
ag3164
ag3165
ag3166
ag3160
ag3161
ag3162
ag3163
ag3168
ag3169
ag3167
ag3172
ag3170
ag3171
ag47
ag48
ag20
ag21
ag22
ag843
ag402
ag403
ag404
ag405
ag406
ag407
ag408
ag844
ag409
ag410
ag411
ag845
ag336
ag49
ag50
ag51
ag52
ag53
ag54
ag55
ag56
ag57
ag58
ag59
ag7
ag8
ag9
ag60
ag61
ag62
ag65
ag66
ag67
ag68
ag69
ag70
ag71
ag72
ag73
ag25
ag26
ag1312
ag1962
ag1963
ag1964
ag1965
ag1966
ag1967
ag1334
ag1968
ag1335
ag396
ag397
ag398
ag399
ag947
ag400
ag1969
ag27
ag29
ag30
ag1411
ag1970
ag1432
ag1433
ag351
ag352
ag1971
ag1036
ag1037
ag1011
ag223
ag224
ag1972
ag1973
ag1974
ag1216
ag1975
ag732
ag733
ag1976
ag1434
ag1977
ag1978
ag1979
ag1435
ag487
ag599
ag600
ag601
ag1980
ag602
ag603
ag1981
ag970
ag1982
ag971
ag120
ag121
ag122
ag123
ag1436
ag502
ag503
ag504
ag1983
ag5
ag1437
ag1984
ag1438
ag1439
ag1440
ag1441
ag1442
ag181
ag182
ag183
ag240
ag241
ag242
ag243
ag244
ag245
ag1443
ag1444
ag1985
ag1445
ag1986
ag1446
ag1447
ag1448
ag227
ag228
ag83
ag84
ag229
ag230
ag231
ag232
ag233
ag234
ag38
ag237
ag238
ag239
ag247
ag248
ag249
ag250
ag251
ag252
ag253
ag254
ag255
ag256
ag257
ag258
ag259
ag260
ag261
ag262
ag263
ag264
ag265
ag266
ag267
ag268
ag269
ag270
ag271
ag272
ag273
ag274
ag275
ag276
ag277
ag278
ag279
ag280
ag282
ag283
ag284
ag285
ag286
ag287
ag288
ag1987
ag707
ag708
ag1336
ag1337
ag1338
ag1339
ag846
ag412
ag413
ag414
ag415
ag416
ag417
ag135
ag136
ag850
ag419
ag420
ag421
ag289
ag290
ag291
ag85
ag422
ag423
ag424
ag425
ag426
ag427
ag428
ag429
ag430
ag431
ag432
ag434
ag435
ag436
ag437
ag438
ag439
ag440
ag441
ag442
ag383
ag384
ag385
ag443
ag444
ag445
ag853
ag64
ag74
ag76
ag77
ag78
ag79
ag80
ag81
ag446
ag447
ag448
ag137
ag139
ag449
ag450
ag451
ag452
ag453
ag454
ag455
ag456
ag321
ag473
ag474
ag475
ag855
ag477
ag478
ag479
ag480
ag481
ag482
ag483
ag484
ag485
ag486
ag311
ag488
ag489
ag220
ag221
ag222
ag1721
ag684
ag685
ag2689
ag2690
ag721
ag1000
ag579
ag580
ag581
ag582
ag583
ag584
ag585
ag1673
ag1674
ag1136
ag317
ag86
ag590
ag1999
ag753
ag164
ag2691
ag754
ag1063
ag2692
ag356
ag357
ag358
ag359
ag360
ag361
ag362
ag363
ag364
ag508
ag2693
ag509
ag510
ag511
ag771
ag772
ag773
ag369
ag544
ag545
ag207
ag312
ag774
ag775
ag2694
ag354
ag355
ag1090
ag776
ag1300
ag777
ag2695
ag778
ag779
ag780
ag781
ag782
ag783
ag784
ag785
ag786
ag1301
ag787
ag752
ag788
ag789
ag790
ag791
ag792
ag793
ag794
ag186
ag187
ag188
ag724
ag1297
ag1298
ag2696
ag127
ag128
ag606
ag813
ag2086
ag814
ag815
ag816
ag817
ag2697
ag818
ag349
ag819
ag820
ag821
ag822
ag2698
ag823
ag13
ag14
ag176
ag824
ag825
ag826
ag827
ag828
ag2699
ag2700
ag1694
ag1695
ag2415
ag2416
ag2701
ag2702
ag2417
ag1140
ag1141
ag1142
ag1143
ag2036
ag1144
ag1346
ag1347
ag1348
ag1349
ag888
ag331
ag332
ag333
ag334
ag2088
ag2703
ag751
ag2089
ag1208
ag1209
ag2058
ag1410
ag2704
ag2059
ag2705
ag2060
ag2061
ag2706
ag1412
ag1413
ag2707
ag1414
ag1416
ag1417
ag1418
ag2062
ag1419
ag2708
ag1420
ag2063
ag2064
ag1172
ag1173
ag690
ag1276
ag1277
ag2709
ag1421
ag2091
ag2710
ag2092
ag1422
ag795
ag796
ag868
ag869
ag1308
ag2116
ag1423
ag1424
ag2172
ag1425
ag738
ag739
ag740
ag741
ag1066
ag1426
ag1427
ag1428
ag1429
ag2711
ag618
ag619
ag32
ag33
ag206
ag113
ag115
ag116
ag117
ag118
ag226
ag1490
ag1491
ag1492
ag1493
ag1494
ag2044
ag1495
ag1496
ag2045
ag1497
ag2046
ag1498
ag1499
ag2047
ag2048
ag2049
ag1500
ag1501
ag1502
ag1503
ag1504
ag2050
ag2051
ag1505
ag2052
ag2054
ag702
ag703
ag1396
ag1397
ag505
ag506
ag507
ag1042
ag1043
ag1044
ag1045
ag704
ag1363
ag1364
ag2712
ag705
ag2079
ag1390
ag1391
ag1392
ag1393
ag1394
ag1715
ag1716
ag1717
ag1718
ag1719
ag1720
ag2170
ag930
ag931
ag932
ag1722
ag1723
ag1352
ag2220
ag1353
ag1354
ag1724
ag294
ag295
ag296
ag297
ag298
ag299
ag300
ag301
ag302
ag303
ag304
ag305
ag306
ag307
ag308
ag920
ag457
ag458
ag459
ag460
ag461
ag462
ag463
ag464
ag465
ag466
ag2713
ag1264
ag2714
ag1265
ag2447
ag2448
ag2449
ag2450
ag2715
ag747
ag546
ag547
ag748
ag2004
ag2005
ag1452
ag2006
ag1453
ag1936
ag1937
ag2716
ag2717
ag2335
ag2336
ag2337
ag2718
ag1360
ag1361
ag1362
ag2719
ag2720
ag1928
ag1929
ag806
ag2187
ag1369
ag1370
ag1371
ag1372
ag1842
ag1793
ag695
ag2001
ag1342
ag2721
ag144
ag1046
ag146
ag2183
ag612
ag575
ag161
ag162
ag2353
ag2354
ag2355
ag2356
ag2357
ag2358
ag995
ag314
ag315
ag954
ag955
ag956
ag957
ag958
ag959
ag952
ag953
ag960
ag961
ag962
ag963
ag964
ag880
ag2722
ag1924
ag1925
ag1681
ag1682
ag551
ag552
ag2723
ag554
ag2724
ag555
ag556
ag2725
ag2726
ag558
ag559
ag560
ag561
ag562
ag563
ag564
ag565
ag566
ag972
ag112
ag2727
ag198
ag1801
ag2178
ag2179
ag2728
ag2180
ag2729
ag2182
ag322
ag323
ag324
ag325
ag661
ag662
ag663
ag664
ag210
ag870
ag871
ag665
ag666
ag667
ag668
ag669
ag1592
ag2730
ag2122
ag1593
ag2123
ag1594
ag1595
ag1530
ag1531
ag2731
ag1532
ag1533
ag1534
ag1535
ag1536
ag1537
ag1538
ag2732
ag1596
ag39
ag40
ag41
ag44
ag45
ag46
ag999
ag2453
ag2454
ag2455
ag1938
ag2733
ag698
ag699
ag700
ag873
ag875
ag876
ag353
ag878
ag720
ag863
ag879
ag533
ag534
ag535
ag536
ag537
ag538
ag541
ag1064
ag2734
ag1067
ag1068
ag1069
ag1070
ag2735
ag1200
ag2008
ag1201
ag1203
ag1204
ag1206
ag1207
ag839
ag840
ag841
ag2736
ag2456
ag2190
ag2191
ag2019
ag2457
ag2458
ag2737
ag2459
ag2460
ag318
ag170
ag1693
ag147
ag148
ag184
ag605
ag604
ag607
ag608
ag609
ag610
ag611
ag613
ag108
ag109
ag617
ag2461
ag2462
ag1934
ag2738
ag1047
ag1048
ag3
ag87
ag89
ag91
ag94
ag96
ag97
ag98
ag99
ag100
ag101
ag102
ag103
ag105
ag106
ag107
ag19
ag521
ag522
ag339
ag1049
ag2739
ag1050
ag1051
ag1052
ag1054
ag1055
ag1056
ag1057
ag1059
ag1060
ag2740
ag2741
ag709
ag710
ag711
ag1071
ag1072
ag1073
ag1074
ag1075
ag1076
ag1077
ag499
ag500
ag501
ag2742
ag1078
ag1079
ag199
ag1081
ag1083
ag1084
ag1085
ag798
ag1086
ag1087
ag1088
ag1089
ag1091
ag1092
ag1093
ag1094
ag1095
ag1096
ag1097
ag1098
ag1099
ag1100
ag1101
ag1102
ag1103
ag1104
ag1105
ag1106
ag1109
ag1110
ag1111
ag1112
ag1113
ag1114
ag1115
ag1116
ag1119
ag1120
ag1121
ag1122
ag1123
ag1124
ag1125
ag1126
ag1127
ag1128
ag1129
ag143
ag150
ag152
ag153
ag155
ag156
ag157
ag158
ag159
ag160
ag1130
ag1131
ag1133
ag1135
ag1137
ag1138
ag1139
ag1145
ag1150
ag1151
ag111
ag1152
ag1153
ag979
ag980
ag981
ag736
ag1154
ag1155
ag1157
ag2743
ag1158
ag1159
ag1160
ag1161
ag1162
ag1163
ag1164
ag1165
ag1166
ag1167
ag1168
ag1169
ag1170
ag982
ag983
ag984
ag985
ag1174
ag1175
ag1176
ag1177
ag1178
ag1179
ag1180
ag1181
ag1182
ag1183
ag1184
ag2140
ag1185
ag1186
ag1187
ag1188
ag1189
ag1190
ag1191
ag328
ag340
ag341
ag342
ag345
ag347
ag365
ag367
ag1192
ag1193
ag1195
ag1196
ag1197
ag2744
ag1198
ag673
ag213
ag214
ag1778
ag1355
ag1356
ag1357
ag195
ag1989
ag1449
ag1990
ag1450
ag1997
ag1998
ag209
ag696
ag1291
ag1295
ag1296
ag801
ag802
ag803
ag804
ag805
ag1451
ag712
ag713
ag670
ag513
ag516
ag517
ag525
ag528
ag529
ag530
ag531
ag532
ag1454
ag1455
ag1283
ag2017
ag2018
ag1456
ag1457
ag627
ag628
ag1458
ag1279
ag2022
ag1459
ag975
ag1460
ag1461
ag1463
ag1464
ag1465
ag1466
ag1467
ag730
ag731
ag1468
ag1469
ag1470
ag1290
ag1471
ag1472
ag1473
ag1474
ag1400
ag2031
ag1475
ag1476
ag1477
ag1478
ag1479
ag2034
ag2035
ag1480
ag1481
ag1482
ag1278
ag1483
ag1484
ag1485
ag1486
ag1487
ag1488
ag1398
ag1399
ag2042
ag2043
ag1506
ag1507
ag1508
ag1509
ag1510
ag1025
ag1511
ag1512
ag1513
ag1514
ag1515
ag1516
ag1517
ag1518
ag2068
ag1519
ag1520
ag1521
ag1522
ag1523
ag1524
ag675
ag676
ag677
ag1525
ag1526
ag1527
ag915
ag918
ag1395
ag2073
ag1528
ag495
ag1529
ag1539
ag370
ag371
ag373
ag468
ag469
ag471
ag472
ag492
ag132
ag496
ag497
ag498
ag1540
ag1541
ag1542
ag757
ag758
ag759
ag760
ag1543
ag1544
ag1545
ag2077
ag542
ag543
ag1546
ag1547
ag1548
ag1549
ag1550
ag1551
ag1552
ag836
ag657
ag659
ag660
ag742
ag2081
ag743
ag744
ag745
ag746
ag2085
ag1401
ag1402
ag1403
ag1404
ag867
ag1570
ag722
ag723
ag1293
ag1241
ag1571
ag1572
ag1573
ag1574
ag2090
ag1027
ag1028
ag1029
ag1030
ag674
ag842
ag1818
ag1819
ag3024
ag587
ag1659
ag1660
ag3025
ag1661
ag750
ag1662
ag3026
ag1663
ag1664
ag623
ag624
ag625
ag626
ag1605
ag1606
ag1614
ag1615
ag2209
ag1665
ag1666
ag2175
ag1618
ag1667
ag1668
ag1669
ag1670
ag1671
ag1672
ag1645
ag1646
ag1021
ag1382
ag1569
ag2240
ag1870
ag1631
ag1632
ag1633
ag1634
ag1635
ag203
ag576
ag577
ag578
ag1871
ag1872
ag1873
ag1874
ag829
ag830
ag1365
ag1366
ag1367
ag1373
ag1008
ag1597
ag1598
ag1599
ag1600
ag1601
ag1602
ag1603
ag1604
ag1885
ag1789
ag1790
ag1791
ag1220
ag1380
ag1381
ag1384
ag1385
ag1386
ag2747
ag1628
ag1629
ag1630
ag967
ag968
ag969
ag3027
ag1886
ag1887
ag1888
ag1889
ag1890
ag1891
ag1892
ag1001
ag1002
ag1005
ag1006
ag3028
ag1013
ag1014
ag1015
ag1016
ag1018
ag1019
ag1020
ag692
ag1893
ag1894
ag1895
ag1655
ag1656
ag1309
ag1699
ag1768
ag1758
ag1759
ag1760
ag1761
ag1762
ag1763
ag1764
ag1765
ag1766
ag1767
ag1747
ag1748
ag1022
ag1023
ag1024
ag1769
ag1770
ag1771
ag1897
ag3029
ag1898
ag2402
ag2403
ag1899
ag1900
ag1901
ag1902
ag3030
ag1903
ag1904
ag1905
ag1906
ag1907
ag1908
ag3031
ag1909
ag1910
ag1911
ag1912
ag1913
ag1914
ag1915
ag3032
ag1916
ag1858
ag1859
ag1860
ag1861
ag1862
ag3033
ag1863
ag1864
ag1865
ag1866
ag1867
ag1868
ag1869
ag1284
ag1285
ag1286
ag1917
ag1918
ag3034
ag1919
ag1920
ag1921
ag1776
ag1777
ag1922
ag1306
ag1307
ag211
ag212
ag217
ag218
ag219
ag682
ag808
ag809
ag810
ag678
ag679
ag680
ag681
ag686
ag687
ag688
ag1729
ag1730
ag1731
ag1732
ag1733
ag1734
ag1735
ag1736
ag1737
ag1738
ag1726
ag1727
ag1728
ag1739
ag1387
ag1740
ag1741
ag1032
ag1946
ag1947
ag1948
ag2781
ag1358
ag797
ag125
ag126
ag832
ag833
ag3035
ag1779
ag1217
ag1218
ag1219
ag1949
ag1950
ag1951
ag1952
ag1953
ag1954
ag1955
ag1956
ag2842
ag2843
ag3036
ag3037
ag2305
ag2306
ag2307
ag2309
ag2765
ag2310
ag1328
ag1329
ag1330
ag1331
ag1332
ag1333
ag1692
ag1850
ag2164
ag1851
ag1852
ag1853
ag1854
ag1855
ag1856
ag1857
ag3038
ag2149
ag190
ag191
ag200
ag202
ag1811
ag2216
ag715
ag716
ag717
ag718
ag719
ag2446
ag2188
ag2189
ag909
ag1636
ag1637
ag2101
ag2102
ag1553
ag2103
ag1314
ag1315
ag1316
ag1317
ag1318
ag2106
ag2109
ag1561
ag2110
ag2111
ag2112
ag1558
ag923
ag924
ag925
ag928
ag2782
ag2156
ag1752
ag1753
ag1754
ag1755
ag1756
ag3039
ag2158
ag2160
ag2451
ag3040
ag2254
ag2255
ag2256
ag2273
ag2274
ag2452
ag1313
ag1319
ag1321
ag1322
ag1323
ag1324
ag1325
ag1327
ag2750
ag2173
ag2174
ag2339
ag2145
ag309
ag310
ag630
ag631
ag633
ag634
ag635
ag636
ag639
ag641
ag643
ag645
ag646
ag648
ag649
ag650
ag651
ag652
ag653
ag654
ag2471
ag2472
ag2473
ag2474
ag2211
ag2212
ag2213
ag2348
ag2349
ag2350
ag3041
ag1802
ag2351
ag2352
ag1820
ag1821
ag1822
ag1823
ag1824
ag2368
ag2369
ag2370
ag2371
ag1243
ag2475
ag2118
ag2476
ag3042
ag2477
ag2478
ag2479
ag2480
ag1406
ag1408
ag1409
ag2481
ag2482
ag2762
ag2769
ag2483
ag1805
ag1806
ag1876
ag1877
ag1878
ag1879
ag1880
ag1881
ag1882
ag1807
ag1253
ag1254
ag1255
ag1256
ag1257
ag1258
ag1259
ag2436
ag2124
ag2125
ag2419
ag2165
ag2326
ag2327
ag2328
ag1210
ag1211
ag1212
ag1215
ag1221
ag1223
ag1224
ag1225
ag1226
ag1227
ag1228
ag1229
ag1230
ag1231
ag1232
ag1233
ag1234
ag1235
ag1236
ag1238
ag1239
ag1240
ag1245
ag1246
ag1249
ag1250
ag1251
ag1252
ag1261
ag1262
ag1263
ag1266
ag1267
ag1270
ag1271
ag1272
ag1273
ag1274
ag1275
ag1280
ag1287
ag1288
ag1289
ag2152
ag2153
ag1554
ag1555
ag1556
ag1557
ag1559
ag1560
ag1563
ag1564
ag1565
ag1566
ag1567
ag1568
ag977
ag1377
ag885
ag891
ag892
ag895
ag897
ag900
ag903
ag904
ag906
ag912
ag913
ag2376
ag1840
ag1841
ag1923
ag2928
ag2929
ag2151
ag1846
ag1847
ag1848
ag1849
ag1623
ag1624
ag3043
ag1625
ag1626
ag1627
ag133
ag134
ag1931
ag1933
ag1935
ag1292
ag1957
ag1676
ag1677
ag1678
ag2131
ag2133
ag2784
ag2429
ag1696
ag1686
ag1687
ag1688
ag1689
ag1690
ag1691
ag2422
ag2423
ag2424
ag2425
ag2426
ag2427
ag2428
ag2643
ag2644
ag2605
ag735
ag569
ag570
ag571
ag573
ag574
ag1684
ag1685
ag769
ag770
ag2192
ag2193
ag2194
ag1576
ag1577
ag2176
ag973
ag1638
ag1639
ag1640
ag1641
ag1642
ag1643
ag1644
ag1648
ag1649
ag1650
ag620
ag2753
ag3044
ag922
ag1310
ag1311
ag988
ag989
ag990
ag1780
ag1781
ag1782
ag1783
ag3045
ag1784
ag1785
ag3046
ag1786
ag165
ag166
ag167
ag2520
ag2521
ag2522
ag2484
ag2485
ag2486
ag2489
ag2490
ag2491
ag2467
ag2468
ag2492
ag1679
ag379
ag382
ag391
ag392
ag393
ag395
ag2195
ag2196
ag2197
ag2198
ag2199
ag2203
ag2682
ag2683
ag3047
ag1813
ag1814
ag1815
ag1816
ag1817
ag1344
ag1345
ag1620
ag1621
ag1622
ag2250
ag2251
ag1350
ag2252
ag2253
ag2121
ag2243
ag1742
ag1958
ag1959
ag1960
ag1961
ag939
ag940
ag2302
ag2303
ag1303
ag1304
ag2166
ag2930
ag548
ag550
ag594
ag595
ag596
ag598
ag1607
ag1608
ag1609
ag1610
ag1611
ag1612
ag1613
ag1706
ag1707
ag1708
ag2244
ag2245
ag2246
ag2247
ag1389
ag2257
ag2258
ag2259
ag2260
ag2261
ag2262
ag2263
ag1579
ag1580
ag1581
ag1582
ag1583
ag1584
ag1586
ag1587
ag1588
ag1589
ag942
ag943
ag944
ag945
ag946
ag1680
ag2264
ag2265
ag2266
ag2267
ag2268
ag2269
ag2271
ag2272
ag2275
ag2276
ag2277
ag2278
ag2280
ag2281
ag2283
ag2284
ag2285
ag2286
ag2287
ag2288
ag2289
ag2290
ag1808
ag1809
ag1825
ag2291
ag2292
ag2293
ag2294
ag725
ag727
ag728
ag729
ag763
ag764
ag765
ag766
ag767
ag768
ag2295
ag2297
ag2298
ag2299
ag2300
ag2301
ag2304
ag1844
ag1845
ag1751
ag2228
ag2229
ag2311
ag2312
ag2313
ag2314
ag2315
ag2225
ag2316
ag2317
ag2318
ag2319
ag2320
ag2321
ag2322
ag2139
ag2323
ag2324
ag1376
ag1378
ag1379
ag2325
ag2329
ag1775
ag2330
ag2331
ag1772
ag2418
ag1804
ag1926
ag1927
ag1616
ag1617
ag2463
ag2385
ag2386
ag2387
ag2388
ag2389
ag2390
ag2391
ag2237
ag2238
ag2760
ag2464
ag2465
ag2466
ag1575
ag2392
ag2469
ag2470
ag1743
ag1744
ag1745
ag2098
ag2099
ag2234
ag2236
ag2487
ag2488
ag2217
ag2219
ag2338
ag1578
ag1875
ag2493
ag1657
ag2409
ag2410
ag2411
ag2412
ag2494
ag2495
ag2496
ag2497
ag2498
ag2499
ag2500
ag2501
ag2502
ag2503
ag2504
ag2505
ag2506
ag2507
ag1843
ag2127
ag2128
ag2129
ag2437
ag2438
ag2439
ag2440
ag2441
ag2379
ag1787
ag1788
ag2612
ag2613
ag2614
ag2615
ag2616
ag2617
ag2618
ag2619
ag2620
ag1675
ag2544
ag2545
ag2546
ag2547
ag2548
ag2549
ag2550
ag2551
ag2393
ag2394
ag2395
ag2396
ag2397
ag2364
ag2365
ag2398
ag1700
ag1702
ag1703
ag2526
ag2527
ag2528
ag2529
ag1812
ag2532
ag2533
ag2534
ag2535
ag2536
ag2552
ag2553
ag2554
ag2508
ag1658
ag2421
ag2523
ag2524
ag2525
ag2668
ag2603
ag2604
ag2431
ag2432
ag2433
ag2434
ag2435
ag1939
ag1940
ag1941
ag1944
ag1945
ag2669
ag2670
ag2671
ag2210
ag2214
ag2215
ag2135
ag2137
ag2226
ag2227
ag2672
ag2566
ag2567
ag2568
ag2230
ag2231
ag2232
ag2673
ag2840
ag2565
ag2674
ag2570
ag1827
ag1828
ag2662
ag2663
ag2664
ag2811
ag2562
ag2675
ag2592
ag2593
ag2594
ag2595
ag2596
ag2597
ag2598
ag2599
ag1930
ag1794
ag1795
ag1797
ag1798
ag1799
ag1800
ag2577
ag2578
ag2579
ag2580
ag2581
ag2561
ag2584
ag2141
ag2645
ag2646
ag2647
ag2648
ag2686
ag2687
ag2688
ag2854
ag2512
ag2513
ag2826
ag2827
ag2828
ag2829
ag2855
ag2414
ag2650
ag2651
ag2652
ag2653
ag2654
ag2655
ag2656
ag2657
ag2658
ag2659
ag2660
ag2571
ag2572
ag2404
ag2366
ag2367
ag2778
ag2779
ag2780
ag2585
ag2586
ag2587
ag2806
ag2518
ag2519
ag2841
ag2405
ag2406
ag2407
ag2408
ag2883
ag1704
ag1709
ag1710
ag1712
ag1713
ag1714
ag1749
ag1757
ag1773
ag1774
ag2816
ag2817
ag2818
ag2819
ag2820
ag2821
ag2822
ag2678
ag2679
ag2680
ag2681
ag3140
ag2377
ag2621
ag2622
ag2623
ag2624
ag2625
ag2626
ag3141
ag3142
ag3143
ag2627
ag2896
ag2783
ag2442
ag2443
ag2444
ag2445
ag2925
ag2937
ag2606
ag2588
ag2589
ag2607
ag2922
ag2923
ag2924
ag2332
ag2333
ag2334
ag2340
ag2342
ag2343
ag2344
ag2345
ag2346
ag2359
ag2360
ag2361
ag2362
ag2363
ag2372
ag2373
ag2374
ag2375
ag2380
ag2381
ag2382
ag2383
ag2384
ag2399
ag2805
ag2186
ag2430
ag2130
ag2146
ag2147
ag2148
ag2897
ag2642
ag694
ag2400
ag1430
ag1431
ag2563
ag2917
ag2918
ag2919
ag1653
ag1654
ag2785
ag2786
ag2787
ag2788
ag2808
ag2538
ag2539
ag2540
ag2541
ag2542
ag2600
ag2601
ag2602
ag2809
ag2576
ag2812
ag2813
ag2814
ag2815
ag2830
ag1884
ag2167
ag2168
ag2824
ag2531
ag2573
ag2831
ag2832
ag2833
ag2834
ag2835
ag2836
ag2837
ag2838
ag2509
ag2510
ag2511
ag2514
ag2515
ag2516
ag2517
ag2171
ag2560
ag2839
ag2844
ag2845
ag2846
ag2847
ag2848
ag1829
ag1830
ag1831
ag1833
ag1834
ag1836
ag1837
ag1883
ag2849
ag2850
ag2851
ag2852
ag2853
ag2649
ag2856
ag2857
ag2557
ag2558
ag2559
ag2858
ag2859
ag2860
ag2861
ag2862
ag2863
ag2864
ag2632
ag2865
ag2866
ag2867
ag2868
ag2869
ag2870
ag2871
ag2872
ag2873
ag2874
ag2875
ag2876
ag2877
ag2878
ag2879
ag2880
ag2881
ag2591
ag2931
ag2932
ag3050
ag2933
ag2934
ag2935
ag2936
ag2898
ag2899
ag2900
ag2901
ag2902
ag2903
ag2904
ag2905
ag2906
ag2907
ag2908
ag2555
ag2628
ag2629
ag2630
ag2582
ag2583
ag2775
ag2776
ag2938
ag2910
ag2911
ag2912
ag2913
ag2994
ag2995
ag2996
ag2997
ag2998
ag2999
ag3000
ag2955
ag2956
ag2957
ag2958
ag2959
ag2960
ag2961
ag2962
ag2963
ag2569
ag2950
ag2951
ag2543
ag2914
ag2915
ag2916
ag3015
ag2990
ag2991
ag2920
ag2921
ag2684
ag2685
ag2971
ag2972
ag2973
ag2974
ag2975
ag2976
ag2970
ag2631
ag2676
ag2677
ag2982
ag3011
ag3012
ag3013
ag3023
ag2977
ag2635
ag2939
ag2940
ag2941
ag3063
ag3064
ag3065
ag3073
ag3014
ag2909
ag2892
ag2893
ag2894
ag2895
ag3052
ag3053
ag2944
ag2945
ag2946
ag2947
ag2948
ag2949
ag3091
ag2574
ag2575
ag2590
ag3060
ag3001
ag2993
ag2926
ag2927
ag3104
ag2992
ag2989
ag2882
ag2884
ag2885
ag2886
ag2887
ag2888
ag2889
ag2890
ag2891
ag2790
ag2791
ag2792
ag2793
ag2794
ag2795
ag2797
ag2798
ag2799
ag2800
ag2801
ag2802
ag2803
ag2804
ag3101
ag3102
ag3054
ag2665
ag2666
ag2667
ag2942
ag2943
ag2636
ag2637
ag2638
ag3066
ag3067
ag3068
ag3069
ag3070
ag3071
ag3072
ag2634
ag2639
ag2640
ag2641
ag2967
ag2968
ag2969
ag3074
ag3075
ag3076
ag3077
ag3078
ag3079
ag3080
ag3081
ag3082
ag3083
ag3084
ag3085
ag3086
ag3087
ag3088
ag3089
ag3090
ag3107
ag3093
ag3094
ag3095
ag3096
ag3097
ag3098
ag3099
ag2964
ag2965
ag2966
ag3002
ag3003
ag3004
ag3005
ag2983
ag2984
ag2985
ag2986
ag2987
ag2988
ag3100
ag3127
ag3128
ag3129
ag3118
ag3119
ag3120
ag2952
ag2953
ag2954
ag3103
ag3016
ag3017
ag3018
ag3019
ag3020
ag3021
ag3022
ag3121
ag3122
ag3123
ag3006
ag3007
ag3008
ag3145
ag3146
ag3147
ag3111
ag3112
ag3113
ag3114
ag3115
ag3116
ag2978
ag2979
ag2980
ag2981
ag3148
ag3105
ag3106
ag3125
ag3126
ag3092
ag3057
ag3058
ag3059
ag3108
ag3109
ag3110
ag3009
ag3010
ag3149
ag3150
ag3151
ag3152
ag3153
ag3154
ag3155
ag3156
ag3157
ag3158
ag3159
ag3160
ag3161
ag3162
ag3130
ag3131
ag3132
ag3133
ag3124
ag3168
ag3169
ag3167
ag3117
ag3134
ag3135
ag3164
ag3165
ag3166
ag3163
ag3136
ag3137
ag3138
ag3139
ag3170
ag3171
ag3172
a.