(lp0
Vact
p1
aVmove
p2
aVchange
p3
aValter
p4
aVvary
p5
aVcause
p6
aVdo
p7
aVmake
p8
aVaffect
p9
aVimpress
p10
aVstrike
p11
aVsell
p12
aVlive
p13
aVpropose
p14
aVsuggest
p15
aVadvise
p16
aVre-create
p17
aVserve
p18
aVact
p19
aVbehave
p20
aVdo
p21
aVbe
p22
aVsucceed
p23
aVwin
p24
aVperform
p25
ag2
ag3
ag4
ag5
ag6
ag8
ag9
ag10
ag11
ag12
ag13
ag14
ag15
ag16
aVdress
p26
aVreplace
p27
aVtransfer
p28
aVtravel
p29
aVgo
p30
aVlocomote
p31
aVmodify
p32
aVedit
p33
aVredact
p34
aVsterilize
p35
aVsterilise
p36
aVdesex
p37
aVunsex
p38
aVdesexualize
p39
aVdesexualise
p40
aVfix
p41
aVdiffer
p42
aVdiversify
p43
aVcreate
p44
aVaccomplish
p45
aVexecute
p46
aVaction
p47
aVfulfill
p48
aVfulfil
p49
aVproceed
p50
aVsatisfy
p51
aVspend
p52
aVpass
p53
aVgroom
p54
aVneaten
p55
aVget
p56
aVacquire
p57
aVconstitute
p58
aVrepresent
p59
aVcomprise
p60
aVachieve
p61
aVattain
p62
aVreach
p63
aVbecome
p64
aVappoint
p65
aVcharge
p66
aVscore
p67
aVhit
p68
aVtally
p69
aVperpetrate
p70
aVcommit
p71
aVpull
p72
aVassemble
p73
aVgather
p74
aVdirect
p75
aVtidy
p76
aVstraighten
p77
aVhead
p78
aVexcrete
p79
aVegest
p80
aVeliminate
p81
aVtotal
p82
aVnumber
p83
aVcome
p84
aVamount
p85
aVlook
p86
aVappear
p87
aVseem
p88
aVgain
p89
aVpersuade
p90
aVguarantee
p91
aVensure
p92
aVinsure
p93
aVassure
p94
aVsecure
p95
aVplay
p96
aVsee
p97
aVconsider
p98
aVreckon
p99
aVview
p100
aVregard
p101
aVestimate
p102
aVgauge
p103
aVapproximate
p104
aVguess
p105
aVjudge
p106
aVdevelop
p107
aVgrow
p108
aVrefer
p109
aVpertain
p110
aVrelate
p111
aVconcern
p112
aVtouch
p113
aVmisrepresent
p114
aVbelie
p115
aVwrite
p116
aVkidnap
p117
aVnobble
p118
aVabduct
p119
aVsnatch
p120
aVdye
p121
aVattack
p122
aVassail
p123
aVread
p124
aVregister
p125
aVshow
p126
aVrecord
p127
aVimpact
p128
aVprotest
p129
aVresist
p130
aVdissent
p131
aVhappen
p132
aVhap
p133
aVoccur
p134
aVshape
p135
aVform
p136
aVfind
p137
aVregain
p138
aVdelete
p139
aVcancel
p140
aVdisplace
p141
aVflush
p142
aVlevel
p143
aVeven
p144
aVpenetrate
p145
aVperforate
p146
aVsolve
p147
aVlick
p148
aVwork
p149
aVexchange
p150
aVinterchange
p151
aVtransact
p152
aVsurrender
p153
aVcede
p154
aVdeliver
p155
aVdeceive
p156
aVdelude
p157
aVcozen
p158
aVexperience
p159
aVdeclare
p160
aVplan
p161
aVintend
p162
aVmean
p163
aVthink
p164
aVchoose
p165
aVtake
p166
aVselect
p167
aVrequest
p168
aVconvey
p169
aVimply
p170
aVinform
p171
aVexpress
p172
aVevince
p173
aVdiscuss
p174
aVmake
p175
ag44
aVsuffice
p176
aVdo
p177
aVanswer
p178
aVserve
p179
aVwork
p180
aVeffect
p181
aVeffectuate
p182
aVfunction
p183
aVoperate
p184
aVgo
p185
aVrun
p186
aVprovide
p187
aVsupply
p188
aVply
p189
aVcater
p190
aVfoster
p191
aVnurture
p192
ag52
ag53
aVhelp
p193
aVassist
p194
aVaid
p195
aVdeliver
p196
ag51
aVfulfill
p197
aVfulfil
p198
aVcopulate
p199
aVmate
p200
aVpair
p201
aVcouple
p202
aVmove
p203
ag17
ag19
ag20
ag22
ag23
ag24
ag25
aVhold
p204
aVcarry
p205
aVbear
p206
ag45
ag46
ag47
ag50
ag54
ag55
ag29
ag31
aVtypify
p207
aVsymbolize
p208
aVsymbolise
p209
aVrepresent
p210
aVtake
p211
aVoccupy
p212
aVstay
p213
aVremain
p214
aVrest
p215
ag56
ag57
ag3
ag4
ag5
ag6
ag9
ag10
ag11
ag12
ag13
ag14
ag15
ag16
ag26
ag27
ag28
ag32
ag33
ag34
ag35
ag36
ag37
ag38
ag39
ag40
ag41
ag42
ag43
ag58
ag60
ag61
ag62
ag63
ag64
ag65
ag66
ag67
ag68
ag69
ag70
ag71
ag72
ag73
ag74
ag75
ag76
ag77
ag78
ag79
ag80
ag81
ag82
ag83
ag84
ag85
ag86
ag87
ag88
ag89
ag90
ag91
ag92
ag93
ag94
ag95
ag96
ag97
ag98
ag99
ag100
ag101
ag102
ag103
ag104
ag105
ag106
ag107
ag108
ag109
ag110
ag111
ag112
ag113
ag114
ag115
ag116
ag117
ag118
ag119
ag120
ag121
ag122
ag123
ag124
ag125
ag126
ag127
ag128
ag129
ag130
ag131
ag132
ag133
ag134
ag135
ag136
ag137
ag138
ag139
ag140
ag141
ag142
ag143
ag144
ag145
ag146
ag147
ag148
ag150
ag151
ag152
ag153
ag154
ag156
ag157
ag158
ag159
ag160
ag161
ag162
ag163
ag164
ag165
ag167
ag168
ag169
ag170
ag171
ag172
ag173
ag174
aVturn
p216
aVfinish
p217
aVoverdress
p218
aVprink
p219
aVattire
p220
aVcook
p221
aVready
p222
aVprepare
p223
aVposition
p224
aVdecorate
p225
aVadorn
p226
aVgrace
p227
aVornament
p228
aVembellish
p229
aVbeautify
p230
aVarrange
p231
aVapply
p232
aVpare
p233
aVtrim
p234
aVconvert
p235
aVtreat
p236
aVfancify
p237
aVprettify
p238
aVregenerate
p239
aVrenew
p240
aVfollow
p241
aVput
p242
aVset
p243
aVplace
p244
aVpose
p245
aVlay
p246
aVdelegate
p247
aVdesignate
p248
aVdepute
p249
aVassign
p250
aVshift
p251
aVtrip
p252
aVjaunt
p253
aVexit
p254
aVleave
p255
aVdisappear
p256
aVvanish
p257
aVend
p258
aVstop
p259
aVterminate
p260
aVcease
p261
aVcompare
p262
aVharmonize
p263
aVharmonise
p264
aVconsort
p265
aVaccord
p266
aVconcord
p267
aVagree
p268
aVfit
p269
aVsearch
p270
aVadd
p271
aVpublish
p272
aVissue
p273
aVrelease
p274
aVcensor
p275
aVformulate
p276
aVword
p277
aVphrase
p278
aVarticulate
p279
aVdisinfect
p280
aVdeprive
p281
aVstrip
p282
aVdivest
p283
aVsublimate
p284
aVbetter
p285
aVimprove
p286
aVamend
p287
aVameliorate
p288
aVmeliorate
p289
aVattach
p290
aVestablish
p291
aVfound
p292
aVplant
p293
aVinstitute
p294
aVinfluence
p295
aVcomplete
p296
aVkill
p297
aVpunish
p298
aVpenalize
p299
aVpenalise
p300
aVmurder
p301
aVslay
p302
aVdispatch
p303
aVoff
p304
aVremove
p305
aVenforce
p306
aVimplement
p307
aVsign
p308
aVchallenge
p309
aVmeet
p310
aVtalk
p311
aVspeak
p312
aVpay
p313
aVconsume
p314
aVeat
p315
aVdeplete
p316
aVexhaust
p317
aVordain
p318
aVenact
p319
aVadvance
p320
aVprogress
p321
aVtransmit
p322
aVcommunicate
p323
aVexcel
p324
aVsurpass
p325
aVevaluate
p326
aVlet
p327
aVallow
p328
aVpermit
p329
aVthrow
p330
aVcountenance
p331
aVdischarge
p332
aVexpel
p333
aVeject
p334
aVeducate
p335
aVorder
p336
aVtransport
p337
aVchannel
p338
aVchannelize
p339
aVchannelise
p340
aVundergo
p341
aVseize
p342
aVprehend
p343
aVclutch
p344
aVsicken
p345
aVintercommunicate
p346
aVunderstand
p347
aVattract
p348
aVdraw
p349
aVbuy
p350
aVpurchase
p351
aVhear
p352
aVhurt
p353
aVache
p354
aVsuffer
p355
aVcatch
p356
aVannoy
p357
aVrag
p358
aVbother
p359
aVirritate
p360
aVrile
p361
aVnark
p362
aVnettle
p363
aVgravel
p364
aVvex
p365
aVchafe
p366
aVdevil
p367
aVstir
p368
aVreproduce
p369
aVdestroy
p370
aVruin
p371
aVconfuse
p372
aVfox
p373
aVbefuddle
p374
aVfuddle
p375
aVbedevil
p376
aVconfound
p377
aVdiscombobulate
p378
aVreceive
p379
aVhave
p380
aVsituate
p381
aVlocate
p382
aVinitiate
p383
aVpioneer
p384
aVequal
p385
aVverbalize
p386
aVverbalise
p387
aVutter
p388
aVembody
p389
aVpersonify
p390
aVdescribe
p391
aVdepict
p392
aVremonstrate
p393
aVstate
p394
aVsay
p395
aVtell
p396
aVpermute
p397
aVcommute
p398
aVtranspose
p399
aVinclude
p400
aVarrive
p401
aVtug
p402
aVlabor
p403
aVlabour
p404
aVpush
p405
aVdrive
p406
aVtransform
p407
aVtransmute
p408
aVmetamorphose
p409
aVequip
p410
aVoutfit
p411
aVrush
p412
aVaccount
p413
aVcalculate
p414
aVhotfoot
p415
aVhasten
p416
aVhie
p417
aVspeed
p418
aVrace
p419
aVaccuse
p420
aVimpeach
p421
aVincriminate
p422
aVcriminate
p423
aVclaim
p424
aVdebit
p425
aVentrust
p426
aVintrust
p427
aVtrust
p428
aVconfide
p429
aVlie
p430
aVdisturb
p431
aVupset
p432
aVtrouble
p433
aVpaint
p434
aVfill
p435
aVaim
p436
aVtrain
p437
aVcommand
p438
aVrequire
p439
aVinstruct
p440
aVimpute
p441
aVascribe
p442
aVattribute
p443
aVdetermine
p444
aVrender
p445
aVfurnish
p446
aVimpregnate
p447
aVsaturate
p448
aVnotch
p449
aVenter
p450
aVcompose
p451
aVmeasure
p452
aVvaluate
p453
aVassess
p454
aVappraise
p455
aVvalue
p456
aVpropel
p457
aVimpel
p458
aVinjure
p459
aVwound
p460
aVingest
p461
aVapproach
p462
aVcount
p463
aVenumerate
p464
aVnumerate
p465
aVuse
p466
aVutilize
p467
aVutilise
p468
aVemploy
p469
aVhand
p470
aVgive
p471
aVexpend
p472
aVdrop
p473
aVprosecute
p474
aVengage
p475
aVpursue
p476
aVforce
p477
aVwithdraw
p478
aVrow
p479
aVrein
p480
aVtear
p481
aVrupture
p482
aVsnap
p483
aVbust
p484
aVside
p485
aVjoin
p486
aVinteract
p487
aVincrease
p488
aVreason
p489
aVconclude
p490
aVsew
p491
aVstitch
p492
aVseek
p493
aVenjoin
p494
aVmanage
p495
aVdeal
p496
aVcare
p497
aVhandle
p498
aVapprise
p499
aVapprize
p500
aVdestine
p501
aVspecify
p502
aVcontrol
p503
aVlabel
p504
aVunwind
p505
aVdisentangle
p506
aVcontinue
p507
aVprecede
p508
aVlead
p509
aVoriginate
p510
aVarise
p511
aVrise
p512
aVuprise
p513
aVdestruct
p514
aVbeat
p515
aVcrush
p516
aVshell
p517
aVtrounce
p518
aVvanquish
p519
aVdamage
p520
aVdenominate
p521
aVname
p522
aVidentify
p523
aVclassify
p524
aVclass
p525
aVsort
p526
aVassort
p527
aVseparate
p528
aVascertain
p529
aVlimit
p530
aVcircumscribe
p531
aVconfine
p532
aVexist
p533
aVextend
p534
aVresult
p535
aVensue
p536
aVrank
p537
aVexamine
p538
aVmatch
p539
aVcorrespond
p540
aVcheck
p541
aVjibe
p542
aVgibe
p543
aVswear
p544
aVrely
p545
aVbank
p546
aVmaterialize
p547
aVmaterialise
p548
aVobtain
p549
aVwax
p550
aVmount
p551
aVclimb
p552
aVinduce
p553
aVstimulate
p554
aVpledge
p555
aVplight
p556
aVpromise
p557
aVback
p558
aVendorse
p559
aVindorse
p560
aVsupport
p561
aVverify
p562
aVwarrant
p563
aVprotect
p564
aVaffirm
p565
aVassert
p566
aVavow
p567
aVaver
p568
aVswan
p569
aVcalm
p570
aVquiet
p571
aVtranquilize
p572
aVtranquillize
p573
aVtranquillise
p574
aVquieten
p575
aVlull
p576
aVstill
p577
aVvouch
p578
aVclose
p579
aVstrengthen
p580
aVfortify
p581
aVcompete
p582
aVvie
p583
aVcontend
p584
aVsound
p585
aVgamble
p586
aVsimulate
p587
aVassume
p588
aVsham
p589
aVfeign
p590
aVdeploy
p591
aVmanipulate
p592
aVexploit
p593
aVbet
p594
aVwager
p595
aVtucker
p596
aVperceive
p597
aVcomprehend
p598
aVimagine
p599
aVideate
p600
aVenvisage
p601
aVbelieve
p602
aVconceive
p603
aVwatch
p604
aVvisit
p605
aVcall
p606
aVtour
p607
aVinvite
p608
aVassociate
p609
aVaffiliate
p610
aVdebate
p611
aVmoot
p612
aVdeliberate
p613
aVdetect
p614
aVobserve
p615
aVdiscover
p616
aVnotice
p617
aVaccompany
p618
aVmeditate
p619
aVponder
p620
aVexcogitate
p621
aVcontemplate
p622
aVmuse
p623
aVreflect
p624
aVmull
p625
aVruminate
p626
aVspeculate
p627
aVanalyze
p628
aVanalyse
p629
aVstudy
p630
aVcanvass
p631
aVcanvas
p632
aVexpect
p633
aVanticipate
p634
aVcipher
p635
aVcypher
p636
aVcompute
p637
aVfigure
p638
aVrub
p639
aVquantify
p640
aVstandardize
p641
aVstandardise
p642
aVblend
p643
aVflux
p644
aVmix
p645
aVconflate
p646
aVcommingle
p647
aVimmix
p648
aVfuse
p649
aVcoalesce
p650
aVmeld
p651
aVcombine
p652
aVmerge
p653
aVresemble
p654
aVdecide
p655
aVsettle
p656
aVresolve
p657
aVadjudicate
p658
aVcogitate
p659
aVcerebrate
p660
aVadjudge
p661
aVtheorize
p662
aVtheorise
p663
aVconjecture
p664
aVhypothesize
p665
aVhypothesise
p666
aVhypothecate
p667
aVsuppose
p668
aVteach
p669
aVlearn
p670
aVgenerate
p671
aVsuperimpose
p672
aVsuperpose
p673
aVcomplicate
p674
aVrefine
p675
aVrarify
p676
aVelaborate
p677
aVexpand
p678
aVcultivate
p679
aVsend
p680
aVresearch
p681
aVsignify
p682
aVbelong
p683
aVnarrate
p684
aVrecount
p685
aVrecite
p686
aVhint
p687
aVcolor
p688
aVcolorize
p689
aVcolorise
p690
aVcolourise
p691
aVcolourize
p692
aVcolour
p693
aVcheat
p694
aVchisel
p695
aVdeviate
p696
aVdiverge
p697
aVdepart
p698
aVtrace
p699
aVline
p700
aVdelineate
p701
aVtape
p702
aVsteal
p703
aVdisable
p704
aVdisenable
p705
aVincapacitate
p706
aVdiscolor
p707
aVdiscolour
p708
aVfight
p709
aVstruggle
p710
aVknock
p711
aVcriticize
p712
aVcriticise
p713
aVbegin
p714
aVstart
p715
aVcommence
p716
aVinterpret
p717
aVconstrue
p718
aVfeature
p719
aVmouth
p720
aVpredict
p721
aVforetell
p722
aVprognosticate
p723
aVforebode
p724
aVindicate
p725
aVaudition
p726
aVenroll
p727
aVinscribe
p728
aVenrol
p729
aVrecruit
p730
aVcampaign
p731
aVmail
p732
aVpost
p733
aVconfirm
p734
aVcorroborate
p735
aVsustain
p736
aVsubstantiate
p737
aVconduct
p738
aVguide
p739
aVsave
p740
aVpreserve
p741
aVremind
p742
aVwedge
p743
aVsqueeze
p744
aVcomplain
p745
aVkick
p746
aVplain
p747
aVquetch
p748
aVkvetch
p749
aVoppose
p750
aVcontrovert
p751
aVcontradict
p752
aVelude
p753
aVescape
p754
aVdefend
p755
aVreact
p756
aVrespond
p757
aVdisobey
p758
aVdisagree
p759
aVchance
p760
aVspy
p761
aVsight
p762
aVgestate
p763
aVconceptualize
p764
aVconceptualise
p765
aVpronounce
p766
aVmature
p767
aVmaturate
p768
aVbalance
p769
aVequilibrate
p770
aVequilibrize
p771
aVequilibrise
p772
aVmark
p773
aVsupplant
p774
aVsupersede
p775
aVsupercede
p776
aVflow
p777
aVfeed
p778
aVcourse
p779
aVglow
p780
aVrinse
p781
aVdrench
p782
aVdouse
p783
aVdowse
p784
aVsoak
p785
aVsop
p786
aVsouse
p787
aVwater
p788
aVirrigate
p789
aVregularize
p790
aVregularise
p791
aVinsert
p792
aVinfix
p793
aVintroduce
p794
aVpierce
p795
aVstroke
p796
aVdrink
p797
aVimbibe
p798
aVtransubstantiate
p799
aVexcite
p800
aVcapture
p801
aVenamour
p802
aVtrance
p803
aVbecharm
p804
aVenamor
p805
aVcaptivate
p806
aVbeguile
p807
aVcharm
p808
aVfascinate
p809
aVbewitch
p810
aVentrance
p811
aVenchant
p812
aVreverse
p813
aVreassign
p814
aVyield
p815
aVgift
p816
aVpresent
p817
aVbring
p818
aVfetch
p819
aVemit
p820
aVproduce
p821
aVvictimize
p822
aVvictimise
p823
aVmisinform
p824
aVmislead
p825
aVauthorize
p826
aVauthorise
p827
aVclear
p828
aVproclaim
p829
aVexclaim
p830
aVpromulgate
p831
aVnecessitate
p832
aVlink
p833
aVcolligate
p834
aVconnect
p835
aVconcentrate
p836
aVfocus
p837
aVcenter
p838
aVcentre
p839
aVpore
p840
aVrivet
p841
aVaccept
p842
aVincur
p843
aVask
p844
aVpostulate
p845
aVneed
p846
aVinvolve
p847
aVdemand
p848
aVlove
p849
aVknow
p850
aVscrew
p851
aVfuck
p852
aVjazz
p853
aVeff
p854
aVhump
p855
aVbed
p856
aVbang
p857
aVbonk
p858
aVtraverse
p859
aVtrack
p860
aVcover
p861
aVcross
p862
aVwonder
p863
aVinquire
p864
aVenquire
p865
aVimpart
p866
aVevoke
p867
aVdenote
p868
aVrealize
p869
aVrealise
p870
aVactualize
p871
aVactualise
p872
aVplow
p873
aVaddress
p874
aVchange
p875
aValter
p876
ag32
ag175
ag44
ag6
ag7
ag56
ag57
ag58
ag59
ag60
aVbe
p877
ag61
aVaccomplish
p878
ag62
ag63
ag64
aVperform
p879
aVexecute
p880
ag19
ag20
ag65
ag66
ag67
ag68
ag69
ag70
ag71
ag72
ag73
ag74
ag75
ag76
aVneaten
p881
ag77
ag78
ag79
ag80
ag81
aVpass
p882
ag82
ag83
ag84
ag85
ag86
ag87
ag88
ag89
ag90
ag91
ag92
ag93
ag94
ag95
ag96
ag97
ag98
ag99
ag100
ag101
ag102
ag103
ag104
ag105
ag106
ag107
ag108
ag2
ag51
ag197
ag198
ag47
ag50
aVgo
p883
ag52
ag54
ag29
ag31
ag394
ag395
ag396
ag756
ag757
ag147
ag148
ag149
aVrefute
p884
aVrebut
p885
ag539
aVfit
p886
ag540
ag541
ag542
ag543
aVagree
p887
aVmeet
p888
aVfill
p889
ag176
ag178
ag179
ag181
ag182
ag183
ag184
ag186
ag187
ag188
ag189
ag190
ag191
ag192
ag193
ag194
ag195
ag196
ag199
ag200
ag201
ag202
ag23
ag24
aVtransform
p890
aVtransmute
p891
ag799
ag141
ag466
ag467
ag468
aVapply
p892
ag469
aVfix
p893
aVprepare
p894
aVready
p895
aVset
p896
aVaffect
p897
ag128
aVtouch
p898
ag495
ag496
ag497
ag498
aVstimulate
p899
ag800
aVstir
p900
ag801
ag802
ag803
aVcatch
p901
ag804
ag805
ag806
ag807
ag808
ag809
ag810
ag811
ag812
ag592
ag347
ag235
ag216
ag132
ag133
ag134
ag236
ag254
ag255
ag256
ag257
ag258
ag259
aVfinish
p902
ag260
ag261
ag262
ag263
ag264
ag265
ag266
ag267
ag270
ag165
ag166
ag167
aVspeed
p903
aVhurry
p904
aVzip
p905
aVrace
p906
aVprocess
p907
aVincur
p908
aVcontinue
p909
ag306
ag307
aVcirculate
p910
aVcircularize
p911
aVcircularise
p912
aVdistribute
p913
aVdisseminate
p914
aVpropagate
p915
aVbroadcast
p916
aVspread
p917
aVdiffuse
p918
aVdisperse
p919
aVtrade
p920
aVmerchandise
p921
aVsail
p922
aVlast
p923
aVendure
p924
aVfree
p925
aVliberate
p926
aVrelease
p927
aVunloose
p928
aVunloosen
p929
aVloose
p930
ag618
ag252
ag253
ag582
ag583
ag584
aVdissolve
p931
aVresolve
p932
aVbreak
p933
aVseparate
p934
aVdisintegrate
p935
aVgive
p936
aVstipulate
p937
aVqualify
p938
aVcondition
p939
aVspecify
p940
aVengage
p941
aVwage
p942
aVyield
p943
aVafford
p944
aVsupport
p945
ag486
aVwield
p946
aVpromote
p947
aVadvance
p948
aVboost
p949
aVfurther
p950
aVencourage
p951
aVrear
p952
aVraise
p953
aVparent
p954
ag313
ag314
ag315
ag316
ag317
ag318
ag319
ag321
ag28
aVconvey
p955
ag322
ag323
ag324
ag325
ag326
ag327
ag328
ag329
ag330
ag331
ag332
ag333
ag334
ag285
ag286
ag287
ag288
ag289
aVrefrain
p956
aVforbear
p957
ag593
aVtalk
p958
aVspeak
p959
aVutter
p960
ag720
aVverbalize
p961
aVverbalise
p962
ag818
ag819
ag470
aVsave
p963
ag820
ag816
ag817
ag821
ag296
aVconjoin
p964
ag515
ag516
ag517
ag518
ag519
aVunite
p965
aVunify
p966
ag231
ag290
ag5
ag10
ag11
ag12
ag13
ag14
ag15
ag16
ag17
ag204
ag205
ag206
ag207
ag208
ag209
ag212
ag213
ag214
ag215
aVfeel
p967
aVexperience
p968
ag704
ag705
ag706
aVkeep
p969
aVhave
p970
ag400
ag533
ag565
aVverify
p971
ag566
ag567
ag568
ag569
aVswear
p972
aVrequest
p973
aVbespeak
p974
aVquest
p975
ag564
aVrelate
p976
aVthink
p977
ag602
ag603
aVresist
p978
aVwithstand
p979
ag109
ag110
ag112
aVpostpone
p980
aVprorogue
p981
aVtable
p982
aVshelve
p983
aVdefer
p984
aVremit
p985
aVrestrain
p986
aVprevent
p987
ag503
aVcommand
p988
aVcover
p989
aVdrink
p990
aVbooze
p991
aVfuddle
p992
ag436
ag437
ag719
ag346
aVsustain
p993
aVimply
p994
aVinvolve
p995
aVrange
p996
aVmaintain
p997
ag295
aVcompensate
p998
aVcounterbalance
p999
aVcorrect
p1000
aVappropriate
p1001
aVseize
p1002
aVconquer
p1003
ag251
aVfollow
p1004
aVfarm
p1005
ag457
ag458
aVnourish
p1006
ag549
aVbirth
p1007
aVtransport
p1008
aVclear
p1009
aVearn
p1010
aVrealize
p1011
aVrealise
p1012
ag297
ag298
ag299
ag300
ag301
ag302
ag303
ag304
ag305
ag308
ag309
ag335
ag237
aVbeautify
p1013
aVembellish
p1014
ag238
ag336
aVmean
p1015
aVintend
p1016
ag385
aVexpress
p1017
ag389
ag390
ag391
ag392
aVdraw
p1018
ag393
ag397
ag398
ag399
aVexpend
p1019
ag717
ag718
aVdecide
p1020
aVdetermine
p1021
ag379
aVrecord
p1022
ag450
ag341
ag842
aVfind
p1023
aVnecessitate
p1024
ag844
ag845
ag846
aVrequire
p1025
ag848
ag224
ag350
ag351
ag849
ag850
ag851
ag852
ag853
ag854
ag855
ag856
ag857
ag858
ag859
ag860
ag862
ag345
aVpopulate
p1026
aVdwell
p1027
aVinhabit
p1028
ag122
ag123
aVinterest
p1029
aVretard
p1030
aVdelay
p1031
aVhalt
p1032
aVblock
p1033
aVkibosh
p1034
aVfasten
p1035
aVpause
p1036
aVintermit
p1037
aVrecumb
p1038
aVrepose
p1039
aVrecline
p1040
ag242
ag244
ag245
ag246
aVsit
p1041
ag338
ag339
ag340
ag343
ag344
ag348
ag352
ag353
ag354
ag355
ag357
ag358
ag359
ag360
ag361
ag362
ag363
ag364
ag365
ag366
ag367
ag369
ag370
ag371
ag372
ag373
ag374
ag376
ag377
ag378
ag381
ag382
ag26
ag27
ag33
ag34
ag35
ag36
ag37
ag38
ag39
ag40
ag42
ag43
ag114
ag115
ag116
ag117
ag118
ag119
ag120
ag121
ag124
ag125
ag126
ag129
ag131
ag135
ag136
ag138
ag139
ag140
ag142
ag143
ag144
ag145
ag146
ag150
ag151
ag152
ag153
ag154
ag156
ag157
ag158
ag160
ag161
ag171
ag173
ag174
ag218
ag219
ag220
ag221
ag225
ag226
ag227
ag228
ag233
ag234
ag239
ag240
ag247
ag248
ag249
ag250
ag271
ag272
ag273
ag275
ag276
ag277
ag278
ag279
ag280
ag281
ag282
ag283
ag284
ag291
ag292
ag293
ag294
ag383
ag384
ag401
ag402
ag403
ag404
ag405
ag406
ag409
ag410
ag411
ag412
ag413
ag414
ag415
ag416
ag417
ag420
ag421
ag422
ag423
ag424
ag425
ag426
ag427
ag428
ag429
ag430
ag431
ag432
ag433
ag434
ag440
ag441
ag442
ag443
ag445
ag446
ag447
ag448
ag449
ag451
ag452
ag453
ag454
ag455
ag456
ag459
ag460
ag461
ag462
ag463
ag464
ag465
ag473
ag474
ag476
ag477
ag478
ag479
ag480
ag481
ag482
ag483
ag484
ag485
ag487
ag488
ag489
ag490
ag491
ag492
ag493
ag494
ag499
ag500
ag501
ag504
ag505
ag506
ag508
ag509
ag510
ag511
ag512
ag513
ag514
ag520
ag521
ag522
ag523
ag524
ag525
ag526
ag527
ag529
ag530
ag531
ag532
ag534
ag535
ag536
ag537
ag538
ag545
ag546
ag547
ag548
ag550
ag551
ag552
ag553
ag555
ag556
ag557
ag558
ag559
ag560
ag563
ag570
ag571
ag572
ag573
ag574
ag575
ag576
ag577
ag578
ag579
ag580
ag581
ag585
ag586
ag587
ag588
ag589
ag590
ag591
ag594
ag595
ag596
ag597
ag598
ag599
ag600
ag601
ag604
ag605
ag606
ag607
ag608
ag609
ag610
ag611
ag612
ag613
ag614
ag615
ag616
ag617
ag619
ag620
ag621
ag622
ag623
ag624
ag625
ag626
ag627
ag628
ag629
ag630
ag631
ag632
ag633
ag634
ag635
ag636
ag637
ag638
ag639
ag640
ag641
ag642
ag643
ag644
ag645
ag646
ag647
ag648
ag649
ag650
ag651
ag652
ag653
ag654
ag656
ag658
ag659
ag660
ag661
ag662
ag663
ag664
ag665
ag666
ag667
ag668
ag669
ag670
ag671
ag672
ag673
ag674
ag675
ag676
ag677
ag678
ag679
ag680
ag681
ag682
ag683
ag684
ag685
ag686
ag687
ag688
ag689
ag690
ag691
ag692
ag693
ag694
ag695
ag696
ag697
ag698
ag699
ag700
ag701
ag702
ag703
ag707
ag708
ag709
ag710
ag711
ag712
ag713
ag714
ag715
ag716
ag721
ag722
ag723
ag724
ag725
ag726
ag727
ag728
ag729
ag730
ag731
ag732
ag733
ag734
ag735
ag737
ag738
ag739
ag741
ag742
ag743
ag744
ag745
ag746
ag747
ag748
ag749
ag750
ag751
ag752
ag753
ag754
ag755
ag758
ag759
ag760
ag761
ag762
ag763
ag764
ag765
ag766
ag767
ag768
ag769
ag770
ag771
ag772
ag773
ag774
ag775
ag776
ag777
ag778
ag779
ag780
ag781
ag782
ag783
ag784
ag785
ag786
ag787
ag788
ag789
ag790
ag791
ag792
ag793
ag794
ag795
ag796
ag798
ag813
ag814
ag822
ag823
ag824
ag825
ag826
ag827
ag829
ag830
ag831
ag833
ag834
ag835
ag836
ag837
ag838
ag839
ag840
ag841
ag863
ag864
ag865
ag866
ag867
ag868
ag871
ag872
ag873
ag874
aVtill
p1042
aVdeform
p1043
aVappeal
p1044
aVinvoke
p1045
aVsenesce
p1046
aVage
p1047
aVcoat
p1048
aVsurface
p1049
aVclothe
p1050
aVenclothe
p1051
aVgarb
p1052
aVraiment
p1053
aVtog
p1054
aVgarment
p1055
aVhabilitate
p1056
aVapparel
p1057
aVhonor
p1058
aVhonour
p1059
aVreward
p1060
aVdeck
p1061
aVoverstate
p1062
aVexaggerate
p1063
aVoverdraw
p1064
aVhyperbolize
p1065
aVhyperbolise
p1066
aVmagnify
p1067
aVamplify
p1068
aVconcur
p1069
aVorganize
p1070
aVorganise
p1071
aVadminister
p1072
aVlot
p1073
aVdispense
p1074
aVallot
p1075
aVcompel
p1076
aVoblige
p1077
aVobligate
p1078
aVdedicate
p1079
aVconsecrate
p1080
aVdevote
p1081
aVdecrease
p1082
aVlessen
p1083
aVminify
p1084
aVcut
p1085
aVadjust
p1086
aVbroach
p1087
aVnegociate
p1088
aVspring
p1089
aVrestore
p1090
aVrejuvenate
p1091
aVobey
p1092
aVimitate
p1093
aVcopy
p1094
aVpractice
p1095
aVpersevere
p1096
aVpersist
p1097
aVsubject
p1098
aVstage
p1099
aVdescend
p1100
aVfall
p1101
aVsolidify
p1102
aVprint
p1103
aVbury
p1104
aVsink
p1105
aVhone
p1106
aVassault
p1107
aVprocreate
p1108
aVmultiply
p1109
aVstation
p1110
aVsing
p1111
aVexpose
p1112
aVexhibit
p1113
aVdisplay
p1114
aVbetray
p1115
aVacquit
p1116
aVdeport
p1117
aVcomport
p1118
aVdevise
p1119
aVmachinate
p1120
aVlevy
p1121
aVimpose
p1122
aVarrogate
p1123
aVsubstitute
p1124
aVtype
p1125
aVtypewrite
p1126
aVswitch
p1127
aVlose
p1128
aVweaken
p1129
aVelapse
p1130
aVlapse
p1131
aVdiminish
p1132
aVforestall
p1133
aVforeclose
p1134
aVpreclude
p1135
aVforbid
p1136
aVinterrupt
p1137
aVdisrupt
p1138
aVgrab
p1139
aVobstruct
p1140
aVobturate
p1141
aVimpede
p1142
aVocclude
p1143
aVjam
p1144
aVinflect
p1145
aVconsent
p1146
aVsuit
p1147
aVadapt
p1148
aVaccommodate
p1149
aVinvestigate
p1150
aVpublicize
p1151
aVpublicise
p1152
aVair
p1153
aVbare
p1154
aVexude
p1155
aVexudate
p1156
aVtransude
p1157
aVooze
p1158
aVoutlaw
p1159
aVcriminalize
p1160
aVcriminalise
p1161
aVillegalize
p1162
aVillegalise
p1163
aVclean
p1164
aVwithhold
p1165
aVworsen
p1166
aVdecline
p1167
aVsmooth
p1168
aVsmoothen
p1169
aVmilk
p1170
aVredirect
p1171
aVairt
p1172
aVgasify
p1173
aVvaporize
p1174
aVvaporise
p1175
aVaerify
p1176
aVoutstrip
p1177
aVoutmatch
p1178
aVoutgo
p1179
aVexceed
p1180
aVoutdo
p1181
aVsurmount
p1182
aVoutperform
p1183
aVrevise
p1184
aVrectify
p1185
aVright
p1186
aVtie
p1187
aVadjoin
p1188
aVcontact
p1189
aVopen
p1190
aVstock
p1191
aVveto
p1192
aVblackball
p1193
aVnegative
p1194
aVoverwhelm
p1195
aVoverpower
p1196
aVwhelm
p1197
aVovercome
p1198
aVovertake
p1199
aVfalsify
p1200
aVdistort
p1201
aVgarble
p1202
aVwarp
p1203
aVship
p1204
aVvalidate
p1205
aVformalize
p1206
aVformalise
p1207
aVcontract
p1208
aVundertake
p1209
aVhire
p1210
aVgesticulate
p1211
aVgesture
p1212
aVmotion
p1213
aVcontest
p1214
aVrepugn
p1215
aVbid
p1216
aVobject
p1217
aVcope
p1218
aVgrapple
p1219
aVforgather
p1220
aVforegather
p1221
aVunwrap
p1222
aVdisclose
p1223
aVreveal
p1224
aVdivulge
p1225
aVdigest
p1226
aVstomach
p1227
aVstand
p1228
aVtolerate
p1229
aVbrook
p1230
aVabide
p1231
aVrequite
p1232
aVrepay
p1233
aVabsorb
p1234
aVengross
p1235
aVworry
p1236
aVtire
p1237
aVwear
p1238
aVweary
p1239
aVjade
p1240
aVoutwear
p1241
aVfag
p1242
aVfatigue
p1243
aVempty
p1244
aVdecree
p1245
aVinvest
p1246
aVvest
p1247
aVenthrone
p1248
aVlend
p1249
aVloan
p1250
aVcovenant
p1251
aVportion
p1252
aVforecast
p1253
aVdiscount
p1254
aVmesh
p1255
aVlock
p1256
aVdiscompose
p1257
aVuntune
p1258
aVdisconcert
p1259
aVdiscomfit
p1260
aVmold
p1261
aVmould
p1262
aVforge
p1263
aVdislodge
p1264
aVbump
p1265
aVrelinquish
p1266
aVdefeat
p1267
aVpolish
p1268
aVfine-tune
p1269
aVdown
p1270
aVinflict
p1271
aVplease
p1272
aVdelight
p1273
aVsteer
p1274
aVmaneuver
p1275
aVmanoeuver
p1276
aVmanoeuvre
p1277
aVpoint
p1278
aVconstruct
p1279
aVbuild
p1280
aVusurp
p1281
aVhook
p1282
aVintrigue
p1283
aVrepel
p1284
aVrepulse
p1285
aVdisgust
p1286
aVrevolt
p1287
aVharm
p1288
aVcomplect
p1289
aVinterconnect
p1290
aVinterlink
p1291
aVderive
p1292
aVexpound
p1293
aVexposit
p1294
aVarouse
p1295
aVelicit
p1296
aVenkindle
p1297
aVkindle
p1298
aVfire
p1299
aVprovoke
p1300
aVinhale
p1301
aVinspire
p1302
aVpen
p1303
aVindite
p1304
aVshut
p1305
aVstretch
p1306
aVequalize
p1307
aVequalise
p1308
aVequate
p1309
aVthin
p1310
aVsteep
p1311
aVinfuse
p1312
aVlocalize
p1313
aVlocalise
p1314
aVprobe
p1315
aVindispose
p1316
aVhanker
p1317
aVlong
p1318
aVyearn
p1319
aVtend
p1320
aVlean
p1321
aVincline
p1322
aVsurprise
p1323
aVboard
p1324
aVcontain
p1325
aVcurb
p1326
aVmoderate
p1327
aVerupt
p1328
aVignite
p1329
aVcombust
p1330
aVconflagrate
p1331
aVcollect
p1332
aVaccumulate
p1333
aVamass
p1334
aVcompile
p1335
aVhoard
p1336
aVwitness
p1337
aVdetain
p1338
aVdisplease
p1339
aVharass
p1340
aVhassle
p1341
aVharry
p1342
aVchivy
p1343
aVchivvy
p1344
aVchevy
p1345
aVchevvy
p1346
aVbeset
p1347
aVplague
p1348
aVmolest
p1349
aVspiel
p1350
aVmock
p1351
aVbemock
p1352
aVfragment
p1353
aVfragmentize
p1354
aVfragmentise
p1355
aVstrive
p1356
aVstrain
p1357
aVintrude
p1358
aVirrupt
p1359
aVagitate
p1360
aVrouse
p1361
aVcommove
p1362
aVflurry
p1363
aVaggravate
p1364
aVexacerbate
p1365
aVexasperate
p1366
aVbite
p1367
aVsting
p1368
aVburn
p1369
aVperturb
p1370
aVunhinge
p1371
aVdisquiet
p1372
aVcark
p1373
aVdistract
p1374
aVdisorder
p1375
aVabrade
p1376
aVcorrade
p1377
aVabrase
p1378
aVwarm
p1379
aVsensitize
p1380
aVsensitise
p1381
aVrepeat
p1382
aVecho
p1383
aVunmake
p1384
aVundo
p1385
aVthwart
p1386
aVqueer
p1387
aVspoil
p1388
aVscotch
p1389
aVfoil
p1390
aVfrustrate
p1391
aVbaffle
p1392
aVbilk
p1393
aVimpoverish
p1394
aVwaste
p1395
aVdevastate
p1396
aVdesolate
p1397
aVravage
p1398
aVscourge
p1399
aVdecay
p1400
aVcrumble
p1401
aVdilapidate
p1402
aVmistake
p1403
aVmisidentify
p1404
aVembarrass
p1405
aVabash
p1406
aVpiece
p1407
aVtack
p1408
aVspot
p1409
aVintoxicate
p1410
aVinebriate
p1411
aVgreet
p1412
aVrecognize
p1413
aVrecognise
p1414
aVcelebrate
p1415
aVfete
p1416
aVpartake
p1417
aVadmit
p1418
aVinnovate
p1419
aVexplore
p1420
aVasseverate
p1421
aVinfer
p1422
aVtow
p1423
aVurge
p1424
aVpress
p1425
aVexhort
p1426
aVpraise
p1427
aVnear
p1428
aVadvertise
p1429
aVadvertize
p1430
aVthrust
p1431
aVcoerce
p1432
aVhale
p1433
aVpressure
p1434
aVexcavate
p1435
aVdig
p1436
aVhollow
p1437
aVpower
p1438
aVhunt
p1439
aVenable
p1440
aVintensify
p1441
aVdeepen
p1442
aVlodge
p1443
aVfile
p1444
aVwish
p1445
aVrepair
p1446
aVmend
p1447
aVbushel
p1448
aVdoctor
p1449
aVexercise
p1450
aVride
p1451
aVdrag
p1452
aVdominate
p1453
aVmaster
p1454
aVexact
p1455
aVdefine
p1456
aVdelimit
p1457
aVdelimitate
p1458
aVreiterate
p1459
aVingeminate
p1460
aViterate
p1461
aVrestate
p1462
aVretell
p1463
aVmelt
p1464
aVinseminate
p1465
aVfecundate
p1466
aVfertilize
p1467
aVfertilise
p1468
aVincise
p1469
aVbill
p1470
aVsmell
p1471
aVtighten
p1472
aVintertwine
p1473
aVtwine
p1474
aVentwine
p1475
aVenlace
p1476
aVinterlace
p1477
aVlace
p1478
aVlift
p1479
aVelevate
p1480
aVlarn
p1481
aVaccost
p1482
aVresign
p1483
aVrecompense
p1484
aVindemnify
p1485
aVtoast
p1486
aVsalute
p1487
aVwassail
p1488
aVgrant
p1489
aVsubmit
p1490
aVoffer
p1491
aVproffer
p1492
aVwane
p1493
aVdiscontinue
p1494
aVquit
p1495
aVhang
p1496
aVcan
p1497
aVdismiss
p1498
aVsack
p1499
aVpour
p1500
aVdrug
p1501
aVelide
p1502
aVvow
p1503
aVprocure
p1504
aVdisown
p1505
aVrenounce
p1506
aVrepudiate
p1507
aVisolate
p1508
aVinsulate
p1509
aVfold
p1510
aVretire
p1511
aVpall
p1512
aVboat
p1513
aVrestrict
p1514
aVtrammel
p1515
aVbound
p1516
aVthrottle
p1517
aVdisunite
p1518
aVdivide
p1519
aVpart
p1520
aVcry
p1521
aVweep
p1522
aValign
p1523
aVarray
p1524
aVfashion
p1525
aVdesire
p1526
aVwant
p1527
aVprohibit
p1528
aVinterdict
p1529
aVproscribe
p1530
aVdisallow
p1531
aVnix
p1532
aVadministrate
p1533
aVpity
p1534
aVcompassionate
p1535
aVmind
p1536
aVrevalue
p1537
aVlucubrate
p1538
aVexpatiate
p1539
aVenlarge
p1540
aVdilate
p1541
aVtest
p1542
aVprove
p1543
aVtry
p1544
aVessay
p1545
aVdistinguish
p1546
aVdifferentiate
p1547
aVsecern
p1548
aVsecernate
p1549
aVseveralize
p1550
aVseveralise
p1551
aVdisengage
p1552
aVprolong
p1553
aVascend
p1554
aVtackle
p1555
aVreturn
p1556
aVglare
p1557
aVhumiliate
p1558
aVmortify
p1559
aVchagrin
p1560
aVhumble
p1561
aVabase
p1562
aVbruise
p1563
aVcontuse
p1564
aVbombard
p1565
aVbomb
p1566
aVemerge
p1567
aVitemize
p1568
aVitemise
p1569
aVcategorize
p1570
aVcategorise
p1571
aVtense
p1572
aVlengthen
p1573
aVprotract
p1574
aVquestion
p1575
aVquery
p1576
aVconfront
p1577
aVface
p1578
aVconform
p1579
aVblockade
p1580
aVhinder
p1581
aVstymie
p1582
aVstymy
p1583
aVconsign
p1584
aVaggress
p1585
aVcrack
p1586
aVtease
p1587
aVrazz
p1588
aVcod
p1589
aVtantalize
p1590
aVtantalise
p1591
aVbait
p1592
aVtaunt
p1593
aVtwit
p1594
aVrally
p1595
aVtip
p1596
aVenclose
p1597
aVinclose
p1598
aVslope
p1599
aVpitch
p1600
aVdonate
p1601
aVbind
p1602
aVventure
p1603
aVpretend
p1604
aVhazard
p1605
aVapprove
p1606
aVO.K.
p1607
aVokay
p1608
aVsanction
p1609
aVfinance
p1610
aVargue
p1611
aVreassert
p1612
aVinsist
p1613
aVposit
p1614
aVacknowledge
p1615
aVsweep
p1616
aVcomfort
p1617
aVsoothe
p1618
aVconsole
p1619
aVsolace
p1620
aVstabilize
p1621
aVstabilise
p1622
aVsuppress
p1623
aVinhibit
p1624
aVsubdue
p1625
aVhush
p1626
aVsilence
p1627
aVtestify
p1628
aVattest
p1629
aVsummon
p1630
aVsummons
p1631
aVcite
p1632
aVbarricade
p1633
aVbar
p1634
aVconverse
p1635
aVdiscourse
p1636
aVannounce
p1637
aVenounce
p1638
aVenunciate
p1639
aVattempt
p1640
aVassay
p1641
aVdissemble
p1642
aVpalm
p1643
aVprice
p1644
aVcredit
p1645
aVbide
p1646
aVafflict
p1647
aVsmite
p1648
aVtelecommunicate
p1649
aVdispute
p1650
aVgainsay
p1651
aVentice
p1652
aVlure
p1653
aVtempt
p1654
aVawaken
p1655
aVwake
p1656
aVwaken
p1657
aVjourney
p1658
aVshake
p1659
aVnote
p1660
aVmention
p1661
aVremark
p1662
aVcertify
p1663
aVmanifest
p1664
aVdemonstrate
p1665
aVevidence
p1666
aVsweeten
p1667
aVdulcify
p1668
aVedulcorate
p1669
aVdulcorate
p1670
aVsurvey
p1671
aVsolicit
p1672
aVbeg
p1673
aVtap
p1674
aVawait
p1675
aVwait
p1676
aVencode
p1677
aVgrok
p1678
aVsavvy
p1679
aVgrasp
p1680
aVcompass
p1681
aVapprehend
p1682
aVregulate
p1683
aVgovern
p1684
aVmingle
p1685
aVcommix
p1686
aVamalgamate
p1687
aVcompound
p1688
aVintermix
p1689
aVimmingle
p1690
aVintermingle
p1691
aVliquefy
p1692
aVliquify
p1693
aVcontribute
p1694
aVintegrate
p1695
aVdiscern
p1696
aVpresume
p1697
aVhabituate
p1698
aVaccustom
p1699
aVpurify
p1700
aVdistill
p1701
aVattenuate
p1702
aVclarify
p1703
aVelucidate
p1704
aVapologize
p1705
aVapologise
p1706
aVexcuse
p1707
aVjustify
p1708
aVrationalize
p1709
aVrationalise
p1710
aVcarve
p1711
aVdivert
p1712
aVchase
p1713
aVtrail
p1714
aVtail
p1715
aVtag
p1716
aVdog
p1717
aVnock
p1718
aVreinforce
p1719
aVreenforce
p1720
aVendeavor
p1721
aVendeavour
p1722
aVrap
p1723
aVknap
p1724
aVcomment
p1725
aVexplain
p1726
aVexplicate
p1727
aVbetoken
p1728
aVsignal
p1729
aVenlist
p1730
aVdraft
p1731
aVaffix
p1732
aVlist
p1733
aVinstall
p1734
aVinstal
p1735
aVuphold
p1736
aVorient
p1737
aVorientate
p1738
aVrescue
p1739
aVreserve
p1740
aVbook
p1741
aVovercharge
p1742
aVsurcharge
p1743
aVgazump
p1744
aVfleece
p1745
aVplume
p1746
aVpluck
p1747
aVrob
p1748
aVgrip
p1749
aVclasp
p1750
aVdance
p1751
aVbounce
p1752
aVresile
p1753
aVrebound
p1754
aVrecoil
p1755
aVreverberate
p1756
aVricochet
p1757
aVwaive
p1758
aVforgo
p1759
aVforego
p1760
aVforeswear
p1761
aVfence
p1762
aVcontrast
p1763
aVcounterpoint
p1764
aVdisprove
p1765
aVconfute
p1766
aVshew
p1767
aVperplex
p1768
aVstick
p1769
aVpuzzle
p1770
aVmystify
p1771
aVbewilder
p1772
aVflummox
p1773
aVstupefy
p1774
aVnonplus
p1775
aVamaze
p1776
aVdumbfound
p1777
aVavoid
p1778
aVflee
p1779
aVfly
p1780
aVegress
p1781
aVrefuse
p1782
aVmonitor
p1783
aVsupervise
p1784
aVcharacterize
p1785
aVcharacterise
p1786
aVdeface
p1787
aVdisfigure
p1788
aVblemish
p1789
aVflood
p1790
aVbleed
p1791
aVhemorrhage
p1792
aVregale
p1793
aVenrich
p1794
aVradiate
p1795
aVshine
p1796
aVbeam
p1797
aVwash
p1798
aVlaunder
p1799
aVlave
p1800
aVwet
p1801
aVextinguish
p1802
aVquench
p1803
aVdunk
p1804
aVdip
p1805
aVplunge
p1806
aVimmerse
p1807
aVfurl
p1808
aVslacken
p1809
aVdivine
p1810
aVheat
p1811
aVbribe
p1812
aVcorrupt
p1813
aVsecrete
p1814
aVappend
p1815
aVacquaint
p1816
aVproject
p1817
aVflatter
p1818
aVblandish
p1819
aVengulf
p1820
aVassimilate
p1821
aVhypnotize
p1822
aVhypnotise
p1823
aVmesmerize
p1824
aVmesmerise
p1825
aVrule
p1826
aVreorder
p1827
aVdie
p1828
aVdecease
p1829
aVperish
p1830
aVexpire
p1831
aVconk
p1832
aVchoke
p1833
aVcroak
p1834
aVallocate
p1835
aVapportion
p1836
aVwrong
p1837
aVoverhaul
p1838
aVrid
p1839
aVdisembarrass
p1840
aVprofit
p1841
aVbenefit
p1842
aVentitle
p1843
aVtitle
p1844
aVabridge
p1845
aVforeshorten
p1846
aVabbreviate
p1847
aVshorten
p1848
aVreduce
p1849
aVconverge
p1850
aVsharpen
p1851
aValine
p1852
aVpresuppose
p1853
aVlike
p1854
aVagnize
p1855
aVagnise
p1856
aVremember
p1857
aVretrieve
p1858
aVrecall
p1859
aVrecollect
p1860
aVrevolve
p1861
aVrotate
p1862
aVhide
p1863
aVconceal
p1864
aVendow
p1865
aVindue
p1866
aVempower
p1867
aVendue
p1868
aVdeputize
p1869
aVdeputise
p1870
aVenvelop
p1871
aVenfold
p1872
aVenwrap
p1873
aVwrap
p1874
aVencounter
p1875
aVintersect
p1876
aVbreed
p1877
aVcognize
p1878
aVcognise
p1879
aVtarget
p1880
aVaccess
p1881
ag26
ag27
ag28
ag29
ag30
aVmove
p1882
ag31
aVchange
p1883
ag876
ag32
ag33
ag34
ag35
ag36
ag37
ag38
ag39
ag40
ag41
ag271
ag175
ag44
ag6
ag7
ag56
ag57
ag58
ag59
ag60
ag877
ag61
ag878
ag62
ag63
ag64
ag879
ag880
ag19
ag20
ag65
ag66
ag67
ag68
ag69
ag70
ag71
ag72
ag73
ag74
ag75
ag76
ag881
ag77
ag78
ag79
ag80
ag81
ag882
ag82
ag83
ag84
ag85
ag86
ag87
ag88
ag89
ag90
ag91
ag92
ag93
ag94
ag95
ag96
ag97
ag98
ag99
ag100
ag101
ag102
ag103
ag104
ag105
ag106
ag107
ag108
ag47
ag48
ag49
ag50
ag51
ag52
ag54
ag216
aVtransmit
p1884
ag337
ag338
ag339
ag340
ag341
ag342
ag343
ag344
ag345
aVcommunicate
p1885
ag346
ag1015
ag1016
ag347
ag348
ag349
ag350
ag351
ag352
ag353
ag354
ag355
aVleave
p1886
ag356
ag357
ag358
ag359
ag360
ag361
ag362
ag363
ag364
ag365
ag366
ag367
aVtouch
p1887
ag368
ag369
ag181
ag182
ag370
ag371
ag372
aVthrow
p1888
ag373
ag374
ag375
ag376
ag377
ag378
aVexperience
p1889
ag379
ag380
ag381
ag382
ag291
ag292
ag293
ag294
ag383
ag384
ag385
ag18
ag1017
ag386
ag387
ag388
ag389
ag390
ag17
ag391
ag392
ag393
ag394
ag395
ag396
ag397
ag398
ag399
ag400
ag207
ag208
ag209
ag211
ag212
ag213
ag214
ag215
ag23
ag24
ag296
aVfinish
p1890
ag401
ag137
ag138
ag402
ag403
ag404
ag405
ag406
ag407
ag408
ag409
ag237
ag1013
ag1014
ag238
ag297
ag298
ag299
ag300
ag301
ag302
ag303
ag304
ag305
ag306
ag307
aVapply
p1891
ag308
ag204
ag205
ag206
ag410
aVfit
p1892
ag411
ag412
ag413
ag414
ag415
ag416
ag417
ag418
ag419
ag420
ag421
ag422
ag423
ag424
ag425
ag426
ag427
ag428
ag429
ag313
ag430
ag431
ag432
ag433
ag434
ag435
ag436
ag437
ag438
ag439
ag440
ag441
ag442
aVassign
p1893
ag443
ag444
aVset
p1894
aVsupply
p1895
aVprovide
p1896
ag445
ag446
ag447
ag448
aVadvance
p1897
ag449
ag1022
ag450
ag451
aVwrite
p1898
ag452
aVevaluate
p1899
ag453
ag454
ag455
ag456
ag457
ag458
ag897
ag128
ag459
ag460
ag122
ag123
ag141
aVconsume
p1900
ag461
ag462
ag463
ag464
ag465
ag466
ag467
ag468
ag469
ag470
ag471
ag472
ag473
ag474
ag475
ag476
ag477
ag478
ag479
ag480
ag481
ag482
ag483
ag484
aVstrip
p1901
ag485
ag486
ag487
ag488
ag489
ag490
ag491
ag492
aVsearch
p1902
ag493
aVorder
p1903
ag494
ag495
ag496
ag497
ag498
ag224
ag499
ag500
ag501
aVdesignate
p1904
ag502
ag503
ag504
ag161
ag505
ag506
ag231
ag507
ag508
ag509
ag510
ag511
ag512
ag513
aVform
p1905
aVexhaust
p1906
ag332
ag333
ag334
aVrelease
p1907
ag514
ag515
ag516
ag517
ag518
ag519
ag318
ag319
ag321
ag955
ag256
ag257
ag324
ag325
ag327
ag328
ag329
ag331
ag520
ag521
ag522
ag523
ag524
ag525
ag526
ag527
ag528
ag529
ag530
ag531
ag532
ag132
ag133
ag134
ag533
aVrun
p1908
ag534
ag535
ag536
ag537
ag538
ag539
ag540
ag541
ag542
ag543
ag887
ag544
ag545
ag546
ag547
ag548
ag549
ag550
ag551
ag552
ag295
aVwork
p1909
ag553
ag554
ag555
ag556
ag557
ag558
ag559
ag560
ag561
ag562
ag563
ag564
ag565
ag566
ag567
ag568
ag569
ag570
ag571
ag572
ag573
ag574
ag575
ag576
ag577
ag160
ag290
ag578
ag579
ag580
ag581
ag582
ag583
ag584
ag585
ag586
ag587
ag588
ag589
ag590
ag591
ag592
ag593
ag594
ag595
ag596
ag597
ag598
ag599
ag600
ag601
ag977
ag602
ag603
ag604
ag605
ag606
ag607
ag608
aVconsort
p1910
ag609
ag610
ag611
ag612
ag613
ag614
ag615
ag616
ag617
ag618
ag619
ag620
ag621
ag622
ag623
ag624
ag625
ag626
ag627
ag174
ag628
ag629
ag630
ag631
ag632
ag633
ag634
ag109
ag110
ag111
ag112
ag635
ag636
ag637
ag638
ag639
ag640
ag641
ag642
ag643
ag644
ag645
ag646
ag647
ag648
ag649
ag650
ag651
ag652
ag653
ag654
ag147
ag148
ag655
ag656
ag657
ag658
ag659
ag660
ag661
ag285
ag286
ag287
ag288
ag289
ag662
ag663
ag664
ag665
ag666
ag667
ag668
ag669
ag670
ag671
ag672
ag673
ag674
ag675
ag676
ag677
ag678
ag679
ag5
ag10
ag11
ag12
ag13
ag14
ag15
ag16
ag310
ag189
ag190
ag309
ag311
ag312
ag254
ag258
ag259
ag260
ag261
ag262
ag263
ag264
ag266
ag267
ag165
ag167
ag315
ag316
ag335
ag252
ag253
ag868
ag1421
aVmaintain
p1911
ag719
ag168
aVrecite
p1912
ag124
ag125
ag126
ag171
ag1422
aVplace
p1913
ag756
ag757
ag796
ag797
ag798
ag799
ag894
ag895
aVoperate
p1914
ag800
ag801
ag802
ag803
ag804
ag805
ag806
ag807
ag808
ag809
ag810
ag811
ag812
ag235
ag1505
ag1506
ag1507
ag1765
ag1766
ag1086
aVcorrect
p1915
ag1218
ag1219
ag1577
ag1578
ag1579
aVadapt
p1916
ag135
ag1149
ag986
aVkeep
p1917
aVhalt
p1918
aVobstruct
p1919
ag1580
aVblock
p1920
ag1581
ag1582
ag1583
aVembarrass
p1921
ag1584
aVdefend
p1922
ag1585
aVissue
p1923
aVcut
p1924
ag1586
ag922
ag1587
ag1588
ag1589
ag1590
ag1591
ag1592
ag1593
ag1594
ag1595
aVride
p1925
aVaccept
p1926
ag1146
ag1147
ag1220
ag1221
ag1210
ag1446
ag1447
ag1448
ag1449
aVrestore
p1927
ag884
ag885
ag176
ag178
ag183
ag191
ag192
ag193
ag194
ag195
ag196
ag199
ag200
ag201
ag202
ag236
ag904
ag905
ag907
ag908
ag910
ag911
ag912
ag913
ag914
ag915
ag916
ag917
ag918
ag919
ag920
ag921
ag923
ag924
ag925
ag926
ag928
ag929
ag930
ag931
ag933
ag935
ag937
ag938
ag939
ag942
ag943
ag944
ag946
ag947
ag949
ag950
ag951
ag952
ag953
ag954
ag956
ag957
ag720
ag818
ag819
ag963
ag820
ag816
ag817
ag821
ag964
ag965
ag966
ag774
ag775
ag776
aVexchange
p1928
ag974
ag975
ag989
ag1072
ag1073
ag1074
ag1075
ag1076
ag1077
ag1078
ag1079
ag1080
ag1081
ag242
ag245
ag246
ag1099
ag1100
ag1101
aVstart
p1929
ag1102
ag1103
ag1104
ag1105
ag1106
ag1107
ag1108
ag1109
ag114
ag115
ag743
ag744
ag687
ag688
ag689
ag690
ag691
ag692
ag693
ag1533
ag1087
ag152
ag1116
ag1117
aVconduct
p1930
ag1118
ag1534
ag1535
ag1526
ag1527
ag1536
ag1295
ag1296
ag1297
ag1298
aVevoke
p1931
ag1299
ag1300
ag1380
ag1381
ag1659
aVinterpret
p1932
aVappeal
p1933
ag1281
aVarrogate
p1934
ag1323
ag1324
ag1325
ag1326
ag1327
aVcontract
p1935
ag1328
ag1329
ag1330
ag1331
ag1332
ag1333
ag1334
ag1335
ag1336
ag1337
aVdelay
p1936
ag1338
aVcheat
p1937
aVchisel
p1938
aVinterest
p1939
aVtempt
p1940
ag1822
ag1823
ag1824
ag1825
ag1272
ag1273
ag1643
ag1644
ag680
ag1042
ag707
ag708
ag1043
ag1045
ag1046
ag1047
aVmature
p1941
aVmaturate
p1942
ag760
ag1088
ag1128
ag1129
ag1130
ag1131
aVdecrease
p1943
ag1132
aVlessen
p1944
aVprevent
p1945
ag1133
ag1134
ag1135
ag1136
ag1137
ag1138
ag1139
ag1141
ag1142
ag1143
ag1144
ag1048
ag1049
ag1145
ag1111
ag1150
ag718
ag1024
ag844
ag845
ag846
ag847
ag848
ag849
ag850
ag851
ag852
ag853
ag854
ag855
ag856
ag857
ag858
ag859
ag860
ag862
ag1441
ag1442
ag1424
ag1425
ag1426
ag1035
aVwalk
p1946
ag1098
ag1553
aVsustain
p1947
ag1151
ag1152
ag1153
ag1154
ag777
ag778
ag779
aVpoll
p1948
aVscatter
p1949
aVsow
p1950
aVseed
p1951
aVundo
p1952
ag145
ag146
aVdivide
p1953
aVpart
p1954
aVsplit
p1955
ag151
aVjourney
p1956
ag1513
aVdefy
p1957
aVwithstand
p1958
aVforgive
p1959
ag1155
ag1156
ag1157
ag1158
aVuntie
p1960
aVunbrace
p1961
aVunlace
p1962
ag1266
ag1635
ag1636
aVoppose
p1963
ag1257
ag1258
ag1259
ag1260
ag1692
ag1693
ag1069
aVspot
p1964
aVrecognize
p1965
aVrecognise
p1966
aVdistinguish
p1967
ag1696
aVdisrespect
p1968
aVescape
p1969
aVdissipate
p1970
aVtrespass
p1971
aVintrude
p1972
aVdomesticate
p1973
aVdomesticize
p1974
aVdomesticise
p1975
aVreclaim
p1976
aVtame
p1977
ag1177
ag1178
ag1179
ag1180
ag1181
ag1182
ag1183
ag1779
ag1780
aVcollapse
p1978
aVfounder
p1979
aVdeaden
p1980
aVblunt
p1981
ag1494
ag1495
aVemerge
p1982
aVinvalidate
p1983
aVannul
p1984
aVquash
p1985
aVvoid
p1986
aVavoid
p1987
aVnullify
p1988
ag247
ag249
ag1394
ag1127
aVshift
p1989
ag1751
aVshoot
p1990
ag1518
ag1400
ag1401
ag1402
aVdetach
p1991
aVdiphthongize
p1992
aVdiphthongise
p1993
ag1570
ag1571
ag1547
ag1548
ag1549
ag1550
ag1551
aVdiverge
p1994
ag1483
aVcompensate
p1995
ag1484
ag1485
aVstretch
p1996
ag1486
ag1487
ag1488
ag1489
ag173
ag1490
ag1271
aVimpose
p1997
ag1491
ag1492
ag1209
ag766
aVremember
p1998
aVshampoo
p1999
ag1538
ag1539
aVexposit
p2000
ag1540
aVexpound
p2001
ag1541
ag1503
ag709
ag710
ag1504
ag1828
ag1829
ag1830
ag1831
ag1832
ag1833
ag1834
ag1009
ag1010
ag1011
ag1012
ag1606
ag1607
ag1608
ag1609
ag1611
aVconnect
p2002
aVlink
p2003
ag1187
ag1427
ag1249
ag1250
ag1479
ag1480
ag1431
aVinspire
p2004
aVanimate
p2005
aVinvigorate
p2006
aVenliven
p2007
aVexalt
p2008
ag1279
ag1280
aVcompound
p2009
aVheighten
p2010
aVbid
p2011
aVenlist
p2012
ag1731
aVmention
p2013
aVadvert
p2014
aVcite
p2015
aVarticulate
p2016
ag1638
ag1639
aVincite
p2017
aVinstigate
p2018
aVcontact
p2019
aVresuscitate
p2020
aVrevive
p2021
ag1226
ag1227
ag1228
ag1229
ag1230
ag1231
ag1232
ag1233
ag1234
ag1235
ag1236
ag1237
ag1238
ag1239
ag1240
ag1241
ag1242
ag1243
ag1244
ag1245
ag1246
ag1247
ag1248
ag866
ag1251
ag1252
ag1253
ag1254
ag1255
ag1256
ag1261
ag1262
ag1263
ag1264
ag1265
aVovercome
p2022
ag1267
ag1184
ag1185
ag1186
ag1222
ag1223
ag1224
aVexpose
p2023
ag1225
aVpretend
p2024
aVdissemble
p2025
ag739
ag1739
ag1740
ag1741
ag702
ag1440
ag1835
ag1836
aVintroduce
p2026
ag1816
ag1412
ag1113
ag1114
ag1557
aVagitate
p2027
aVcommove
p2028
ag1353
ag1354
ag1355
ag1558
ag1559
ag1560
ag1561
ag1562
ag1563
ag1564
ag1565
ag1566
ag711
ag712
ag713
ag1695
ag1070
ag1071
ag1188
ag42
ag43
ag117
ag118
ag119
ag120
ag121
ag129
ag130
ag131
ag139
ag140
ag142
ag143
ag144
ag153
ag154
ag156
ag157
ag158
ag170
ag967
ag704
ag705
ag706
ag980
ag981
ag982
ag983
ag984
ag985
ag991
ag996
ag999
ag1001
ag1003
ag1004
ag1005
ag1006
ag1007
ag1026
ag1027
ag1028
ag1030
ag1034
ag1036
ag1037
ag1038
ag1039
ag1040
ag1041
aVlodge
p2029
aVinhibit
p2030
aVsuppress
p2031
aVstore
p2032
ag221
ag734
ag735
ag737
ag1542
ag1543
ag1544
ag1545
ag1612
ag1613
ag1614
aVadmit
p2033
ag1615
ag1616
ag863
ag864
ag865
ag1713
ag1714
ag1715
ag1716
ag1717
aVbark
p2034
ag1672
ag1673
ag1674
ag684
ag685
ag836
ag837
ag838
ag839
ag840
ag841
ag1645
ag753
ag751
ag752
ag758
ag681
ag682
ag683
aVadjourn
p2035
aVretire
p2036
aVsuccumb
p2037
aVloosen
p2038
ag1514
ag1515
ag1516
ag1517
aVdiscourage
p2039
ag1453
ag1454
ag1455
ag1863
ag1864
ag1865
ag1866
ag1867
ag1868
aVsubstitute
p2040
ag1869
ag1870
ag1871
ag1872
ag1873
ag1874
aVenclose
p2041
ag1050
ag1051
ag1052
ag1053
ag1054
ag1055
ag1056
ag1057
ag1058
ag1059
ag1060
aVsteep
p2042
aVimmerse
p2043
ag1820
aVplunge
p2044
aVhabituate
p2045
ag1410
aVsoak
p2046
ag1411
ag1268
ag1269
ag1270
ag1450
ag1452
ag1289
ag1290
ag1291
ag1736
aVpreserve
p2047
ag769
ag770
ag771
ag772
ag1763
ag1764
aVoffset
p2048
ag813
aVrebuke
p2049
aVreproof
p2050
aVlecture
p2051
aVreprimand
p2052
aVjaw
p2053
aVscold
p2054
aVchide
p2055
aVberate
p2056
aVlambaste
p2057
aVlambast
p2058
ag1282
ag1195
ag1196
ag1197
ag1199
ag1283
ag1125
ag1126
ag1092
ag1093
ag1094
ag1095
ag1096
ag1097
ag1838
ag1703
ag1704
ag1839
ag1840
ag1841
ag1842
ag1878
ag1879
ag1192
ag1193
ag1194
ag1200
ag1201
ag1202
ag1203
ag1204
ag1205
ag1206
ag1207
ag1211
ag1212
ag1213
ag1214
ag1215
ag1217
ag1062
ag1063
ag1064
ag1065
ag1066
ag1067
ag1068
ag834
ag871
ag872
ag732
ag733
aVmark
p2059
ag1292
ag1301
ag1303
ag1304
ag1305
ag1307
ag1308
ag1309
ag1310
ag1312
ag1313
ag1314
ag1726
ag1727
aVrepeat
p2060
ag1459
ag1460
ag1461
ag1462
ag1463
aVregulate
p2061
ag1456
aVdelineate
p2062
ag1457
ag1458
ag1415
ag1416
ag1417
ag725
ag742
ag714
ag716
ag761
ag762
ag763
ag764
ag765
ag276
ag277
ag278
aVaddress
p2063
ag1853
ag1630
ag1631
ag1854
ag1855
ag1856
ag1858
ag1859
ag1860
ag1861
ag1862
ag1472
ag1350
ag1875
aVfold
p2064
ag1876
ag1877
ag1284
ag1285
ag1166
ag1167
ag1286
ag1287
ag1288
aVdecelerate
p2065
aVslow
p2066
aVwait
p2067
aVanesthetize
p2068
aVanaesthetize
p2069
aVanesthetise
p2070
aVanaesthetise
p2071
aVemboss
p2072
aVboss
p2073
aVstamp
p2074
aVclog
p2075
aVcongest
p2076
aVfoul
p2077
aVfence
p2078
ag1165
aVlean
p2079
aVtilt
p2080
aVtip
p2081
aVslant
p2082
aVangle
p2083
ag1110
ag1115
ag1119
ag1120
ag1121
ag824
ag825
aVconvene
p2084
aVguard
p2085
ag1274
ag1275
ag1276
ag1277
ag1278
ag1315
ag1316
ag1317
ag1318
ag1319
ag1320
ag1322
ag1339
ag1340
ag1341
ag1342
ag1343
ag1344
ag1345
ag1346
ag1347
ag1348
ag1349
ag1351
ag1352
ag1356
ag1357
ag1359
ag1361
ag1363
ag1364
ag1365
ag1366
ag1367
ag1368
ag1369
ag1370
ag1371
ag1372
ag1373
ag1374
ag1375
ag1376
ag1377
ag1378
ag1379
ag1383
ag1384
ag1386
ag1387
ag1388
ag1389
ag1390
ag1391
ag1392
ag1393
ag1395
ag1396
ag1397
ag1398
ag1399
ag1403
ag1404
ag1406
ag1407
ag1408
ag218
ag219
ag220
ag225
ag226
ag227
ag228
ag233
ag234
ag239
ag240
ag272
ag275
ag280
ag281
ag283
ag284
ag696
ag698
ag699
ag700
ag703
ag721
ag722
ag723
ag724
ag726
ag727
ag728
ag729
ag730
ag731
ag745
ag746
ag747
ag748
ag749
ag759
ag780
ag781
ag782
ag783
ag784
ag786
ag787
ag788
ag789
ag790
ag791
ag792
ag793
ag795
ag814
ag822
ag823
ag826
ag827
ag829
ag830
ag831
ag873
ag1061
ag1084
ag1089
ag1091
ag1159
ag1160
ag1161
ag1162
ag1163
ag1164
ag1168
ag1169
ag1170
ag1171
ag1172
ag1173
ag1174
ag1175
ag1176
ag1190
ag1191
ag1419
ag1420
ag1423
ag1428
ag1429
ag1430
ag1432
ag1433
ag1434
ag1435
ag1436
ag1437
ag1438
ag1439
ag1444
ag1445
ag1464
ag1465
ag1466
ag1467
ag1468
ag1469
ag1470
ag1471
ag1473
ag1474
ag1475
ag1476
ag1477
ag1478
ag1481
ag1482
ag1493
ag1496
ag1497
ag1498
ag1499
ag1500
ag1501
ag1502
ag1508
ag1509
ag1512
ag1521
ag1522
ag1523
ag1524
ag1525
ag1528
ag1529
ag1530
ag1531
ag1532
ag1537
ag1552
ag1554
ag1555
ag1556
ag1568
ag1569
ag1572
ag1573
ag1574
ag1575
ag1576
ag1598
ag1599
ag1600
ag1601
ag1602
ag1603
ag1605
ag1610
ag1617
ag1618
ag1619
ag1620
ag1621
ag1622
ag1625
ag1626
ag1627
ag1628
ag1629
ag1633
ag1634
ag1637
ag1640
ag1641
ag1646
ag1647
ag1648
ag1649
ag1650
ag1651
ag1652
ag1653
ag1655
ag1656
ag1657
ag1660
ag1662
ag1663
ag1664
ag1665
ag1666
ag1667
ag1668
ag1669
ag1670
ag1671
ag1675
ag1677
ag1678
ag1679
ag1680
ag1681
ag1682
ag1684
ag1685
ag1686
ag1687
ag1689
ag1690
ag1691
ag1694
ag1697
ag1699
ag1700
ag1701
ag1702
ag1705
ag1706
ag1707
ag1708
ag1709
ag1710
ag1711
ag1712
ag1718
ag1719
ag1720
ag1721
ag1722
ag1723
ag1724
ag1725
ag1728
ag1729
ag1732
ag1733
ag1734
ag1735
ag1737
ag1738
ag1742
ag1743
ag1744
ag1745
ag1746
ag1747
ag1748
ag1749
ag1750
ag1752
ag1753
ag1754
ag1755
ag1756
ag1757
ag1758
ag1759
ag1760
ag1761
ag1767
ag1768
ag1769
ag1770
ag1771
ag1772
ag1773
ag1774
ag1775
ag1776
ag1777
ag1781
ag1782
ag1783
ag1784
ag1785
ag1786
ag1787
ag1788
ag1789
ag1790
ag1791
ag1792
ag1793
ag1794
ag1795
ag1796
ag1797
ag1798
ag1799
ag1800
ag1801
ag1802
ag1803
ag1804
ag1805
ag1808
ag1809
ag1810
ag1811
ag1812
ag1813
ag1814
ag1815
ag1817
ag1818
ag1819
ag1821
ag1826
ag1827
ag1837
ag1843
ag1844
ag1845
ag1846
ag1847
ag1848
ag1849
ag1850
ag1851
ag1852
ag1880
ag1881
aVtwist
p2086
aVdispose
p2087
aVdissever
p2088
aVexempt
p2089
aVrelieve
p2090
aVcomply
p2091
aVinaugurate
p2092
aVdesign
p2093
aVmiss
p2094
aVtransit
p2095
aVshuffle
p2096
aVruffle
p2097
aVflip
p2098
aVreap
p2099
aVharvest
p2100
aVglean
p2101
aVfell
p2102
aVemasculate
p2103
aVcastrate
p2104
aVdemasculinize
p2105
aVdemasculinise
p2106
aVreorient
p2107
aVjump
p2108
aVleap
p2109
aVrefund
p2110
aVrevitalize
p2111
aVduplicate
p2112
aVreduplicate
p2113
aVdouble
p2114
aVreplicate
p2115
aVfail
p2116
aVmiscarry
p2117
aVsin
p2118
aVtransgress
p2119
aVdevolve
p2120
aVdeposit
p2121
aVimplant
p2122
aVengraft
p2123
aVembed
p2124
aVimbed
p2125
aVuncover
p2126
aVunveil
p2127
aVridicule
p2128
aVroast
p2129
aVguy
p2130
aVblackguard
p2131
aVrib
p2132
aVabandon
p2133
aVforsake
p2134
aVdesert
p2135
aVpossess
p2136
aVwoo
p2137
aVcourt
p2138
aVromance
p2139
aVdisappoint
p2140
aVbequeath
p2141
aVwill
p2142
aVplot
p2143
aVflog
p2144
aVwelt
p2145
aVwhip
p2146
aVlather
p2147
aVlash
p2148
aVslash
p2149
aVstrap
p2150
aVregress
p2151
aVretrograde
p2152
aVretrogress
p2153
aVslip
p2154
aVrevert
p2155
aVretrovert
p2156
aVforfeit
p2157
aVrepossess
p2158
aVobviate
p2159
aVcrowd
p2160
aVmalfunction
p2161
aVmisfunction
p2162
aVstuff
p2163
aVhouse
p2164
aVdomiciliate
p2165
aVdry
p2166
aVrefresh
p2167
aVfreshen
p2168
aVdeny
p2169
aVrewrite
p2170
aVreorganize
p2171
aVreorganise
p2172
aVofficiate
p2173
aVsaddle
p2174
aVburden
p2175
aVshrink
p2176
aVplead
p2177
aVdisapprove
p2178
aVreject
p2179
aVsystematize
p2180
aVsystematise
p2181
aVsystemize
p2182
aVsystemise
p2183
aVdecompose
p2184
aVservice
p2185
aVrespect
p2186
aVreply
p2187
aVsorb
p2188
aVfund
p2189
aVdeteriorate
p2190
aVdegenerate
p2191
aVattend
p2192
aVcoordinate
p2193
aVentangle
p2194
aVtangle
p2195
aVmat
p2196
aVsnarl
p2197
aVembrace
p2198
aVhug
p2199
aVbosom
p2200
aVcling
p2201
aVcleave
p2202
aVadhere
p2203
aVcohere
p2204
aVperfect
p2205
aVtune
p2206
aVgratify
p2207
aVoversee
p2208
aVsuperintend
p2209
aVbase
p2210
aVground
p2211
aVloop
p2212
aVspurn
p2213
aVscorn
p2214
aVpooh-pooh
p2215
aVdisdain
p2216
aVrebel
p2217
aVevolve
p2218
aVdeduce
p2219
aVdeduct
p2220
aVlight
p2221
aVblast
p2222
aVbake
p2223
aVdispel
p2224
aVsmoke
p2225
aVbreathe
p2226
aVrespire
p2227
aVsuspire
p2228
aVoccasion
p2229
aVindoctrinate
p2230
aVwiden
p2231
aVbroaden
p2232
aVimbue
p2233
aVdrill
p2234
aVinject
p2235
aVcherish
p2236
aVtreasure
p2237
aVbend
p2238
aVflex
p2239
aVlisten
p2240
aVlower
p2241
aVencumber
p2242
aVcumber
p2243
aVconstrain
p2244
aVexplode
p2245
aVburst
p2246
aVail
p2247
aVpain
p2248
aVrage
p2249
aVanger
p2250
aVoffend
p2251
aVinfract
p2252
aVviolate
p2253
aVbreach
p2254
aVsmart
p2255
aVspite
p2256
aVblow
p2257
aVsquander
p2258
aVdisarray
p2259
aVdiscard
p2260
aVfling
p2261
aVtoss
p2262
aVenfeeble
p2263
aVdebilitate
p2264
aVdrain
p2265
aVsplice
p2266
aVdirty
p2267
aVsoil
p2268
aVbegrime
p2269
aVgrime
p2270
aVcolly
p2271
aVbemire
p2272
aVpoison
p2273
aVelate
p2274
aVuplift
p2275
aVlicense
p2276
aVlicence
p2277
aVthank
p2278
aVprize
p2279
aVappreciate
p2280
aVshare
p2281
aVdiagnose
p2282
aVshlep
p2283
aVschlep
p2284
aVrede
p2285
aVcounsel
p2286
aVmatter
p2287
aVweigh
p2288
aVflatten
p2289
aVmass
p2290
aVcast
p2291
aVprotrude
p2292
aVjut
p2293
aVunearth
p2294
aVyaw
p2295
aVoscillate
p2296
aVvibrate
p2297
aVmarch
p2298
aVbrace
p2299
aVenergize
p2300
aVenergise
p2301
aVload
p2302
aVadulterate
p2303
aVdilute
p2304
aVdebase
p2305
aVfloat
p2306
aVlag
p2307
aVdawdle
p2308
aVscuffle
p2309
aVshamble
p2310
aVbrood
p2311
aVhover
p2312
aVloom
p2313
aVrecur
p2314
aVknit
p2315
aVweave
p2316
aVtissue
p2317
aVliquidate
p2318
aVheave
p2319
aVbuckle
p2320
aVscalp
p2321
aVunderwrite
p2322
aVmarket
p2323
aVworship
p2324
aVthreaten
p2325
aVrot
p2326
aVmolder
p2327
aVmoulder
p2328
aVencase
p2329
aVincase
p2330
aVcase
p2331
aVrain
p2332
aVmedicate
p2333
aVmedicine
p2334
aVexclude
p2335
aVexcept
p2336
aVomit
p2337
aVvacate
p2338
aVdiscriminate
p2339
aVincorporate
p2340
aVtoy
p2341
aVfiddle
p2342
aVdiddle
p2343
aVintimidate
p2344
aVsatiate
p2345
aVsate
p2346
aVreplete
p2347
aVbond
p2348
aVlack
p2349
aVgrieve
p2350
aVsorrow
p2351
aVrate
p2352
aVauthenticate
p2353
aVanguish
p2354
aVdon
p2355
aVdissimilate
p2356
aVaccede
p2357
aVreciprocate
p2358
aVreappear
p2359
aVre-emerge
p2360
aVelect
p2361
aVstare
p2362
aVdiscipline
p2363
aVcrucify
p2364
aVround
p2365
aVsnipe
p2366
aVirradiate
p2367
aVray
p2368
aVfront
p2369
aVbesiege
p2370
aVbeleaguer
p2371
aVsurround
p2372
aVcircumvent
p2373
aVdisadvantage
p2374
aVdisfavor
p2375
aVdisfavour
p2376
aVtorment
p2377
aVdun
p2378
aVshred
p2379
aVunsnarl
p2380
aVcomb
p2381
aVgarner
p2382
aVrecover
p2383
aVrecuperate
p2384
aVenviron
p2385
aVring
p2386
aVskirt
p2387
aVborder
p2388
aVerect
p2389
aVrisk
p2390
aVimplore
p2391
aVpray
p2392
aVwipe
p2393
aValleviate
p2394
aVpalliate
p2395
aVassuage
p2396
aVrepress
p2397
aVforget
p2398
aVoppress
p2399
aVlour
p2400
aVdisguise
p2401
aVmask
p2402
aVsex
p2403
aValarm
p2404
aValert
p2405
aVinspect
p2406
aVhedge
p2407
aVfudge
p2408
aVevade
p2409
aVparry
p2410
aVdodge
p2411
aVduck
p2412
aVsidestep
p2413
aVeavesdrop
p2414
aVcircle
p2415
aVabsolve
p2416
aVvindicate
p2417
aVentertain
p2418
aVtop
p2419
aVpinch
p2420
aVrhyme
p2421
aVrime
p2422
aVfamiliarize
p2423
aVfamiliarise
p2424
aVschedule
p2425
aVlade
p2426
aVladen
p2427
aVovercrowd
p2428
aVoverprint
p2429
aVshave
p2430
aVbedight
p2431
aVbedeck
p2432
aVprevail
p2433
aVnegate
p2434
aVadopt
p2435
aVespouse
p2436
aVobscure
p2437
aVobliterate
p2438
aVveil
p2439
aVdesensitize
p2440
aVdesensitise
p2441
aVimmobilize
p2442
aVimmobilise
p2443
aVabstain
p2444
aVdesist
p2445
aVscat
p2446
aVscarper
p2447
aVlam
p2448
aVbunk
p2449
aVmar
p2450
aVimpair
p2451
aVdeflower
p2452
aVvitiate
p2453
aVextort
p2454
aVrack
p2455
aVgouge
p2456
aVwring
p2457
aVsmile
p2458
aVcleanse
p2459
aVerode
p2460
aVfret
p2461
aVrefreshen
p2462
aVurinate
p2463
aVpiddle
p2464
aVpuddle
p2465
aVmicturate
p2466
aVpiss
p2467
aVpee
p2468
aVpee-pee
p2469
aVwee
p2470
aVwee-wee
p2471
aVcool
p2472
aVchill
p2473
aVstain
p2474
aVscoop
p2475
aVdart
p2476
aVdash
p2477
aVscoot
p2478
aVscud
p2479
aVflash
p2480
aVsedate
p2481
aVgrade
p2482
aVyen
p2483
aVpine
p2484
aVlanguish
p2485
aVcompress
p2486
aVconstrict
p2487
aVcompact
p2488
aVneglect
p2489
aVstifle
p2490
aVdampen
p2491
aVupgrade
p2492
aVcurtail
p2493
aVsimplify
p2494
aVdemote
p2495
aVrelegate
p2496
aVdegrade
p2497
aVdisgrace
p2498
aVdemean
p2499
aVreposition
p2500
aVde-emphasize
p2501
aVde-emphasise
p2502
aVdestress
p2503
aValternate
p2504
aVcrash
p2505
ag1883
ag216
ag217
ag26
ag218
ag219
ag220
ag221
aVfix
p2506
ag222
aVmake
p2507
ag223
ag224
ag225
ag226
ag227
ag228
ag229
ag230
ag231
ag232
ag233
ag234
ag235
ag236
ag237
ag238
ag54
ag55
ag239
ag240
aVsucceed
p2508
ag241
ag242
ag243
ag244
ag245
ag246
ag876
ag32
ag247
ag248
ag249
ag250
aVmove
p2509
ag141
ag29
ag30
ag31
aVtransfer
p2510
ag251
ag252
ag253
ag1
ag254
ag255
ag22
ag132
ag133
ag134
aVpass
p2511
ag256
ag257
ag258
ag259
ag260
ag261
ag262
ag263
ag264
ag265
ag266
ag267
ag268
ag269
ag270
ag165
ag166
ag167
ag5
ag6
ag7
ag9
ag10
ag11
ag12
ag13
ag14
ag15
ag16
ag27
ag33
ag34
ag35
ag36
ag37
ag38
ag39
ag40
ag271
ag272
ag273
ag274
ag275
ag276
ag277
ag278
ag279
ag280
aVoperate
p2512
ag281
ag282
ag283
ag284
ag285
ag286
ag287
ag288
ag289
ag290
ag291
ag292
ag293
aVconstitute
p2513
ag294
ag295
ag1909
ag488
ag394
ag395
ag396
aVcalculate
p2514
ag635
ag636
ag637
aVreckon
p2515
ag638
ag463
aVnumber
p2516
ag464
ag465
aVform
p2517
ag44
ag56
ag57
ag59
ag60
ag61
ag878
ag62
ag63
ag64
ag879
ag880
ag20
ag65
ag66
ag67
ag68
ag69
ag70
ag71
ag72
ag73
ag74
ag75
ag76
ag77
ag78
ag79
ag80
ag81
ag82
ag84
ag85
ag86
ag87
ag88
ag89
ag90
ag91
ag92
ag93
ag94
ag95
ag96
ag97
ag98
ag100
ag101
ag102
ag103
ag104
ag105
ag106
ag107
ag108
ag47
ag48
ag49
ag50
ag51
ag52
ag1884
ag337
ag338
ag339
ag340
ag341
ag342
ag343
ag344
ag345
ag1885
ag346
ag1015
ag1016
ag347
ag348
ag349
ag350
ag351
ag352
ag353
ag354
ag355
ag356
ag357
ag358
ag359
ag360
ag361
ag362
ag363
ag364
ag365
ag366
ag367
ag1887
ag368
ag369
ag181
ag182
ag370
ag371
ag372
ag1888
ag373
ag374
ag375
ag376
ag377
ag378
ag1889
ag379
ag380
ag381
ag382
ag383
ag384
ag385
ag18
ag1017
ag386
ag387
ag388
ag389
ag390
ag17
ag391
ag392
ag393
ag397
ag398
ag399
ag400
ag207
ag208
ag209
ag212
ag213
ag214
ag215
ag24
ag296
ag401
ag137
ag138
ag402
ag403
ag404
ag405
ag406
ag407
ag408
ag409
ag297
ag298
ag299
ag300
ag301
ag302
ag303
ag304
ag305
ag306
ag307
ag308
ag204
ag205
ag206
ag410
ag411
ag412
ag413
ag415
ag416
ag417
ag418
ag419
ag420
ag421
ag422
ag423
ag424
ag425
ag426
ag427
ag428
ag429
ag313
ag430
ag431
ag432
ag433
ag434
ag435
ag436
ag437
ag438
ag439
ag440
ag441
ag442
ag443
ag444
ag1895
ag1896
ag445
ag446
ag447
ag448
ag1897
ag449
ag1022
ag450
ag451
ag1898
ag452
ag1899
ag453
ag454
ag455
ag456
ag457
ag458
ag128
ag459
ag460
ag122
ag123
ag1900
ag461
ag462
ag466
ag467
ag468
ag469
ag470
ag471
ag472
ag473
ag474
ag475
ag476
ag477
ag478
ag479
ag480
ag481
ag482
ag483
ag484
ag485
ag486
ag487
ag489
ag490
ag491
ag492
ag493
ag1903
ag494
ag495
ag496
ag497
ag498
ag499
ag500
ag501
ag502
ag503
ag504
ag161
ag505
ag506
ag507
ag508
ag509
ag510
ag511
ag512
ag513
ag1906
ag332
ag333
ag334
ag514
ag515
ag516
ag517
ag518
ag519
ag318
ag319
ag321
ag955
ag324
ag325
ag327
ag328
ag329
ag331
ag520
ag521
ag522
ag523
ag524
ag525
ag526
ag527
ag528
ag529
ag530
ag531
ag532
ag533
ag1908
ag534
ag535
ag536
ag537
ag538
ag539
ag540
ag541
ag542
ag543
ag544
ag545
ag546
ag547
ag548
ag549
ag550
ag551
ag552
ag553
ag554
ag555
ag556
ag557
ag558
ag559
ag560
ag561
ag562
ag563
ag564
ag565
ag566
ag567
ag568
ag569
ag570
ag571
ag572
ag573
ag574
ag575
ag576
ag577
ag160
ag578
ag579
ag580
ag581
ag582
ag583
ag584
ag585
ag586
ag587
ag588
ag589
ag590
ag591
ag592
ag593
ag594
ag595
ag596
ag597
ag598
ag599
ag600
ag601
ag977
ag602
ag603
ag604
ag605
ag606
ag607
ag608
ag609
ag610
ag611
ag612
ag613
ag614
ag615
ag616
ag617
ag618
ag619
ag620
ag621
ag622
ag623
ag624
ag625
ag626
ag627
ag174
ag628
ag629
ag630
ag631
ag632
ag633
ag634
ag109
ag110
ag111
ag112
ag639
ag640
ag641
ag642
ag643
ag644
ag645
ag646
ag647
ag648
ag649
ag650
ag651
ag652
ag653
ag654
ag147
ag148
ag655
ag656
ag657
ag658
ag659
ag660
ag661
ag662
ag663
ag664
ag665
ag666
ag667
ag668
ag669
ag670
ag671
ag672
ag673
ag674
ag675
ag676
ag677
ag678
ag679
ag309
ag310
ag189
ag190
ag311
ag312
ag315
ag316
ag335
ag680
ag1042
ag135
ag707
ag708
aVcolour
p2518
aVcolor
p2519
ag1043
ag1044
ag1045
ag1046
ag1047
ag1941
ag1942
aVbring
p2520
ag1151
ag1152
ag1153
ag1154
ag1272
ag1273
ag1274
ag1275
ag1276
ag1277
ag1278
aVguide
p2521
ag1279
ag1280
ag1281
ag1934
ag1282
ag1195
ag1196
ag1197
ag1198
ag1199
ag1283
aVfascinate
p2522
ag1284
ag1285
ag1166
ag1167
ag1286
ag1287
ag1288
ag1251
ag1289
ag1290
ag1291
ag832
ag833
ag834
ag835
ag1292
ag2059
ag1932
ag1293
ag1294
ag1295
ag1296
ag1297
ag1298
ag1931
ag1299
aVraise
p2523
ag1300
ag1301
ag1302
ag1303
ag1304
ag1305
ag844
ag845
ag846
ag847
ag848
ag1306
ag1307
ag1308
ag1309
ag1310
ag1311
ag1312
ag1313
ag1314
ag1315
ag836
ag837
ag838
ag839
ag840
ag841
ag1316
ag1257
ag1258
ag1259
ag1260
ag1317
ag1318
ag1319
ag967
ag1320
ag1321
ag1322
ag956
ag957
ag943
ag944
aVproduce
p2524
ag816
ag817
ag1128
ag1323
ag1324
ag1325
ag1326
ag1327
ag1935
ag1328
ag1329
ag1330
ag1331
ag1332
ag1333
ag1334
ag1335
ag1336
aVspread
p2525
aVpropagate
p2526
ag1337
ag1936
ag1338
ag1339
ag1340
ag1341
ag1342
ag1343
ag1344
ag1345
ag1346
ag1347
ag1348
ag1349
ag1350
ag1351
ag1352
ag711
ag712
ag713
ag1353
ag1354
ag1355
ag1356
ag1357
ag1358
ag1359
ag1360
ag1361
ag1362
aVexcite
p2527
ag1363
ag1364
ag1365
ag1366
ag171
ag1367
ag1368
ag1369
ag989
ag1370
ag1371
ag1372
ag1373
ag1374
ag1375
ag1376
ag1377
ag1378
ag1188
ag1189
ag1379
ag687
ag689
ag690
ag691
ag692
ag1380
ag1381
ag1382
ag1383
ag1384
ag1385
ag1267
ag1386
ag1387
ag1388
ag1389
ag1390
aVcross
p2528
ag1391
ag1392
ag1393
ag1394
ag1395
ag1396
ag1397
ag1398
ag1399
ag199
ag200
ag201
ag202
ag1400
ag1401
ag1402
ag1403
ag1404
ag1405
ag1406
ag1407
ag1408
ag1255
ag1256
ag1261
ag1262
ag1263
ag1264
ag1265
ag156
ag157
ag158
ag1409
ag1410
ag2046
ag1411
aVaccept
p2529
ag1412
ag1413
ag1414
ag1415
ag1416
ag1417
ag849
ag850
ag851
ag852
ag853
ag854
ag855
ag856
ag857
ag858
ag1110
aVpost
p2530
ag1190
ag734
ag735
ag736
ag737
ag761
ag762
ag763
ag764
ag765
ag766
ag792
ag793
ag794
ag1191
ag1418
ag1929
ag1419
ag1420
ag176
ag178
ag183
ag191
ag192
ag193
ag194
ag195
ag196
ag868
ag869
ag870
ag871
ag872
ag732
ag720
aVcirculate
p2531
aVdistribute
p2532
ag1217
ag1421
ag1911
ag719
ag168
ag1912
ag124
ag125
ag126
ag1422
ag813
ag718
ag843
ag859
ag860
ag1026
ag1027
ag1028
ag1029
ag1030
ag1032
ag1033
ag1034
ag1035
ag1036
ag1037
aVbreak
p2533
ag1038
ag1039
ag1040
ag1041
ag1048
ag1049
aVfight
p2534
aVstruggle
p2535
ag1423
ag1424
ag1425
ag1426
ag1427
ag1428
ag1429
ag1430
aVpromote
p2536
aVtrade
p2537
ag1431
ag1432
ag1433
aVsqueeze
p2538
ag1434
ag1435
ag1436
ag1437
ag1438
ag1439
ag1062
ag1063
ag1064
ag1065
ag1066
ag1067
ag1068
ag1192
ag1193
ag1194
ag797
ag798
aVcut
p2539
ag1200
ag1201
ag1202
ag1203
ag1204
ag1076
ag1077
ag1078
ag974
ag975
ag1072
ag1073
ag1074
ag1075
ag1079
ag1080
ag1081
ag1205
ag1206
ag1207
ag1209
ag1210
ag1211
ag1212
ag1213
ag704
ag705
ag706
ag969
ag801
ag802
ag803
ag804
ag805
ag806
ag807
ag808
ag810
ag811
ag812
ag978
ag979
ag980
ag981
ag982
ag983
ag984
ag985
ag986
ag987
ag991
ag994
ag911
ag912
ag914
ag916
ag918
ag919
ag996
ag998
ag999
ag1000
ag949
ag950
ag951
ag1001
ag1003
ag1005
ag1006
ag1007
ag1009
ag1010
ag1440
ag1148
ag1149
ag1086
ag1107
ag721
ag722
ag723
ag724
ag1441
ag1442
ag1443
ag1444
ag1445
ag1249
ag1250
ag1222
ag1223
ag1224
ag2023
ag1225
ag1226
aVendure
p2540
ag1227
ag1228
ag1229
ag1230
ag1231
ag1232
ag1233
ag824
ag825
ag1446
ag1447
ag1448
ag1449
ag1927
ag1268
ag1269
ag1270
ag1450
ag1451
ag1452
ag1453
ag1454
ag1455
ag1456
ag2062
ag1457
ag1458
ag1099
ag1100
ag1101
ag1102
ag1103
ag1104
ag1105
ag1106
ag1108
ag1109
ag937
ag938
ag939
ag942
ag1459
ag1460
ag1461
ag1462
ag1463
ag1464
ag1465
ag1466
ag1467
ag1468
ag1469
ag740
ag741
ag725
ag742
ag714
ag716
ag699
ag700
ag702
ag1470
ag114
ag115
ag743
ag1471
ag1472
ag1473
ag1474
ag1475
ag1476
ag1477
ag1478
ag1479
ag1480
ag774
ag775
ag776
ag1234
ag1235
ag1481
aVaddress
p2541
ag1482
ag1928
ag738
ag820
aVrelinquish
p2542
ag1483
aVfree
p2543
ag1484
ag1485
ag1486
ag1487
ag1488
ag1489
ag173
ag1490
aVsubject
p2544
ag1271
ag1997
ag1146
ag1491
ag1492
ag1493
ag1494
ag1495
ag1496
ag1497
ag1498
ag1499
ag1500
ag1501
ag1502
ag1503
ag1504
aVreact
p2545
aVoppose
p2546
ag145
ag146
ag1505
ag1506
ag1507
ag1508
ag1509
ag1510
ag1511
aVtire
p2547
ag1512
aVweary
p2548
aVfatigue
p2549
aVjade
p2550
ag1513
ag1514
ag1515
ag1516
ag1517
ag1518
ag1519
ag1520
ag1521
ag1522
ag1168
ag1169
ag1170
ag1523
ag1524
ag1187
ag1069
ag1525
ag1150
ag1526
ag1527
ag1246
ag1247
ag1248
ag1070
ag1071
aVforbid
p2551
ag1528
ag1529
ag1530
ag1531
ag1532
ag1533
ag1087
ag152
ag1116
ag1117
ag1118
ag1534
ag1535
ag1536
ag1537
ag1538
ag1539
ag1540
ag1541
ag1542
ag1543
ag1544
ag1545
ag1546
ag1547
ag1548
ag1549
ag1550
ag1551
ag1552
ag1553
ag129
ag131
ag1554
ag1555
ag1556
ag1238
ag1241
ag1242
ag1244
ag1155
ag1156
ag1157
ag1158
ag1557
ag922
ag1937
ag1938
ag1177
ag1178
ag1179
ag1180
ag1181
ag1182
ag1183
ag1558
ag1559
ag1560
ag1561
ag1562
ag1563
ag1564
ag1565
ag1566
ag1567
ag1245
ag866
ag1129
ag1130
ag1131
ag1943
ag1132
ag1944
ag1252
ag1253
ag1254
ag1568
ag1569
ag1570
ag1571
ag1994
ag1084
ag760
ag904
ag905
ag907
ag921
ag923
ag926
ag928
ag929
ag930
ag931
ag935
ag1572
ag1573
ag1574
ag1575
ag1576
ag1218
ag1219
ag1577
ag1578
ag1579
ag1919
ag1580
ag1581
ag1582
ag1583
ag1584
ag1922
ag1585
ag1586
ag1587
ag1588
ag1589
ag1590
ag1591
ag1592
ag1593
ag1594
ag1595
ag1147
ag1596
ag1597
ag1598
ag1119
ag1120
ag1599
ag1600
ag799
ag1601
ag1058
ag1059
ag1060
ag1602
ag1603
ag1604
ag1605
ag1606
ag1607
ag1608
ag1609
ag1610
aVswitch
p2552
ag1611
ag1612
ag1613
ag1614
ag1615
ag1616
ag1617
ag1618
ag1619
ag1620
ag1621
ag1622
ag1623
ag1624
ag1625
ag1626
ag1627
ag826
ag827
ag829
ag830
ag831
ag964
ag1628
ag1629
ag1630
ag1631
ag1632
ag1633
ag1634
ag1635
ag1636
ag1637
ag1638
ag1639
ag1640
ag1641
ag1642
ag1643
ag1644
ag1645
ag1646
ag1647
ag1648
ag1649
ag1650
ag1651
ag1652
ag1653
ag1654
ag1655
ag1656
ag1657
ag1658
ag1659
ag965
ag966
ag1660
ag1661
ag1662
ag757
ag1663
ag1664
ag1665
ag1666
ag1667
ag1668
ag1669
ag1670
ag873
ag1671
ag1672
ag1673
ag1674
ag1675
ag1676
ag681
ag682
ag683
ag684
ag685
ag1677
ag1678
ag1679
ag1680
ag1681
ag1682
ag1683
aVregularize
p2553
aVregularise
p2554
ag1684
ag1685
ag1686
ag1687
ag1688
ag1689
ag1690
ag1691
ag1692
ag1693
ag1694
ag1695
ag796
ag1696
ag1184
ag1185
ag1186
ag1697
ag1698
ag1699
ag1700
ag1701
ag1702
ag1703
ag1704
ag42
ag43
ag117
ag118
ag119
ag120
ag121
ag139
ag140
ag142
ag143
ag144
ag151
ag153
ag154
ag1220
ag1221
ag946
ag1214
ag1215
ag1216
ag1133
ag1134
ag1135
ag1137
ag1138
ag1139
ag1141
ag1142
ag1143
ag1144
ag1145
ag1111
ag1236
ag863
ag864
ag865
ag726
ag727
ag728
ag729
ag730
ag731
ag1818
ag1819
ag2043
ag1820
ag2044
ag1821
ag1822
ag1823
ag1824
ag1825
aVreject
p2555
ag2338
aVabandon
p2556
ag1782
aVdeny
p2557
ag2434
aVcontradict
p2558
ag2107
ag2049
ag2050
ag2051
ag2052
ag2053
ag2054
ag2055
ag2056
ag2057
ag2058
ag769
ag770
ag771
ag772
aVencounter
p2559
ag2369
ag2164
ag2165
ag2091
ag2039
ag1740
ag1741
ag2032
ag1863
ag1864
ag2370
ag2371
ag2372
ag2373
ag2068
ag2069
ag2070
ag2071
ag2072
ag2073
ag2074
ag2075
ag2076
aVchoke
p2560
ag2077
ag2078
ag1165
ag2374
ag2375
ag2376
ag2093
ag2094
ag2095
ag2096
ag2097
ag2098
ag2099
ag2100
ag2101
ag2102
aVshorten
p2561
aVextinguish
p2562
ag2103
ag2104
ag2105
ag2106
ag2184
ag2377
aVcrucify
p2563
ag2378
ag2379
ag2380
ag2128
ag2129
ag2130
ag2131
ag2132
ag2381
ag1115
ag2382
ag2383
ag2384
ag2306
ag2299
ag2300
ag2301
ag2302
ag2303
ag2304
ag2305
ag2110
ag1765
ag1766
ag884
ag885
ag952
ag954
ag819
ag1088
ag1946
ag777
ag778
ag779
ag1948
ag1949
ag1950
ag1951
ag1955
ag1957
ag1959
ag1960
ag1961
ag1962
ag1968
ag1969
ag1970
ag1971
ag1973
ag1974
ag1975
ag1976
ag1977
ag1779
ag1780
ag1978
ag1979
ag1980
ag1981
ag1983
ag1984
ag1985
ag1986
ag1987
ag1988
ag1751
ag1990
ag1991
ag1992
ag1993
ag1998
ag1999
ag1828
ag1829
ag1830
ag1831
ag1832
ag1834
ag2005
ag2006
ag2007
ag2008
ag2010
ag2012
ag1731
ag2014
ag2017
ag2018
ag2020
ag2021
ag1739
ag1835
ag1836
ag1816
ag1113
ag1114
ag814
ag1713
ag1714
ag1715
ag1716
ag1717
ag2034
ag1865
ag1866
ag1867
ag1868
ag2040
ag1869
ag1870
ag1871
ag1872
ag1873
ag1874
ag1050
ag1051
ag1052
ag1053
ag1054
ag1055
ag1056
ag1057
ag2088
ag2089
ag2090
ag2092
ag1121
ag2116
ag2117
ag2118
ag2119
ag2120
ag1781
ag2121
ag2122
ag2123
ag2124
ag2125
aVsharpen
p2564
ag696
ag698
ag1742
ag1743
ag1744
ag1745
ag1746
ag1747
ag1748
ag1749
ag1750
ag1705
ag1706
ag1707
ag1708
ag1709
ag1710
ag2350
ag2351
ag2349
ag1092
ag2219
ag2220
ag2221
ag2222
ag2223
ag2224
aVvibrate
p2565
ag1726
ag1727
ag2242
ag2243
ag2244
ag2065
ag2176
aVreduce
p2566
ag2245
ag2246
ag2247
ag2248
ag2249
ag2250
ag2066
ag822
ag823
ag1711
ag2403
ag2481
ag2207
aVlike
p2567
ag2086
ag2151
ag2152
ag2153
ag758
ag2154
ag2155
ag2156
ag2157
aVwaive
p2568
aVforgo
p2569
aVforego
p2570
ag2158
ag2159
ag2160
ag2161
ag2162
ag2163
ag1853
ag1855
ag1856
ag1858
ag1859
ag1860
ag1861
ag1862
ag1876
ag1877
ag2285
ag2286
ag2287
ag2288
ag2289
ag2290
ag2291
ag2177
aVconsociate
p2571
aVpace
p2572
ag1736
ag2166
ag2167
ag2168
aVuncover
p2573
ag1790
ag1791
ag1792
ag1793
ag1794
aVvote
p2574
aVsnip
p2575
aVclip
p2576
aVcrop
p2577
aVlop
p2578
aVprune
p2579
aVspill
p2580
aVshed
p2581
aVdisgorge
p2582
aVrate
p2583
ag2482
aVinoculate
p2584
ag795
ag753
aVconcede
p2585
aVrelax
p2586
aVunbend
p2587
ag1763
ag1764
ag2267
ag2268
ag2269
ag2270
ag2271
ag2272
ag1878
ag1879
ag2276
ag2277
ag2278
ag2279
aVtreasure
p2588
ag2280
ag1785
ag1786
ag1768
ag1769
ag1770
ag1771
ag1772
ag1773
ag1774
ag1775
ag1776
ag1777
aVsquander
p2589
aVware
p2590
ag2251
ag2252
ag2253
ag2254
aVrecycle
p2591
aVreprocess
p2592
aVreuse
p2593
ag2446
ag2447
ag2448
ag2449
aVstumble
p2594
aVdampen
p2595
aVdamp
p2596
aVsoften
p2597
ag2440
ag2441
ag2399
ag2444
ag2445
ag2144
ag2145
ag2146
ag2147
ag2148
ag2149
ag2150
ag1125
ag1126
aVproject
p2598
aVcontrive
p2599
ag2255
aVweave
p2600
aVinterweave
p2601
aVmensurate
p2602
aVdisconnect
p2603
ag2218
ag2356
ag2322
ag2231
ag2232
aVcorrupt
p2604
ag1811
ag2037
ag2323
ag2324
ag2325
ag2141
ag2142
aVwash
p2605
ag1800
ag1721
ag1722
ag2483
ag2484
ag2485
ag2226
ag2227
ag2228
ag2486
ag2487
ag2488
ag2489
ag2490
ag745
ag746
ag747
ag748
ag749
ag1838
ag1839
ag1840
ag1841
ag1842
ag2173
ag703
ag2318
ag2319
ag2320
ag2321
ag2292
ag2293
ag2229
ag2230
ag2274
ag2275
ag2208
aVsupervise
p2606
ag2209
ag2210
ag2211
aVlisten
p2607
aVboom
p2608
aVthrive
p2609
aVflourish
p2610
ag1091
ag2180
ag2181
ag2182
ag2183
ag1845
ag1846
ag1847
ag2185
ag2186
ag2187
ag2188
ag2189
ag2190
ag2191
ag2192
aVinstall
p2611
aVinstal
p2612
ag1728
ag1729
ag2193
ag2194
ag2195
ag2196
ag2197
ag2198
ag2199
ag2200
ag2201
ag2202
ag2203
ag2204
ag2170
ag2171
ag2172
ag2127
ag2134
ag2135
ag2401
ag2402
ag1737
ag1738
ag2425
ag2136
ag2137
ag2138
ag2139
ag2362
aVshine
p2613
ag1797
ag2256
ag2363
aVrot
p2614
ag2365
ag2366
ag2367
ag2368
ag1723
ag1724
ag1725
ag751
ag759
ag780
ag781
ag782
ag783
ag784
ag786
ag787
ag788
ag789
ag2035
ag2038
ag2048
ag1093
ag1094
ag1095
ag1096
ag1097
ag2080
ag2082
ag2083
ag2084
ag2085
ag2397
ag2398
ag1767
ag2353
ag2354
ag2355
ag2391
ag2392
ag2393
ag1164
ag2307
ag2308
ag2419
ag2420
ag2421
ag2422
aVtan
p2615
ag2407
ag2408
ag2409
ag2410
aVskirt
p2616
ag2411
ag2412
ag2413
ag2414
ag1850
ag1852
ag2260
ag2261
ag2262
aVdispose
p2617
ag2341
ag2342
ag2343
ag2108
ag2109
aVspring
p2618
ag2348
ag2178
ag2311
ag2312
ag2313
ag2505
ag2385
ag2386
ag2388
ag2233
ag2476
ag2477
ag2478
ag2479
ag2480
ag2273
ag1801
ag2205
ag2206
ag2309
ag2310
ag1826
ag1827
aVgrate
p2619
aVgrind
p2620
ag2212
ag2174
ag2175
ag2143
ag2112
ag2113
ag2114
ag2115
ag1732
ag1733
ag1787
ag1788
ag1789
ag2225
ag2234
ag2235
ag2417
ag2314
ag2281
ag1783
ag1880
ag1881
aVcircle
p2621
ag2504
ag2340
ag2213
ag2214
ag2215
ag2216
ag2217
aVdose
p2622
aVimprint
p2623
aVsquash
p2624
aVsquelch
p2625
aVmash
p2626
aVdishonor
p2627
aVdisgrace
p2628
aVdishonour
p2629
aVattaint
p2630
aVshame
p2631
ag2238
ag2239
aVjoust
p2632
aVbias
p2633
aVpredetermine
p2634
aVfish
p2635
ag2140
ag2236
ag2241
ag2257
ag2259
ag1718
ag2263
ag2264
ag2265
ag2266
ag1061
ag1159
ag1160
ag1161
ag1162
ag1163
ag1171
ag1172
ag1173
ag1174
ag1175
ag1176
ag1712
ag1719
ag1720
ag1752
ag1753
ag1754
ag1755
ag1756
ag1757
ag1761
ag1795
ag1799
ag1803
ag1804
ag1805
ag1808
ag1809
ag1810
ag1812
ag1814
ag1815
ag1837
ag1843
ag1844
ag2111
ag2282
ag2283
ag2284
ag2294
ag2295
ag2296
ag2298
ag2315
ag2317
ag2327
ag2328
ag2329
ag2330
ag2331
ag2332
ag2333
ag2334
ag2335
ag2336
ag2337
ag2339
ag2344
ag2345
ag2346
ag2347
ag2357
ag2358
ag2359
ag2360
ag2361
ag2389
ag2390
ag2394
ag2395
ag2396
ag2400
ag2404
ag2405
ag2406
ag2416
ag2418
ag2423
ag2424
ag2426
ag2427
ag2428
ag2429
ag2430
ag2431
ag2432
ag2433
ag2435
ag2436
ag2437
ag2438
ag2439
ag2442
ag2443
ag2450
ag2451
ag2452
ag2453
ag2454
ag2455
ag2456
ag2457
ag2458
ag2459
ag2460
ag2461
ag2462
ag2463
ag2464
ag2465
ag2466
ag2467
ag2468
ag2469
ag2470
ag2471
ag2472
ag2473
ag2474
ag2475
ag2492
ag2493
ag2494
ag2495
ag2496
ag2497
ag2499
ag2500
ag2501
ag2502
ag2503
aVmitigate
p2636
aVroll
p2637
aVfluster
p2638
aVdisarrange
p2639
aVperuse
p2640
aVparticipate
p2641
aVdive
p2642
aVplunk
p2643
aVpretermit
p2644
aVoverlook
p2645
aVoverleap
p2646
aVmanifold
p2647
aVabort
p2648
aVoverspread
p2649
aVgroup
p2650
aVaggroup
p2651
aVsteady
p2652
aVmap
p2653
aVconvulse
p2654
aVthresh
p2655
aVthrash
p2656
aVjactitate
p2657
aVscramble
p2658
aVfoam
p2659
aVfroth
p2660
aVfizz
p2661
aVeffervesce
p2662
aVsparkle
p2663
aVswing
p2664
aVsway
p2665
aVorb
p2666
aVorbit
p2667
aVretreat
p2668
aVrecede
p2669
aVrecapitulate
p2670
aVrecap
p2671
aVglide
p2672
aVmutate
p2673
aVcram
p2674
aVshelter
p2675
aVcontravene
p2676
aVdisavow
p2677
aVburthen
p2678
aVweight
p2679
aVallege
p2680
aVland
p2681
aVwind
p2682
aVhate
p2683
aVdetest
p2684
aVlighten
p2685
aVresound
p2686
aVnoise
p2687
aVsmash
p2688
aVshrivel
p2689
aVwither
p2690
aVsurvive
p2691
aVsubsist
p2692
aVinstill
p2693
aVtransfuse
p2694
aVoxidize
p2695
aVoxidise
p2696
aVoxidate
p2697
aVflaunt
p2698
aVostentate
p2699
aVswank
p2700
aVdevalue
p2701
aVgrimace
p2702
aVcondemn
p2703
aVnauseate
p2704
aVexhale
p2705
aVspurt
p2706
aVspirt
p2707
aVgush
p2708
aVspout
p2709
aVpervert
p2710
aVsubvert
p2711
aVdemoralize
p2712
aVdemoralise
p2713
aVdebauch
p2714
aVprofane
p2715
aVdeprave
p2716
aVmisdirect
p2717
aVoverlap
p2718
aVswerve
p2719
aVsheer
p2720
aVcurve
p2721
aVtrend
p2722
aVveer
p2723
aVslue
p2724
aVslew
p2725
aVhesitate
p2726
aVwaver
p2727
aVwaffle
p2728
aVlaunch
p2729
aVsky
p2730
aVsulk
p2731
aVpout
p2732
aVwing
p2733
aVwrinkle
p2734
aVruckle
p2735
aVcrease
p2736
aVcrinkle
p2737
aVscrunch
p2738
aVcrisp
p2739
aVcash
p2740
aVinflate
p2741
aVshop
p2742
aVadore
p2743
aVreverence
p2744
aVfear
p2745
aVrevere
p2746
aVvenerate
p2747
aVwarn
p2748
aVbode
p2749
aVportend
p2750
aVauspicate
p2751
aVomen
p2752
aVpresage
p2753
aVforeshadow
p2754
aVaugur
p2755
aVprefigure
p2756
aVprecipitate
p2757
aVembezzle
p2758
aVdefalcate
p2759
aVpeculate
p2760
aVmisappropriate
p2761
aVmalversate
p2762
aVfrighten
p2763
aVfright
p2764
aVscare
p2765
aVaffright
p2766
aVmortgage
p2767
aVprophesy
p2768
aVvaticinate
p2769
aVdistress
p2770
aVimportune
p2771
aVcure
p2772
aVdarken
p2773
aVheal
p2774
aVcommune
p2775
aVminimize
p2776
aVminimise
p2777
aVassoil
p2778
aVexonerate
p2779
aVexculpate
p2780
aVsocialize
p2781
aVsocialise
p2782
aVculminate
p2783
aVclimax
p2784
aVherd
p2785
aVgraze
p2786
aVrake
p2787
aVblur
p2788
aVdim
p2789
aVslur
p2790
aVmaim
p2791
aVstress
p2792
aVtorture
p2793
aVexcruciate
p2794
aVmutilate
p2795
aVcorrode
p2796
aVrust
p2797
aVwade
p2798
aVpack
p2799
aVbundle
p2800
aVwad
p2801
aVputter
p2802
aVpotter
p2803
aVtinker
p2804
aVmonkey
p2805
aVroil
p2806
aVspatter
p2807
aVsplatter
p2808
aVplash
p2809
aVsplash
p2810
aVsplosh
p2811
aVswash
p2812
aVjumble
p2813
aVdepress
p2814
aVdeject
p2815
aVdismay
p2816
aVdispirit
p2817
aVfleck
p2818
aVblob
p2819
aVblot
p2820
aVlunge
p2821
aVhurl
p2822
aVhurtle
p2823
aVdisparage
p2824
aVbelittle
p2825
aVmemorize
p2826
aVmemorise
p2827
aVcon
p2828
aVcollide
p2829
aVclash
p2830
aVreside
p2831
ag26
ag27
ag28
ag29
ag30
ag1882
ag31
ag1883
ag407
ag408
ag409
ag141
ag1884
ag337
ag338
ag339
ag340
ag680
aVdirect
p2832
ag1042
ag135
ag136
ag707
ag708
ag2518
ag2519
aVturn
p2833
aVgrow
p2834
ag459
ag460
ag876
ag32
aVdo
p2835
aVperform
p2836
ag56
ag57
ag1043
aVoperate
p2837
aVcontrol
p2838
ag436
aVtake
p2839
ag437
ag1044
ag1045
ag1046
ag1047
ag1941
ag1942
aVend
p2840
aVterminate
p2841
ag1
ag1048
ag1049
aVeat
p2842
ag217
ag218
ag219
ag220
ag221
ag2506
ag222
ag2507
ag223
ag224
ag225
ag226
ag227
ag228
ag229
ag230
ag231
ag232
ag233
ag234
ag235
ag236
ag237
ag238
ag54
ag55
ag1050
ag1051
ag1052
ag1053
ag1054
ag1055
ag1056
ag1057
ag694
ag695
ag285
ag286
ag287
ag288
ag289
ag290
ag165
ag167
ag291
ag292
ag293
ag2513
ag294
ag896
ag295
ag1909
ag242
ag244
ag245
ag246
ag44
ag6
ag59
ag60
ag877
ag61
ag878
ag62
ag63
ag64
ag880
ag20
ag65
ag66
ag67
ag68
ag69
ag70
ag71
ag72
ag73
ag74
ag76
ag77
ag78
ag79
ag80
ag81
ag882
ag82
ag83
ag84
ag85
ag86
ag87
ag88
ag89
ag90
ag91
ag92
ag93
ag94
ag95
ag96
ag97
ag98
ag99
ag100
ag101
ag102
ag103
ag104
ag105
ag106
ag107
ag383
ag384
ag335
ag669
ag670
aVinstruct
p2843
ag585
aVstudy
p2844
aVread
p2845
ag1058
ag1059
ag1060
ag410
ag1892
ag411
ag1061
ag1062
ag1063
ag1064
ag1065
ag1066
ag1067
ag1068
aVagree
p2846
aVhold
p2847
ag1069
aVconcord
p2848
ag451
ag1898
ag1070
ag1071
ag109
ag110
ag111
ag112
ag113
ag973
ag974
ag975
ag989
aVdistribute
p2849
ag1072
aVdeal
p2850
ag1073
ag1074
ag1075
ag1076
ag1077
ag1078
ag868
aVgive
p2851
ag1079
ag1080
ag1081
ag1082
ag1083
ag1084
ag1085
ag1901
ag769
ag770
ag771
ag772
ag1086
ag1915
ag487
ag897
ag128
ag1087
ag816
ag817
ag187
ag188
ag189
ag190
ag1088
ag756
ag757
ag336
ag17
aVincrease
p2852
ag239
ag240
ag1089
ag1090
ag1091
ag535
ag536
ag1092
ag1093
ag1094
aVsimulate
p2853
ag628
ag629
aVexamine
p2854
ag631
ag632
aVcheck
p2855
ag510
ag511
ag512
ag513
ag1095
aVuse
p2856
ag347
ag1096
ag1097
ag276
ag277
ag278
ag279
ag467
ag468
ag469
aVspend
p2857
ag472
ag473
ag1098
ag1099
ag1100
ag1101
ag1929
ag1102
ag1103
aVimpress
p2858
ag1104
ag1105
ag1106
aVassail
p2859
ag1107
aVattack
p2860
aVreproduce
p2861
ag1108
ag1109
ag247
ag248
ag249
ag250
ag326
ag1110
ag2530
ag537
ag444
ag381
ag382
ag906
aVrun
p2862
ag1111
ag1112
ag1113
ag1114
aVdeceive
p2863
ag1115
ag1116
aVbear
p2864
ag1117
ag1930
ag1118
aVcarry
p2865
ag372
ag1888
ag373
ag374
ag375
ag376
ag377
ag378
ag1119
ag1120
aVrepose
p2866
ag1121
ag1122
ag533
ag824
ag825
ag33
ag34
ag35
ag36
ag37
ag38
ag39
ag40
ag271
ag171
aVordain
p2867
ag161
aVclaim
p2868
ag1123
ag5
ag11
ag12
ag13
ag14
ag15
ag16
ag774
ag775
ag776
aVremove
p2869
ag252
ag253
ag254
ag255
ag132
ag133
ag134
ag256
ag257
ag259
ag261
ag262
ag263
ag264
ag265
ag266
ag270
ag251
ag1124
aVinterchange
p2870
aVexchange
p2871
ag1125
ag1126
ag1127
ag18
ag23
ag24
ag956
ag957
ag943
ag944
ag2524
ag470
aVhave
p2872
aVtell
p2873
ag1128
ag207
ag208
ag209
ag212
ag213
ag214
ag215
ag760
ag319
ag320
ag321
ag955
ag323
ag324
ag325
ag327
ag328
ag329
ag331
ag1906
ag332
ag333
ag334
ag1907
ag1129
ag1130
ag1131
ag1132
aVdestroy
p2874
ag514
ag1945
ag1133
ag1134
ag1135
ag1136
ag1137
ag1138
ag1922
aVcatch
p2875
ag1139
ag1140
ag1141
ag1142
ag1143
ag1144
aVblock
p2876
aVbreak
p2877
ag1145
ag539
ag540
ag542
ag543
ag618
ag1926
ag1146
ag385
ag1147
ag310
ag1148
ag1149
ag445
ag446
ag1150
ag1020
ag717
ag718
ag1889
ag379
ag1022
ag450
ag341
ag1023
aVobtain
p2878
ag843
ag1024
ag844
ag845
ag846
ag1025
ag847
ag848
ag719
ag350
ag351
ag849
ag850
ag851
ag852
ag853
ag854
ag855
ag856
ag857
ag858
ag565
ag971
ag566
ag567
ag568
ag569
ag972
ag859
ag860
ag862
ag345
ag42
ag43
ag47
ag48
ag49
ag50
ag51
ag114
ag115
ag117
ag118
ag119
ag120
ag121
ag125
ag126
ag129
ag130
ag131
ag138
ag139
ag140
ag142
ag143
ag144
ag145
ag146
ag147
ag148
ag152
ag153
ag154
ag155
ag157
ag158
ag160
ag162
ag163
ag164
ag170
ag172
ag173
ag174
ag241
ag272
ag273
ag275
ag280
ag281
ag283
ag284
ag394
ag395
ag2514
ag635
ag636
ag637
ag638
ag463
ag464
ag465
ag1151
ag1152
ag1153
ag1154
ag346
ag1155
ag1156
ag1157
ag1158
ag671
ag1159
ag1160
ag1161
ag1162
ag1163
ag452
ag453
ag454
ag455
ag456
aVspeculate
p2879
ag662
ag663
ag664
ag665
ag666
ag667
ag668
aVconnect
p2880
aVlink
p2881
aVjoin
p2882
aVunite
p2883
ag1164
ag592
ag1165
ag1166
ag1167
ag478
aVclear
p2884
ag1168
ag1169
ag1170
aVfree
p2885
aVdraw
p2886
ag1171
ag1172
ag1173
ag1174
ag1175
ag1176
ag1177
ag1178
ag1179
ag1180
ag1181
ag1182
ag1183
ag1184
ag1185
ag1186
ag1187
ag1188
ag1189
ag964
ag1190
ag734
ag735
ag736
ag737
aVsupport
p2887
ag761
ag762
ag489
ag490
ag763
aVconceive
p2888
ag764
ag765
aVhear
p2889
aVdiscover
p2890
ag766
aVlabel
p2891
ag597
ag598
ag792
ag793
ag794
ag1191
ag799
ag495
ag497
ag498
ag899
ag800
ag900
ag801
ag802
ag803
ag804
ag805
ag806
ag807
ag808
ag809
ag810
ag811
ag812
ag386
ag387
ag388
ag1421
ag1911
ag1912
ag1422
aVidentify
p2892
ag721
ag722
ag723
aVcall
p2893
ag724
aVanticipate
p2894
aVpromise
p2895
ag501
ag502
aVtrust
p2896
ag545
ag546
ag1677
ag633
ag602
ag599
ag600
ag601
ag1678
ag1679
aVdig
p2897
ag1680
ag1681
ag1682
ag529
ag524
ag525
ag526
ag527
ag528
aVinclude
p2898
ag521
ag522
ag530
ag531
ag532
ag342
ag343
ag344
ag348
ag353
ag354
ag355
ag357
ag358
ag359
ag360
ag361
ag362
ag363
ag364
ag365
ag366
ag367
ag181
ag182
ag371
ag389
ag390
ag391
ag392
ag393
ag397
ag398
ag399
ag296
ag401
ag402
ag403
ag404
ag405
ag406
ag297
ag298
ag299
ag300
ag301
ag302
ag303
ag304
ag306
ag307
ag308
ag412
ag413
ag415
ag416
ag417
ag418
ag420
ag421
ag422
ag423
ag425
ag426
ag427
ag429
ag313
ag430
ag431
ag432
ag433
ag434
ag435
ag438
ag441
ag442
ag443
ag447
ag448
ag449
ag457
ag458
ag1900
ag461
ag462
ag474
ag475
ag476
ag477
ag479
ag480
ag481
ag482
ag483
ag484
ag485
ag491
ag492
ag493
ag494
ag499
ag500
ag505
ag506
ag507
ag508
ag509
ag515
ag516
ag517
ag518
ag519
ag520
ag534
ag547
ag548
ag550
ag551
ag552
ag553
ag555
ag556
ag558
ag559
ag560
ag563
ag564
ag570
ag571
ag572
ag573
ag574
ag575
ag576
ag577
ag578
ag579
ag580
ag581
ag582
ag583
ag584
ag586
ag588
ag589
ag590
ag591
ag593
ag594
ag595
ag596
ag604
ag605
ag607
ag608
ag609
ag610
ag611
ag612
ag613
ag614
ag615
ag617
ag619
ag620
ag621
ag622
ag623
ag624
ag625
ag626
ag639
ag640
ag641
ag642
ag643
ag644
ag645
ag646
ag647
ag648
ag649
ag650
ag651
ag652
ag653
ag654
ag656
ag657
ag658
ag659
ag660
ag661
ag672
ag673
ag674
ag675
ag676
ag677
ag678
ag679
ag309
ag311
ag312
ag316
ag2520
ag1272
ag1273
ag1274
ag1275
ag1276
ag1277
ag1278
ag2521
ag1279
ag1280
ag1281
ag1282
ag1195
ag1196
ag1197
ag1198
ag1199
ag1283
ag1284
ag1285
ag1286
ag1287
ag1288
ag1251
ag1289
ag1290
ag1291
ag834
ag1292
ag2059
ag1293
ag1294
ag1295
ag1296
ag1297
ag1298
ag1931
ag1299
ag2523
ag1300
ag1301
ag1302
ag1303
ag1304
ag1305
ag1306
ag1307
ag1308
ag1309
ag1310
ag1311
ag1312
ag1313
ag1314
ag1315
ag836
ag837
ag838
ag839
ag840
ag841
ag1316
ag1257
ag1258
ag1259
ag1260
ag1317
ag1318
ag1319
ag967
ag1320
ag1321
ag1322
ag1323
ag1324
ag1325
ag1326
ag1327
ag1935
ag1328
ag1329
ag1330
ag1331
ag1332
ag1333
ag1334
ag1335
ag1336
ag2525
ag2526
ag1337
ag1936
ag1338
ag1339
ag1340
ag1341
ag1342
ag1343
ag1344
ag1345
ag1346
ag1347
ag1348
ag1349
ag1350
ag1351
ag1352
ag711
ag712
ag713
ag1353
ag1354
ag1355
ag1356
ag1357
ag1358
ag1359
ag1360
ag1361
ag1362
ag1363
ag1364
ag1365
ag1366
ag1367
ag1368
ag1369
ag1370
ag1371
ag1372
ag1373
ag1374
ag1375
ag1376
ag1377
ag1378
ag1379
ag687
ag689
ag690
ag691
ag692
ag1380
ag1381
ag1382
ag1383
ag1384
ag1385
ag1267
ag1386
ag1387
ag1388
ag1389
ag1390
ag1391
ag1392
ag1393
ag1394
ag1395
ag1396
ag1397
ag1398
ag1399
ag199
ag200
ag201
ag202
ag1400
ag1401
ag1402
ag1403
ag1404
ag1405
ag1406
ag1407
ag1408
ag1255
ag1256
ag1261
ag1262
ag1263
ag1264
ag1265
ag1409
ag1410
ag2046
ag1411
ag1412
ag1413
ag1414
ag1415
ag1416
ag1417
ag1418
ag1419
ag1420
ag176
ag178
ag183
ag191
ag192
ag193
ag194
ag195
ag869
ag870
ag871
ag872
ag732
ag720
ag2531
ag1217
ag813
ag1026
ag1027
ag1028
ag1029
ag1030
ag1032
ag1034
ag1035
ag1036
ag1037
ag1038
ag1040
ag1041
ag2534
ag2535
ag1423
ag1424
ag1425
ag1426
ag1427
ag1428
ag1429
ag1430
ag2536
ag2537
ag1431
ag1432
ag1433
ag2538
ag1434
ag1435
ag1437
ag1438
ag1439
ag1192
ag1193
ag1194
ag797
ag798
ag1200
ag1201
ag1202
ag1203
ag1204
ag1205
ag1206
ag1207
ag1209
ag1210
ag1211
ag1212
ag1213
ag704
ag705
ag706
ag969
ag979
ag980
ag981
ag982
ag983
ag984
ag985
ag986
ag991
ag911
ag912
ag914
ag916
ag918
ag919
ag996
ag998
ag999
ag949
ag950
ag951
ag1001
ag1003
ag1005
ag1006
ag1007
ag1010
ag1440
ag1441
ag1442
ag1443
ag1444
ag1445
ag1249
ag1250
ag1222
ag1223
ag1224
ag1225
ag1226
ag2540
ag1227
ag1228
ag1229
ag1230
ag1231
ag1232
ag1233
ag1446
ag1447
ag1448
ag1449
ag1268
ag1269
ag1270
ag1450
ag1451
ag1452
ag1453
ag1454
ag1455
ag1456
ag2062
ag1457
ag1458
ag937
ag938
ag939
ag942
ag1459
ag1460
ag1461
ag1462
ag1463
ag1464
ag1465
ag1466
ag1467
ag1468
ag1469
ag740
ag741
ag725
ag742
ag714
ag716
ag699
ag700
ag702
ag1470
ag743
ag1471
ag1472
ag1473
ag1474
ag1475
ag1476
ag1477
ag1478
ag1479
ag1480
ag1234
ag1235
ag1481
ag2541
ag1482
ag820
ag2542
ag1483
ag1484
ag1485
ag1486
ag1487
ag1488
ag1489
ag1490
ag1271
ag1491
ag1492
ag1493
ag1494
ag1495
ag1496
ag1497
ag1498
ag1499
ag1500
ag1501
ag1502
ag1503
ag1504
ag2546
ag1505
ag1506
ag1507
ag1508
ag1509
ag1510
ag1511
ag2547
ag1512
ag2548
ag2549
ag2550
ag1513
ag1514
ag1515
ag1516
ag1517
ag1518
ag1519
ag1520
ag1521
ag1522
ag1523
ag1524
ag1525
ag1526
ag1527
ag1246
ag1247
ag1248
ag1528
ag1529
ag1530
ag1531
ag1532
ag1533
ag1534
ag1535
ag1536
ag1537
ag1538
ag1539
ag1540
ag1541
ag1542
ag1543
ag1544
ag1545
ag1546
ag1547
ag1548
ag1549
ag1550
ag1551
ag1552
ag1553
ag1554
ag1555
ag1556
ag1238
ag1241
ag1242
ag1244
ag1557
ag922
ag1558
ag1559
ag1560
ag1561
ag1562
ag1563
ag1564
ag1565
ag1566
ag1567
ag1245
ag866
ag1252
ag1253
ag1254
ag1568
ag1569
ag1570
ag1571
ag1994
ag904
ag905
ag907
ag921
ag923
ag926
ag928
ag929
ag930
ag931
ag935
ag1572
ag1573
ag1574
ag1575
ag1576
ag1218
ag1219
ag1577
ag1578
ag1579
ag1580
ag1581
ag1582
ag1583
ag1584
ag1585
ag1586
ag1587
ag1588
ag1589
ag1590
ag1591
ag1592
ag1593
ag1594
ag1595
ag1596
ag1597
ag1598
ag1599
ag1600
ag1601
ag1602
ag1603
ag1604
ag1605
ag1606
ag1607
ag1608
ag1609
ag1610
ag1611
ag1612
ag1613
ag1614
ag1615
ag1616
ag1617
ag1618
ag1619
ag1620
ag1621
ag1622
ag1623
ag1624
ag1625
ag1626
ag1627
ag826
ag827
ag829
ag830
ag831
ag1628
ag1629
ag1630
ag1631
ag1632
ag1633
ag1634
ag1635
ag1636
ag1637
ag1638
ag1639
ag1640
ag1641
ag1642
ag1643
ag1644
ag1645
ag1646
ag1647
ag1648
ag1649
ag1650
ag1651
ag1652
ag1653
ag1654
ag1655
ag1656
ag1657
ag1658
ag1659
ag966
ag1660
ag1661
ag1662
ag1663
ag1664
ag1665
ag1666
ag1667
ag1668
ag1669
ag1670
ag873
ag1671
ag1672
ag1673
ag1674
ag1675
ag1676
ag681
ag682
ag683
ag684
ag685
ag1683
ag2553
ag2554
ag1684
ag1685
ag1686
ag1687
ag1688
ag1689
ag1690
ag1691
ag1692
ag1693
ag1694
ag1695
ag796
ag1696
ag1697
ag1698
ag1699
ag1700
ag1701
ag1702
ag1703
ag1704
ag1214
ag1215
ag1216
ag1220
ag1221
ag946
ag1236
ag1705
ag1706
ag1707
ag1708
ag1709
ag1710
ag2086
ag2014
aVexplicate
p2899
ag2166
ag2167
ag2168
ag2573
ag2207
ag2567
aVtag
p2900
ag1737
ag1738
ag2208
ag2606
ag2209
ag2210
ag2211
ag2212
ag703
ag2174
ag2175
ag2143
aVreject
p2901
ag2213
ag2214
ag2215
ag2216
ag2217
ag2218
ag1728
ag1729
ag1785
ag1786
ag1787
ag1788
ag1789
ag1726
ag2219
ag2220
ag2221
ag2222
aVshoot
p2902
ag2223
ag2224
ag2010
ag2012
ag1731
ag2017
ag2018
ag2020
ag2021
ag2225
ag2226
ag2227
ag2228
ag2229
ag2230
ag1853
ag2231
ag2232
ag2604
aVreduce
p2903
ag2233
ag2234
ag2235
ag1845
ag1846
ag1847
ag1848
ag1850
ag1851
ag1852
ag2236
ag2237
aVattend
p2904
ag2238
ag2239
ag2240
ag2241
ag2080
ag2082
ag2083
ag1828
ag1829
ag1830
ag1831
ag1832
ag1833
ag1834
ag1835
ag1836
ag1816
ag2151
ag2152
ag2153
ag2242
ag2243
ag2244
ag2065
ag2176
ag2245
ag2246
ag2247
ag2248
ag2249
ag2250
aVstore
p2905
ag2066
ag1723
ag1724
ag1725
aVtransgress
p2906
ag2251
ag2252
ag2253
ag2254
ag1749
ag2255
ag795
ag2256
ag1796
ag1797
ag2257
ag2258
ag1863
ag1864
ag1865
ag1866
ag1867
ag1868
ag1869
ag1870
ag1871
ag1872
ag1873
ag1874
aVdeviate
p2907
ag2259
ag2116
ag2117
ag1718
ag1763
ag1764
ag1875
ag1876
ag1877
ag1969
ag2260
ag2261
ag2262
ag2617
ag777
ag778
ag779
ag2263
ag2264
ag2265
aVdevolve
p2908
ag2190
ag2191
ag2144
ag2145
ag2146
ag2147
ag2148
ag2149
ag2150
ag2266
ag2193
ag2194
ag2195
ag2196
ag2197
ag2198
ag2199
ag2200
ag2201
ag2202
ag2203
aVstick
p2909
ag2204
ag1751
ag822
ag823
ag2267
ag2268
ag2269
ag2270
ag2271
ag2272
ag2273
ag1807
aVplunge
p2910
ag1801
ag1811
ag2274
ag2275
ag1878
ag1879
ag1857
ag1858
ag1859
ag1860
ag2276
ag2277
ag2278
ag2279
ag2280
ag2186
ag2281
ag1855
ag1856
ag1861
ag1862
ag1732
ag1733
ag1734
ag1735
ag1736
ag1783
aVinquire
p2911
aVenquire
p2912
ag1815
ag1817
ag2282
ag884
ag885
ag952
ag954
ag819
ag1949
ag2178
ag863
ag726
ag727
ag728
ag729
ag730
ag731
ag1826
ag1827
ag2068
ag2069
ag2070
ag2071
ag2072
ag2073
ag2074
ag2075
ag2076
ag2077
ag2078
ag1968
ag1970
ag1971
ag1973
ag1974
ag1975
ag1976
ag1977
aVsplit
p2913
ag1779
ag1780
ag1978
ag1979
ag1980
ag1981
ag1983
ag1984
ag1985
ag1986
ag1987
ag1988
ag1991
ag1992
ag1993
ag2084
ag2085
ag1721
ag1722
ag2283
ag2284
ag2285
ag2286
ag2287
ag2288
ag2289
ag2290
ag2291
ag2177
ag2292
ag2293
ag1742
ag1743
ag1744
ag1745
ag1746
ag1747
ag1748
ag1750
ag2127
ag2294
ag1713
ag1714
ag1715
ag1717
ag2295
ag2296
ag2297
ag751
ag752
ag1820
ag1821
ag2093
ag2094
ag2095
ag2096
ag2097
ag2098
ag2099
ag2100
ag2101
ag2102
ag2562
ag2103
ag2104
ag2105
ag2106
ag1765
ag1766
ag2091
ag2034
ag2088
ag2089
ag2090
ag2092
aVreserve
p2914
ag1741
ag1822
ag1823
ag1824
ag1825
ag753
ag758
ag2035
ag2037
ag1959
ag2038
ag2039
ag1948
ag1950
ag1951
ag2048
ag2049
ag2050
ag2051
ag2052
ag2053
ag2054
ag2055
ag2056
ag2057
ag2058
ag2005
ag2006
ag2007
ag2008
ag1838
ag1839
ag1840
ag1841
ag1842
ag2164
ag2165
ag2107
ag2298
ag2128
ag2129
ag2130
ag2131
ag2132
ag2133
ag2134
ag2135
ag2180
ag2181
ag2182
ag2183
ag2184
ag1957
ag2185
ag2187
ag2299
ag2300
ag2301
ag2302
ag2303
ag2304
ag2305
ag2110
ag2205
ag2206
ag2306
ag2307
ag2308
ag2309
ag2310
ag2311
ag2312
ag2313
ag2118
ag1781
ag2121
ag2122
ag2123
ag2124
ag2125
ag1999
ag2314
ag1794
ag1739
ag1719
ag1720
ag698
ag2315
ag2316
ag2317
ag2318
ag2319
ag2320
ag2321
ag2188
ag2189
ag1880
ag1881
ag814
ag2322
ag2323
ag2324
ag2325
ag2326
ag2327
ag2328
ag2329
ag2330
ag2331
ag2160
ag2332
ag2333
ag2334
ag2335
ag2336
ag2337
ag2338
ag1782
ag2557
ag2339
ag2340
ag2341
ag2342
ag2343
ag2344
ag2345
ag2346
ag2347
ag2108
ag2109
ag2348
ag2173
ag2349
ag2350
ag2351
ag2352
ag1767
ag2353
ag2354
ag2355
ag2356
ag745
ag746
ag747
ag748
ag749
ag759
ag2357
ag2358
ag2359
ag2360
ag2361
ag2362
ag1711
ag2363
ag2364
ag2365
ag2366
ag2367
ag2368
ag2154
ag2155
ag2156
ag2157
ag2568
ag2569
ag2570
ag1946
ag1960
ag1961
ag1962
ag2369
ag2370
ag2371
ag2372
ag2373
ag2374
ag2375
ag2376
ag2377
ag2378
ag2379
ag2380
ag2381
ag2382
ag2383
ag2384
ag2385
ag2386
ag2387
ag2388
ag2141
ag2142
ag2389
ag2390
ag2391
ag2392
ag2393
ag2394
ag2395
ag2396
ag2397
ag2398
ag2399
ag2400
ag2605
ag1800
ag788
ag789
ag1843
ag1844
ag2401
ag2402
ag2403
ag2404
ag2405
ag2406
ag2407
ag2408
ag2409
ag2410
ag2411
ag2412
ag2413
ag2414
ag2415
ag1818
ag1819
ag2170
ag2171
ag2172
ag780
ag781
ag782
ag783
ag784
ag786
ag787
ag2158
ag2159
ag2161
ag2162
ag2163
ag2476
ag2477
ag2478
ag2479
ag2480
ag2481
aVnegate
p2915
ag2676
ag2677
ag2619
ag2620
ag2675
ag2425
ag2770
ag2771
ag2622
ag2623
ag2624
ag2625
ag2626
ag2486
ag2487
ag2488
ag2489
ag2490
ag2491
ag2627
ag2628
ag2629
ag2630
ag2631
ag2637
ag2638
ag2639
ag2640
ag2772
ag2773
ag2652
ag2140
ag2591
ag2592
ag2593
ag2774
ag2729
ag2701
ag2571
ag2572
ag1790
ag1791
ag1792
ag1793
ag2574
ag2575
ag2576
ag2577
ag2578
ag2579
ag2580
ag2581
ag2582
ag2482
ag2584
ag2585
ag2586
ag2587
ag1768
ag1770
ag1771
ag1772
ag1773
ag1774
ag1775
ag1776
ag1777
ag2590
ag2446
ag2447
ag2448
ag2449
ag2594
ag2596
ag2597
ag2440
ag2441
ag2444
ag2445
ag2599
ag2601
ag2602
ag2603
ag2483
ag2484
ag2485
ag2608
ag2609
ag2610
ag2136
ag2137
ag2138
ag2139
ag2419
ag2420
ag2421
ag2422
ag2615
ag2505
ag2416
ag2636
ag2648
ag2649
ag2650
ag2651
ag1712
ag2426
ag2427
ag2428
ag2429
ag2430
ag2431
ag2432
ag2417
ag2685
aVland
p2916
ag2686
ag2687
ag2688
ag2689
ag2690
ag2664
ag2665
ag2726
ag2727
ag2728
ag2494
ag2495
ag2496
ag2497
ag2499
ag2500
ag2501
ag2502
ag2503
ag2703
ag1837
ag2666
ag2667
ag2668
ag2669
ag2670
ag2671
ag2672
ag2673
ag2674
ag2504
ag2680
ag2454
ag2455
ag2456
ag2457
aVunfasten
p2917
aVunstrain
p2918
aVunlax
p2919
ag2435
ag2436
ag2437
ag2438
ag2439
ag2442
ag2443
ag2704
aVcycle
p2920
aVerr
p2921
ag2654
ag2655
ag2656
ag2657
ag2658
ag2659
ag2660
ag2661
ag2662
ag2663
ag2459
ag2450
ag2451
ag2452
ag2453
ag2742
ag2743
ag2744
ag2745
ag2746
ag2747
ag2748
ag2749
ag2750
ag2751
ag2752
ag2753
ag2754
ag2755
ag2756
ag2460
ag2461
ag2462
ag2691
ag2692
ag2693
ag2694
ag2695
ag2696
ag2697
ag1752
ag1753
ag1754
ag1755
ag1756
ag1757
ag1761
ag2740
ag2741
ag2111
ag2493
ag2423
ag2424
ag2458
ag2768
ag2769
ag1795
ag1799
ag1803
ag1804
ag1805
ag1808
ag1809
ag1810
ag1812
ag1814
ag2112
ag2113
ag2114
ag2115
ag2632
ag2633
ag2634
ag2635
ag2644
ag2645
ag2646
ag2775
ag2730
ag2783
ag2784
ag2776
ag2777
ag2642
ag2643
ag2758
ag2759
ag2760
ag2761
ag2762
ag2641
ag2767
ag2731
ag2732
ag2733
ag2829
ag2830
ag2831
aVhurl
p2922
aVhurtle
p2923
ag2821
ag2710
ag2711
ag2712
ag2713
ag2714
ag2715
ag2716
ag2717
ag2463
ag2464
ag2465
ag2466
ag2467
ag2468
ag2469
ag2470
ag2471
ag2682
ag2678
ag2679
ag2653
ag2647
ag2778
ag2779
ag2780
ag2718
ag2826
ag2827
ag2828
ag2683
ag2684
aVslog
p2924
aVfootslog
p2925
aVplod
p2926
aVtrudge
p2927
aVpad
p2928
aVtramp
p2929
ag2824
ag2825
ag2698
ag2699
ag2700
aVprejudice
p2930
aVprepossess
p2931
ag2702
ag2705
ag2706
ag2707
ag2708
ag2709
ag2418
ag2433
ag2472
ag2473
ag2474
ag2475
ag2492
ag2719
ag2720
ag2721
ag2722
ag2723
ag2724
ag2725
ag2734
ag2735
ag2736
ag2737
ag2738
ag2739
ag2757
ag2763
ag2764
ag2765
ag2766
ag2781
ag2782
ag2785
ag2786
ag2787
ag2788
ag2789
ag2790
ag2791
ag2792
ag2793
ag2794
ag2795
ag2796
ag2797
ag2798
ag2799
ag2800
ag2801
ag2802
ag2803
ag2804
ag2805
ag2806
ag2807
ag2808
ag2809
ag2810
ag2811
ag2812
ag2813
ag2814
ag2815
ag2816
ag2817
ag2818
ag2819
ag2820
aVtumble
p2932
aVrock
p2933
aVchurn
p2934
aVboil
p2935
aVmoil
p2936
aVsubmerge
p2937
aVsubmerse
p2938
aVswim
p2939
aVignore
p2940
aVdisregard
p2941
aVoverdo
p2942
aVpicture
p2943
aVamuse
p2944
aVlaugh
p2945
aVflap
p2946
aVpound
p2947
aVthump
p2948
aVswap
p2949
aVbubble
p2950
aVfornicate
p2951
aVsummarize
p2952
aVsummarise
p2953
aVresume
p2954
aVaviate
p2955
aVpilot
p2956
aVdislike
p2957
aVcheer
p2958
aVunburden
p2959
aVdisburden
p2960
aVdemolish
p2961
aVbestow
p2962
aVcheapen
p2963
aVdenounce
p2964
aVimpound
p2965
aVsequester
p2966
aVconfiscate
p2967
aVdepose
p2968
aVcoincide
p2969
aVco-occur
p2970
aVcooccur
p2971
aVvoice
p2972
aVvocalize
p2973
aVvocalise
p2974
aVrattle
p2975
aVbrush
p2976
aVcrunch
p2977
aVscranch
p2978
aVscraunch
p2979
aVcrackle
p2980
aVesteem
p2981
aVprise
p2982
aVregret
p2983
aVowe
p2984
aVinconvenience
p2985
aVdisoblige
p2986
aVdiscommode
p2987
aVincommode
p2988
aVharden
p2989
aVindurate
p2990
aVtarnish
p2991
aVmaculate
p2992
aVsully
p2993
aVdefile
p2994
aVnosh
p2995
aVsnack
p2996
aVnominate
p2997
aVhike
p2998
aVseal
p2999
aVsleep
p3000
aVkip
p3001
aVslumber
p3002
aVbusy
p3003
aVsprinkle
p3004
aVdot
p3005
aVdust
p3006
aVoverlay
p3007
aVsuck
p3008
aVconflict
p3009
ag1883
ag216
ag217
ag26
ag218
ag219
ag220
ag221
ag2506
ag222
ag2507
ag223
ag224
ag225
ag226
ag227
ag228
ag229
ag230
ag231
ag232
ag233
ag234
ag235
ag236
ag237
ag238
ag54
ag55
ag239
ag240
ag2508
ag241
ag242
ag243
ag244
ag245
ag246
ag876
ag32
ag247
ag248
ag249
ag250
ag2509
ag141
ag29
ag30
ag31
ag2510
ag251
ag252
ag253
ag1
ag254
ag255
ag22
ag132
ag133
ag134
ag2511
ag256
ag257
ag258
ag259
ag260
ag261
ag262
ag263
ag264
ag265
ag266
ag267
ag268
ag269
ag270
ag165
ag166
ag167
ag5
ag6
ag7
ag9
ag10
ag11
ag12
ag13
ag14
ag15
ag16
ag27
ag813
ag774
ag775
ag776
ag2869
ag2520
aVconvey
p3010
ag1151
ag1152
ag1153
ag1154
ag1272
ag1273
ag1274
ag1275
ag1276
ag1277
aVdirect
p3011
ag1278
aVhead
p3012
ag2521
aVchannelize
p3013
aVchannelise
p3014
ag503
ag988
ag1279
ag1280
aVstraighten
p3015
ag1884
ag337
ag338
ag1903
aVtell
p3016
ag494
aVsay
p3017
ag436
ag437
ag44
ag495
ag496
ag497
ag498
ag879
ag880
aVinstruct
p3018
ag499
ag500
aVintend
p3019
ag501
ag502
ag504
ag161
aVwork
p3020
aVprocess
p3021
ag58
ag59
ag60
ag64
ag295
ag1705
ag1706
ag1707
ag1708
ag1709
ag1710
ag128
ag898
ag407
ag408
ag409
ag680
ag1042
ag135
ag136
ag707
ag708
ag2518
ag2519
ag2834
ag459
ag460
ag56
ag57
ag1043
ag2837
ag1044
ag1045
ag1046
ag1047
ag1941
ag1942
ag488
aVdevelop
p3022
ag679
aVhurt
p3023
ag1295
ag1296
ag1297
ag1298
ag1931
ag1299
ag2523
ag1300
ag520
ag1471
ag1472
aVfasten
p3024
ag1473
ag1474
ag1475
ag1476
ag1477
ag1478
ag1479
ag1480
ag33
ag34
ag35
ag36
ag37
ag38
ag39
ag40
ag271
ag45
ag47
ag48
ag49
ag50
ag51
ag52
ag17
ag341
ag67
ag68
ag69
ag342
ag343
ag344
ag345
ag1885
ag346
ag1015
ag347
ag348
aVpull
p3025
ag349
ag350
ag351
ag352
ag354
ag355
ag356
ag357
ag358
ag359
ag360
ag361
ag362
ag363
ag364
ag365
ag366
ag367
ag368
ag369
ag181
ag182
ag370
ag371
ag372
ag1888
ag373
ag374
ag375
ag376
ag377
ag378
ag1889
ag379
ag380
ag381
ag382
ag2086
aVdistort
p3026
ag592
ag986
ag1917
ag487
ag1542
ag1543
ag1544
aVexamine
p3027
ag1545
aVsee
p3028
aVcheck
p3029
aVinsure
p3030
aVensure
p3031
aVascertain
p3032
aVassure
p3033
ag562
aVknow
p3034
ag164
aVuse
p3035
ag1019
ag717
ag718
aVcarry
p3036
ag467
ag468
ag469
ag1020
ag1021
ag1022
ag450
ag842
ag1023
ag2878
ag843
ag1024
ag844
ag845
ag846
ag1025
ag847
ag848
ag719
ag849
ag851
ag852
ag853
ag854
ag855
ag856
ag857
ag858
ag565
ag566
ag567
ag568
ag569
ag972
ag859
ag860
ag861
ag862
aVwin
p3037
ag669
ag670
ag2844
ag2845
ag335
ag1268
aVrefine
p3038
ag1269
ag1270
ag1450
aVhold
p3039
ag1325
ag1326
ag1327
ag1451
ag1452
ag309
ag973
ag974
ag975
ag2013
ag2014
ag2015
aVname
p3040
aVrefer
p3041
ag2899
aVformulate
p3042
ag1906
ag332
ag333
ag334
ag1907
ag514
ag18
ag20
ag1050
ag1051
ag1052
ag1053
ag1054
ag1055
ag1056
ag1057
ag1554
aVappear
p3043
ag1900
ag461
aVeat
p3044
ag1236
ag473
ag1048
ag1049
ag694
ag695
ag285
ag286
ag287
ag288
ag289
ag290
ag291
ag292
ag293
ag294
ag61
ag62
ag63
ag65
ag66
ag70
ag71
ag73
ag74
ag76
ag79
ag80
ag81
ag82
ag83
ag84
ag85
ag86
ag88
ag89
ag90
ag91
ag95
ag96
ag98
ag99
ag100
ag101
ag102
ag103
ag104
ag105
ag106
ag383
ag384
ag585
ag1058
ag1059
ag1060
ag410
ag411
ag1061
ag1062
ag1063
ag1064
ag1065
ag1066
ag1067
ag1068
ag1069
ag451
ag1898
ag1070
ag1071
ag110
ag111
ag112
ag2849
ag1072
ag1073
ag1074
ag1075
ag1076
ag1077
ag1078
ag868
ag2851
ag1079
ag1080
ag1081
ag1082
ag1083
ag1084
ag1085
ag1901
ag769
ag770
ag771
ag772
ag1086
ag1915
ag1087
ag816
ag817
ag187
ag188
ag189
ag190
ag1088
ag756
ag757
aVqualify
p3045
ag2087
ag822
ag823
ag515
ag516
ag517
ag518
ag519
ag156
ag157
ag158
ag1711
aVsurpass
p3046
ag1177
ag1178
ag1179
ag1180
ag1181
ag1182
ag1183
ag1184
ag1185
ag1186
ag2002
ag2003
ag1187
ag1188
aVmeet
p3047
ag1189
aVjoin
p3048
ag964
ag326
ag1190
ag734
ag735
ag736
ag737
ag2887
ag761
ag762
ag489
ag490
ag763
ag2888
ag764
ag765
ag2890
ag766
ag597
ag598
ag792
ag793
ag794
ag1191
ag1099
ag1100
ag1101
aVoriginate
p3049
ag1929
ag1102
ag1103
ag1104
ag1105
ag1106
ag2859
ag1107
ag2860
ag1108
ag1109
ag799
aVrun
p3050
ag899
ag800
ag801
ag802
ag803
ag804
ag805
ag806
ag807
ag808
ag809
ag810
ag811
ag812
ag277
ag278
ag279
ag1098
ag1110
ag2530
ag537
ag906
ag1111
ag1112
ag1113
ag1114
ag1115
ag1116
ag2864
ag1117
ag1930
ag1118
ag1119
ag1120
ag2866
ag1121
ag1122
ag533
ag824
ag825
ag385
ag1017
ag386
ag387
ag388
ag389
ag390
ag391
ag392
ag393
ag394
ag397
ag398
ag399
ag400
ag207
ag208
ag209
ag212
ag213
ag214
ag215
ag296
ag401
ag138
ag402
ag403
ag404
ag405
ag406
ag297
ag298
ag299
ag300
ag301
ag302
ag303
ag304
ag306
ag307
ag308
ag412
ag413
ag414
ag415
ag416
ag417
ag418
ag420
ag421
ag422
ag423
ag424
ag425
ag426
ag427
ag428
ag429
ag313
ag430
ag431
ag432
ag433
ag434
ag435
ag441
ag442
ag443
ag445
ag446
ag447
ag448
ag1897
ag449
ag452
ag453
ag454
ag455
ag456
ag457
ag458
ag462
ag463
ag464
ag465
ag470
ag474
ag475
ag476
ag477
ag478
ag479
ag480
ag481
ag482
ag483
ag484
ag485
ag491
ag492
ag493
ag505
ag506
ag507
ag508
ag509
ag511
ag512
ag513
ag318
ag319
ag321
ag324
ag327
ag328
ag329
ag331
ag521
ag523
ag524
ag525
ag526
ag527
ag528
ag530
ag531
ag532
ag534
ag535
ag536
ag539
ag540
ag542
ag543
ag545
ag546
ag547
ag548
ag550
ag551
ag552
ag553
ag555
ag556
ag557
ag558
ag559
ag560
ag563
ag564
ag570
ag571
ag572
ag573
ag574
ag575
ag576
ag577
ag160
ag578
ag579
ag580
ag581
ag582
ag583
ag584
ag586
ag587
ag588
ag589
ag590
ag591
ag593
ag594
ag595
ag596
ag599
ag600
ag601
ag602
ag604
ag605
ag606
ag607
ag608
ag609
ag610
ag611
ag612
ag613
ag614
ag615
ag617
ag618
ag619
ag620
ag621
ag622
ag623
ag624
ag625
ag626
ag627
ag174
ag628
ag629
ag631
ag632
ag633
ag634
ag635
ag636
ag637
ag638
ag639
ag640
ag641
ag642
ag643
ag644
ag645
ag646
ag647
ag648
ag649
ag650
ag651
ag652
ag653
ag654
ag147
ag148
ag656
ag657
ag658
ag659
ag660
ag661
ag662
ag663
ag664
ag665
ag666
ag667
ag668
ag671
ag672
ag673
ag674
ag676
ag677
ag678
ag1418
ag1419
ag1420
ag171
ag1698
ag1699
ag1637
ag1638
ag1639
ag1481
ag958
ag959
ag720
ag721
ag722
ag723
ag724
ag725
ag726
aVrecognize
p3051
aVrecognise
p3052
ag1440
ag1148
ag1149
aVenlarge
p3053
aVintensify
p3054
ag2009
ag2010
aVdeepen
p3055
ag1146
ag1147
ag967
ag704
ag705
ag706
ag978
ag979
ag980
ag981
ag982
ag983
ag984
ag985
ag987
ag990
ag991
ag699
ag700
ag701
ag702
ag681
ag682
ag683
ag684
ag685
ag686
ag687
ag689
ag690
ag691
ag692
ag863
ag864
ag865
ag1713
ag1714
ag1715
ag1716
ag1717
ag2034
ag1672
ag1673
ag1674
ag1863
ag1864
ag998
ag999
ag1865
ag1866
ag1867
aVinvest
p3056
ag1868
ag2040
ag1869
ag1870
ag1871
ag1872
ag1873
ag1874
ag2041
ag199
ag200
ag201
ag202
aVspread
p3057
ag1949
ag152
ag2537
aVdivide
p3058
aVsplit
p3059
ag2088
ag2089
ag2090
aVfree
p3060
ag2091
aVproduce
p3061
ag820
ag2542
ag1483
ag1484
aVrepair
p3062
ag1485
aVshow
p3063
ag1996
ag1486
ag1487
ag1488
ag1489
ag173
ag1490
ag1271
ag1491
ag1492
ag2092
ag1247
ag1248
ag2914
ag1129
ag1518
ag1520
ag2093
ag2094
ag1218
ag1219
ag2095
ag1127
ag183
ag2096
ag2097
ag2098
ag2099
ag2100
ag2101
ag2102
ag145
ag146
ag2561
ag2562
ag931
ag1137
ag1138
ag2103
ag2104
ag2105
ag2106
ag2884
ag1168
ag1169
ag1170
ag2107
ag2049
ag2050
ag2051
ag2052
ag2053
ag2054
ag2055
ag2056
ag2057
ag2058
ag114
ag115
ag743
ag744
ag1835
ag1836
ag1816
ag1412
ag937
ag939
ag942
ag943
ag944
ag946
ag1089
ag1090
ag1091
ag2108
ag2109
aVbound
p3064
ag1222
ag1223
ag1224
ag1225
aVbreak
p3065
ag2110
aVreturn
p3066
aVrepay
p3067
ag2111
ag1579
aVcopy
p3068
ag2112
ag2113
ag2114
aVrepeat
p3069
ag2115
ag1642
aVpretend
p3070
ag1150
ag1575
ag1576
ag1671
ag1918
ag1919
ag1580
ag1920
ag1581
ag1582
ag1583
ag1921
ag1584
ag1922
ag1585
ag1923
ag1586
aVbegin
p3071
ag129
ag131
aVundertake
p3072
ag1555
ag1736
ag2047
ag2883
ag1928
ag316
aVdecline
p3073
ag1493
ag1494
ag1495
ag196
aVlose
p3074
ag1496
ag1497
ag1498
ag1499
ag1500
ag1501
ag1502
ag1166
ag1007
ag1453
ag1454
ag2116
ag2117
ag1828
ag1829
ag1830
ag1831
ag1832
ag1833
ag1834
ag2118
ag2119
aVtrespass
p3075
ag2120
ag1599
aVincline
p3076
ag1600
aVemerge
p3077
ag1781
ag716
ag117
ag118
ag119
ag120
ag121
aVposit
p3078
ag2121
ag1598
ag2122
ag2123
ag2124
ag2125
ag1978
ag1979
ag2564
ag709
ag710
ag711
ag712
ag713
ag1383
ag1123
ag1732
ag1733
ag2059
ag1734
ag1735
ag1456
ag1457
ag1458
ag904
ag905
ag910
ag911
ag912
ag914
ag915
ag916
ag918
ag919
ag921
ag922
ag923
ag924
ag926
ag928
ag929
ag930
ag935
ag2126
ag2127
ag2128
ag2129
ag2130
ag2131
ag2132
ag2133
ag2134
aVdesolate
p3079
ag2135
ag2136
aVwalk
p3080
ag2137
ag2138
ag2139
ag2140
ag1010
ag1011
ag1012
ag994
ag996
ag997
ag947
ag949
ag950
ag951
ag1001
ag1003
ag1005
ag1006
aVnurture
p3081
ag1403
ag1404
ag1406
ag1407
ag1408
ag1255
ag1256
ag1257
ag1258
ag1259
ag1260
ag1261
ag1262
ag1263
ag1264
ag1265
ag1409
ag1410
ag2046
ag1411
ag1340
ag1341
ag1342
ag1343
ag1344
ag1345
ag1346
ag1347
ag1348
ag1349
ag2141
ag2142
ag2143
ag1470
ag2012
ag1731
ag272
ag275
ag280
ag281
ag283
ag284
ag1245
ag42
ag43
ag125
ag139
ag140
ag142
ag143
ag144
ag151
ag153
ag154
ag956
ag957
ag760
ag1130
ag1131
ag1132
ag1133
ag1134
ag1135
ag1136
ag1139
ag1141
ag1142
ag1143
ag1144
ag1145
ag1125
ag1126
ag814
ag2144
ag2145
ag2146
ag2147
ag2148
ag2149
ag2150
ag176
ag178
ag191
ag193
ag194
ag195
ag1422
ag2151
ag2152
ag2153
ag1026
ag1027
ag1028
ag1029
ag1030
ag1031
ag1034
ag1036
ag1037
ag1038
ag1040
ag1041
ag1640
ag1641
ag1249
ag1250
ag866
ag1251
ag1252
ag1253
ag1254
ag1237
ag1238
ag1239
ag1240
ag1241
ag1242
ag1243
ag1244
ag2022
ag1267
ag1155
ag1156
ag1157
ag1158
ag758
ag1980
ag1981
ag2154
ag2155
ag2156
ag2157
ag2568
ag2569
ag2570
ag1384
ag1385
aVreclaim
p3082
ag2158
ag2159
ag1611
ag1323
ag1324
ag1935
ag1328
ag1329
ag1330
ag1331
ag1332
ag1333
ag1334
ag1335
ag1336
ag1337
ag1338
ag1283
ag2160
ag1563
ag1564
ag2161
ag2162
ag2163
ag2068
ag2069
ag2070
ag2071
ag2072
ag2073
ag2074
ag2075
ag2076
ag2077
ag2078
ag1165
ag1968
ag1969
ag1970
ag1972
ag1973
ag1974
ag1975
ag1977
ag1779
ag1780
ag1983
ag1984
ag1985
ag1986
ag1987
ag1988
ag1394
ag1751
ag1990
ag1400
ag1401
ag1402
ag1991
ag1992
ag1993
ag1577
ag1578
ag1587
ag1588
ag1589
ag1590
ag1591
ag1592
ag1593
ag1594
ag1595
ag1226
ag1227
ag1228
ag1229
ag1230
ag1231
ag1220
ag1221
ag2164
ag2165
ag1459
ag1460
ag1461
ag1462
ag1463
ag1464
ag1315
ag2061
ag1726
ag1415
ag1416
ag1417
ag740
ag742
ag2063
ag1853
ag1234
ag1235
ag1630
ag1631
ag1854
ag1855
ag1856
ag1546
ag1547
ag1548
ag1549
ag1550
ag1551
ag1857
ag1858
ag1859
ag1860
ag1861
ag1862
ag1350
ag1305
ag1612
ag1613
ag1615
ag1421
ag1616
ag1503
ag1875
ag2064
ag1876
ag1877
ag1284
ag1285
ag1286
ag1287
ag1288
ag696
ag697
ag698
ag703
ag727
ag728
ag729
ag730
ag731
ag732
ag745
ag746
ag747
ag748
ag749
ag750
ag751
ag752
ag753
ag759
ag777
ag778
ag779
ag780
ag781
ag782
ag783
ag784
ag786
ag787
ag788
ag789
ag790
ag791
ag795
ag796
ag798
ag819
ag826
ag827
ag829
ag830
ag831
ag834
ag836
ag837
ag838
ag839
ag840
ag841
ag871
ag872
ag873
ag1092
ag1093
ag1095
ag1096
ag1097
ag1159
ag1160
ag1161
ag1162
ag1163
ag1164
ag1171
ag1172
ag1173
ag1174
ag1175
ag1176
ag1677
ag1678
ag1679
ag2897
ag1680
ag1681
ag1682
ag2166
ag2167
ag2168
ag1289
ag1290
ag1291
ag1528
ag1529
ag1530
aVveto
p3083
ag1531
ag1532
ag1697
ag1695
ag1643
ag1644
ag2169
aVrefuse
p3084
ag1505
ag1506
ag1507
ag1508
ag1509
ag1511
ag1512
aVovertake
p3085
ag1838
ag1703
ag1704
ag1839
ag1840
ag1841
ag1842
ag1959
ag1292
ag1293
ag1294
ag1301
ag1302
ag1303
ag1304
ag1307
ag1308
ag1309
ag1310
ag1311
ag1312
ag1313
ag1314
ag2170
ag2171
ag2172
ag1700
ag1701
ag1514
ag1515
ag1517
ag2173
ag1525
ag966
ag1606
ag1607
ag1608
ag1609
ag1783
ag1784
ag1815
ag1817
ag1533
ag1534
ag1535
ag1526
ag1527
ag1536
ag1380
ag1381
ag1659
ag1281
ag1940
ag1822
ag1823
ag1824
ag1825
ag1603
ag1605
ag1728
ag1729
ag1649
ag1455
ag1650
ag1651
ag1652
ag1653
ag1655
ag1656
ag1657
aVrouse
p3086
ag1675
ag1676
ag1538
ag1539
ag1541
ag1445
ag1596
ag1645
aVhollow
p3087
aVexcavate
p3088
ag2294
ag1431
ag2415
ag1570
ag1571
ag1568
ag1569
ag1282
ag1195
ag1196
ag1197
ag1316
ag1317
ag1318
ag1319
ag1320
ag1321
ag1339
ag1351
ag1352
ag1353
ag1354
ag1355
ag1356
ag1357
ag1359
ag1360
ag1362
ag1363
ag1364
ag1365
ag1366
ag1367
ag1368
ag1369
ag1370
ag1371
ag1372
ag1373
ag1374
ag1375
ag1376
ag1377
ag1378
ag1379
ag1386
ag1387
ag1388
ag1389
ag1390
ag1391
ag1392
ag1393
ag1395
ag1396
ag1398
ag1399
ag1217
ag1423
ag1424
ag1425
ag1426
ag1427
ag1428
ag1429
ag1430
ag1432
ag1433
ag1434
ag1438
ag1439
ag1193
ag1194
ag1200
ag1202
ag1203
ag1204
ag1205
ag1206
ag1207
ag1210
ag1211
ag1212
ag1213
ag1443
ag1444
ag1232
ag1447
ag1448
ag1449
ag1465
ag1466
ag1467
ag1468
ag1469
ag1482
ag1504
ag1513
ag1521
ag1522
ag1523
ag1524
ag1537
ag1552
ag1553
ag1557
ag1558
ag1559
ag1560
ag1561
ag1562
ag1565
ag1566
ag1572
ag1573
ag1574
ag1601
ag1602
ag1610
ag1617
ag1618
ag1619
ag1620
ag1621
ag1622
ag1623
ag1624
ag1625
ag1626
ag1627
ag1628
ag1629
ag1633
ag1634
ag1635
ag1636
ag1646
ag1647
ag1648
ag1658
ag1660
ag1662
ag1663
ag1664
ag1665
ag1666
ag1667
ag1668
ag1669
ag1670
ag1684
ag1685
ag1686
ag1687
ag1689
ag1690
ag1691
ag1692
ag1693
ag1694
ag1696
ag1702
ag1214
ag1215
ag1216
ag2207
ag1737
ag1738
ag2208
ag2209
ag2210
ag2211
ag2212
ag2174
ag2175
ag2901
ag2213
ag2214
ag2215
ag2216
ag2217
ag2218
ag1785
ag1786
ag1787
ag1788
ag1789
ag2219
ag2220
ag2221
ag2222
ag2223
ag2224
ag2017
ag2018
ag2020
ag2021
ag2225
ag2226
ag2227
ag2228
ag2229
ag2230
ag2231
ag2232
ag2604
ag2903
ag2233
ag2234
ag2235
ag1845
ag1846
ag1847
ag1850
ag1852
ag2236
ag2237
ag2904
ag2238
ag2239
ag2240
ag2241
ag2080
ag2082
ag2083
ag2242
ag2243
ag2244
ag2065
ag2176
ag2245
ag2246
ag2247
ag2248
ag2249
ag2250
ag2905
ag2066
ag1723
ag1724
ag1725
ag2251
ag2252
ag2253
ag2254
ag1749
ag2255
ag2256
ag1796
ag1797
ag2257
ag2258
ag2259
ag1718
ag1763
ag1764
ag2260
ag2261
ag2262
ag2263
ag2264
ag2265
ag2190
ag2191
ag2266
ag2193
ag2194
ag2195
ag2196
ag2197
ag2198
ag2199
ag2200
ag2201
ag2202
ag2203
ag2909
ag2204
ag2267
ag2268
ag2269
ag2270
ag2271
ag2272
ag2273
ag1807
ag2910
ag1801
ag1811
ag2274
ag2275
ag1878
ag1879
ag2276
ag2277
ag2278
ag2279
ag2280
ag2186
ag2281
ag2282
ag884
ag885
ag952
ag954
ag2178
ag1826
ag1827
ag2084
ag2085
ag1721
ag1722
ag2283
ag2284
ag2285
ag2286
ag2287
ag2288
ag2289
ag2290
ag2291
ag2177
ag2292
ag2293
ag1742
ag1743
ag1744
ag1745
ag1746
ag1747
ag1748
ag1750
ag2295
ag2296
ag2297
ag1820
ag1821
ag1765
ag1766
ag1741
ag2035
ag2037
ag2038
ag2039
ag1948
ag1950
ag1951
ag2048
ag2005
ag2006
ag2007
ag2008
ag2298
ag2180
ag2181
ag2182
ag2183
ag2184
ag1957
ag2185
ag2187
ag2299
ag2300
ag2301
ag2302
ag2303
ag2304
ag2305
ag2205
ag2206
ag2306
ag2307
ag2308
ag2309
ag2310
ag2311
ag2312
ag2313
ag1999
ag2314
ag1794
ag1739
ag1719
ag1720
ag2315
ag2316
ag2317
ag2318
ag2319
ag2320
ag2321
ag2188
ag2189
ag1880
ag1881
ag2322
ag2323
ag2324
ag2325
ag2326
ag2327
ag2328
ag2329
ag2330
ag2331
ag2332
ag2333
ag2334
ag2335
ag2336
ag2337
ag2338
ag2339
ag2340
ag2341
ag2342
ag2343
ag2344
ag2345
ag2346
ag2347
ag2348
ag2349
ag2350
ag2351
ag2352
ag1767
ag2353
ag2354
ag2355
ag2356
ag2357
ag2358
ag2359
ag2360
ag2361
ag2362
ag2363
ag2364
ag2365
ag2366
ag2367
ag2368
ag1960
ag1961
ag1962
ag2369
ag2370
ag2371
ag2372
ag2373
ag2374
ag2375
ag2376
ag2377
ag2378
ag2379
ag2380
ag2381
ag2382
ag2383
ag2384
ag2385
ag2386
ag2387
ag2388
ag2389
ag2390
ag2391
ag2392
ag2393
ag2394
ag2395
ag2396
ag2397
ag2398
ag2399
ag2400
ag2605
ag1800
ag1843
ag1844
ag2401
ag2402
ag2403
ag2404
ag2405
ag2406
ag2407
ag2408
ag2409
ag2410
ag2411
ag2412
ag2413
ag2414
ag1818
ag1819
ag2416
ag2417
ag2421
ag2422
ag2423
ag2424
ag2681
ag2682
aVroll
p3089
ag2678
ag2679
ag2653
aVcontrive
p3090
ag2683
ag2684
ag2450
ag2451
ag2452
ag2453
ag2685
ag2686
ag2687
ag2688
aVdash
p3091
ag2689
ag2690
ag2601
ag2590
ag2602
ag2608
ag2609
ag2610
ag2691
ag2692
ag2693
ag2694
ag2695
ag2696
ag2697
ag2494
ag2495
ag2496
ag2497
ag2498
ag2499
ag2500
ag2501
ag2502
ag2503
ag2493
ag2698
aVflash
p3092
ag2699
ag2700
ag2701
ag2702
ag2632
ag2633
ag2634
ag2635
ag2483
ag2484
ag2485
ag2486
ag2487
ag2488
ag2489
ag2490
ag2491
ag2666
ag2667
ag2668
ag2669
ag2670
ag2671
ag2703
ag2649
ag2704
ag2458
ag2705
ag2706
ag2707
ag2708
ag2709
ag2505
ag1712
ag2648
ag1768
ag1770
ag1771
ag1772
ag1773
ag1774
ag1775
ag1776
ag1777
ag1790
ag1791
ag1792
ag1793
ag2654
ag2655
ag2656
ag2657
ag2658
ag2659
ag2660
ag2661
ag2662
ag2663
ag2459
ag2664
ag2665
ag2639
ag2435
ag2436
ag1837
ag2710
ag2711
ag2712
ag2713
ag2714
ag2715
ag2716
ag2717
ag2622
ag2476
ag2478
ag2479
ag2463
ag2464
ag2465
ag2466
ag2467
ag2468
ag2469
ag2470
ag2471
ag2718
ag2504
ag2482
ag2623
ag2624
ag2625
ag2626
ag2627
ag2629
ag2630
ag2631
ag2591
ag2592
ag2593
ag2446
ag2447
ag2448
ag2449
ag2594
ag2596
ag2597
ag2440
ag2441
ag2434
ag2444
ag2445
ag2603
ag2680
ag2426
ag2427
ag2428
ag2429
ag2430
ag2431
ag2432
ag2419
ag2420
ag2719
ag2720
ag2721
ag2722
ag2723
ag2724
ag2725
ag2726
ag2727
ag2728
ag2638
ag2640
ag2615
ag2636
ag2425
ag2481
ag2585
ag2574
ag2575
ag2576
ag2577
ag2578
ag2579
ag2580
ag2581
ag2582
ag2584
ag2619
ag2620
ag2675
ag2652
ag2729
ag2730
ag2731
ag2732
ag2733
ag2650
ag2651
ag2734
ag2735
ag2736
ag2737
ag2738
ag2739
ag2740
ag2741
ag2742
ag2743
ag2744
ag2745
ag2746
ag2747
ag2748
ag2749
ag2750
ag2751
ag2752
ag2753
ag2754
ag2755
ag2756
ag2757
ag2676
ag2677
ag2758
ag2759
ag2760
ag2761
ag2762
ag2763
ag2764
ag2765
ag2766
ag2641
ag2642
ag2643
ag2644
ag2645
ag2646
ag2767
ag1752
ag1753
ag1754
ag1755
ag1756
ag1757
ag1761
ag2768
ag2769
ag2672
ag2673
ag2571
ag2572
ag2586
ag2587
ag2770
ag2771
ag2772
ag2773
ag2774
ag2775
ag2460
ag2461
ag2462
ag1814
ag2492
ag2776
ag2777
ag1804
ag1805
ag1795
ag1799
ag1803
ag1808
ag1809
ag1810
ag1812
ag2674
ag2821
ag2822
ag2823
ag2985
ag2986
ag2987
ag2988
ag2924
ag2925
ag2926
ag2927
ag2928
ag2929
ag2824
ag2825
ag2932
ag2933
ag2934
ag2935
ag2936
aVroil
p3093
ag2989
ag2990
ag2991
aVstain
p3094
ag2992
ag2993
ag2994
ag2920
ag2963
ag2454
ag2455
ag2456
ag2457
ag2917
ag2918
ag2919
ag2437
ag2438
ag2439
ag2442
ag2443
ag2921
ag2783
ag2784
ag2829
ag2830
ag2831
ag2418
ag2785
ag2786
ag2787
ag2778
ag2779
ag2780
ag2958
ag2959
ag2960
ag2961
ag2781
ag2782
ag2951
ag2972
ag2973
ag2974
ag2964
ag2965
ag2966
ag2967
ag2952
ag2953
ag2954
ag2955
ag2956
ag2826
ag2827
ag2828
ag2792
ag2793
ag2794
ag2795
ag2788
ag2789
ag2790
ag2944
ag2945
ag2946
ag2947
ag2948
ag2949
ag2950
ag2791
ag2981
ag2982
ag2983
ag2796
ag2797
ag2962
ag2433
ag2472
ag2473
ag2475
ag2647
ag2930
ag2931
ag2940
ag2941
ag2942
ag2937
ag2938
ag2939
ag2984
ag3009
ag2968
ag2798
ag2799
ag2800
ag2801
ag2802
ag2803
ag2804
ag2805
ag2807
ag2808
ag2809
ag2810
ag2811
ag2812
ag2813
ag2943
ag2969
ag2970
ag2971
ag2957
ag2998
aVown
p3095
aVpreoccupy
p3096
ag2814
ag2815
ag2816
ag2817
ag2818
ag2819
ag2820
ag2975
ag2976
ag2977
ag2978
ag2979
ag2980
ag2995
ag2996
ag2997
ag2999
ag3000
ag3001
ag3002
ag3003
ag3004
ag3005
ag3006
ag3007
ag3008
aVsmear
p3097
aVfuss
p3098
aVniggle
p3099
aVpartition
p3100
aVapplaud
p3101
aVrejoice
p3102
aVjoy
p3103
aVaward
p3104
aVoust
p3105
aVcoexist
p3106
aVchew
p3107
aVmasticate
p3108
aVmanducate
p3109
aVtoughen
p3110
aVsmudge
p3111
aVsmutch
p3112
ag26
ag27
ag28
ag29
ag30
ag1882
ag31
ag1883
ag407
ag408
ag409
ag141
ag1884
ag337
ag338
ag339
ag340
ag680
ag2832
ag1042
ag135
ag136
ag707
ag708
ag2518
ag2519
ag2833
ag2834
ag459
ag460
ag876
ag32
ag2835
ag2836
ag56
ag57
ag1043
ag2837
ag2838
ag436
ag2839
ag437
ag1044
ag1045
ag1046
ag1047
ag1941
ag1942
ag2840
ag2841
ag1
ag1048
ag1049
ag2842
ag217
ag218
ag219
ag220
ag221
ag2506
ag222
ag2507
ag223
ag224
ag225
ag226
ag227
ag228
ag229
ag230
ag231
ag232
ag233
ag234
ag235
ag236
ag237
ag238
ag54
ag55
ag1050
ag1051
ag1052
ag1053
ag1054
ag1055
ag1056
ag1057
ag694
ag695
ag285
ag286
ag287
ag288
ag289
ag290
ag165
ag167
ag291
ag292
ag293
ag2513
ag294
ag896
ag295
ag1909
ag242
ag244
ag245
ag246
ag44
ag6
ag59
ag60
ag877
ag61
ag878
ag62
ag63
ag64
ag880
ag20
ag65
ag66
ag67
ag68
ag69
ag70
ag71
ag72
ag73
ag74
ag76
ag77
ag78
ag79
ag80
ag81
ag882
ag82
ag83
ag84
ag85
ag86
ag87
ag88
ag89
ag90
ag91
ag92
ag93
ag94
ag95
ag96
ag97
ag98
ag99
ag100
ag101
ag102
ag103
ag104
ag105
ag106
ag107
ag383
ag384
ag335
ag669
ag670
ag2843
ag585
ag2844
ag2845
ag1058
ag1059
ag1060
ag410
ag1892
ag411
ag1061
ag1062
ag1063
ag1064
ag1065
ag1066
ag1067
ag1068
ag2846
ag2847
ag1069
ag2848
ag451
ag1898
ag1070
ag1071
ag109
ag110
ag111
ag112
ag113
ag973
ag974
ag975
ag989
ag2849
ag1072
ag2850
ag1073
ag1074
ag1075
ag1076
ag1077
ag1078
ag868
ag2851
ag1079
ag1080
ag1081
ag1082
ag1083
ag1084
ag1085
ag1901
ag769
ag770
ag771
ag772
ag1086
ag1915
ag487
ag897
ag128
ag1087
ag816
ag817
ag187
ag188
ag189
ag190
ag1088
ag756
ag757
ag336
ag17
ag2852
ag239
ag240
ag1089
ag1090
ag1091
ag535
ag536
ag1092
ag1093
ag1094
ag2853
ag628
ag629
ag2854
ag631
ag632
ag2855
ag510
ag511
ag512
ag513
ag1095
ag2856
ag347
ag1096
ag1097
ag276
ag277
ag278
ag279
ag467
ag468
ag469
ag2857
ag472
ag473
ag1098
ag1099
ag1100
ag1101
ag1929
ag1102
ag1103
ag2858
ag1104
ag1105
ag1106
ag2859
ag1107
ag2860
ag2861
ag1108
ag1109
ag247
ag248
ag249
ag250
ag326
ag1110
ag2530
ag537
ag444
ag381
ag382
ag906
ag2862
ag1111
ag1112
ag1113
ag1114
ag2863
ag1115
ag1116
ag2864
ag1117
ag1930
ag1118
ag2865
ag372
ag1888
ag373
ag374
ag375
ag376
ag377
ag378
ag1119
ag1120
ag2866
ag1121
ag1122
ag533
ag824
ag825
ag33
ag34
ag35
ag36
ag37
ag38
ag39
ag40
ag271
ag171
ag2867
ag161
ag2868
ag1123
ag5
ag11
ag12
ag13
ag14
ag15
ag16
ag774
ag775
ag776
ag2869
ag252
ag253
ag254
ag255
ag132
ag133
ag134
ag256
ag257
ag259
ag261
ag262
ag263
ag264
ag265
ag266
ag270
ag251
ag1124
ag2870
ag2871
ag1125
ag1126
ag1127
ag18
ag23
ag24
ag956
ag957
ag943
ag944
ag2524
ag470
ag2872
ag2873
ag1128
ag207
ag208
ag209
ag212
ag213
ag214
ag215
ag760
ag319
ag320
ag321
ag955
ag323
ag324
ag325
ag327
ag328
ag329
ag331
ag1906
ag332
ag333
ag334
ag1907
ag1129
ag1130
ag1131
ag1132
ag2874
ag514
ag1945
ag1133
ag1134
ag1135
ag1136
ag1137
ag1138
ag1922
ag2875
ag1139
ag1140
ag1141
ag1142
ag1143
ag1144
ag2876
ag2877
ag1145
ag539
ag540
ag542
ag543
ag618
ag1926
ag1146
ag385
ag1147
ag310
ag1148
ag1149
ag445
ag446
ag1150
ag1020
ag717
ag718
ag1889
ag379
ag1022
ag450
ag341
ag1023
ag2878
ag843
ag1024
ag844
ag845
ag846
ag1025
ag847
ag848
ag719
ag350
ag351
ag849
ag850
ag851
ag852
ag853
ag854
ag855
ag856
ag857
ag858
ag565
ag971
ag566
ag567
ag568
ag569
ag972
ag859
ag860
ag862
ag345
ag42
ag43
ag47
ag48
ag49
ag50
ag51
ag114
ag115
ag117
ag118
ag119
ag120
ag121
ag125
ag126
ag129
ag130
ag131
ag138
ag139
ag140
ag142
ag143
ag144
ag145
ag146
ag147
ag148
ag152
ag153
ag154
ag155
ag157
ag158
ag160
ag162
ag163
ag164
ag170
ag172
ag173
ag174
ag241
ag1826
aVdecree
p3113
ag1827
ag297
ag348
ag349
ag553
ag554
ag866
ag346
ag2520
ag1637
ag1151
ag1152
ag1153
ag1154
ag2166
ag2167
ag2168
ag2573
ag2884
ag2207
aVwish
p3114
aVcare
p3115
ag2567
ag1272
ag1273
ag988
ag494
ag3017
ag495
ag498
ag499
ag500
ag501
ag502
ag504
aVlie
p3116
ag922
ag2900
aVmark
p3117
aVindicate
p3118
aVpoint
p3119
ag1446
ag1447
ag1448
ag1449
ag507
ag508
ag509
ag478
ag1737
ag1738
ag1279
ag1280
ag986
ag1917
ag592
ag1542
ag1543
ag1544
ag1545
ag3032
ag1453
ag1454
ag1455
ag699
ag700
aVdescribe
p3120
ag701
ag2879
ag662
ag663
ag664
ag665
ag666
ag667
ag668
ag2208
ag2606
ag2209
ag2210
ag2211
ag1441
ag1442
ag505
ag506
ag1274
ag1275
ag1276
ag1277
ag2521
ag1271
aVvisit
p3121
ag1246
ag1247
ag1248
ag386
ag387
ag388
ag1422
ag2892
ag1528
ag1529
ag1530
ag3083
ag1531
ag1532
ag1421
ag1911
ag1912
ag1268
ag3038
ag1269
ag1270
ag1450
ag1325
ag1326
ag1327
ag1451
ag1452
ag1533
ag2537
ag1534
ag1535
ag193
ag194
ag195
ag1526
ag1527
ag1536
ag298
ag299
ag300
ag301
ag302
ag303
ag304
ag296
ag181
ag182
ag306
ag307
ag308
ag1537
ag1208
ag1209
aVelaborate
p3122
ag1538
ag1539
ag2000
ag1540
aVexpand
p3123
ag2001
ag1541
ag521
ag661
ag1546
aVseparate
p3124
ag1547
ag1548
ag1549
ag1550
ag1551
ag659
ag660
ag799
ag800
ag900
ag801
ag802
ag803
ag804
ag805
ag806
ag807
ag808
ag809
ag810
ag811
ag812
ag2514
ag635
ag636
ag637
ag638
ag309
ag1946
ag389
ag390
ag392
ag393
ag394
ag397
ag398
ag399
ag400
aVsupport
p3125
ag1959
ag2416
aVjustify
p3126
aVfree
p3127
ag2417
aVconfirm
p3128
ag1612
aVuphold
p3129
ag2562
ag743
ag744
aVforce
p3130
ag597
ag598
ag582
ag583
ag584
ag687
ag1900
ag461
ag689
ag690
ag691
ag692
ag813
ag3021
ag1705
ag1706
ag1707
ag1709
ag1710
ag679
ag3023
ag1295
ag1296
ag1297
ag1298
ag1931
ag1299
ag2523
ag1300
ag520
ag1471
ag1472
ag3024
ag1473
ag1474
ag1475
ag1476
ag1477
ag1478
ag1479
ag1480
ag342
ag343
ag344
ag352
ag354
ag355
ag357
ag358
ag359
ag360
ag361
ag362
ag363
ag364
ag365
ag366
ag367
ag371
ag2086
ag3026
ag2013
ag2014
ag2015
ag3040
ag2899
ag671
ag672
ag673
ag674
ag676
ag1316
aVupset
p3131
ag1257
ag1258
ag1259
ag1260
ag1659
ag2219
ag2220
aVderive
p3132
aVignite
p3133
ag2221
ag2222
ag2902
ag2223
ag2224
aVcollect
p3134
ag2009
ag2010
ag2011
aVcall
p3135
ag594
ag595
ag2012
ag1731
aVpronounce
p3136
ag1638
ag1639
ag2017
ag2018
ag2019
ag2020
ag2021
ag1514
ag1515
aVlimit
p3137
ag1516
aVconfine
p3138
ag1517
ag2315
ag3048
ag964
ag2316
ag2317
aVtie
p3139
aVbind
p3140
ag820
ag703
ag2318
aVfly
p3141
aVdig
p3142
ag2319
ag2320
aVwarp
p3143
ag2321
ag272
ag273
ag275
ag280
ag281
ag283
ag284
ag463
ag464
ag465
ag311
ag312
ag313
ag316
ag449
ag452
ag453
ag454
ag455
ag456
ag457
ag458
ag401
ag462
aVassume
p3144
ag1281
ag1282
ag1195
ag1196
ag1197
ag1198
ag1199
ag1283
ag1284
ag1285
ag1166
ag1167
ag1286
ag1287
ag1288
ag1251
ag1289
ag1290
ag1291
aVassociate
p3145
ag833
ag834
ag835
aVbelieve
p3146
aVdrive
p3147
ag479
ag480
ag481
ag482
ag483
ag484
ag485
ag1301
ag1302
ag1303
ag1304
aVclose
p3148
ag1305
ag1306
ag1307
ag1308
ag1309
ag1310
ag1311
ag1312
ag1313
ag1314
ag1315
ag836
ag837
ag838
ag839
ag840
ag841
ag1317
ag1318
ag1319
ag967
ag1320
ag1321
ag1322
ag1323
ag1324
ag604
ag2890
ag1328
ag1330
ag1331
ag1333
ag1334
ag1335
ag1336
ag2525
ag2526
ag1337
ag1936
ag1338
ag1339
ag1340
ag1341
ag1342
ag1343
ag1344
ag1345
ag1346
ag1347
ag1348
ag1349
ag1350
ag1351
ag1352
ag711
ag712
ag713
ag1353
ag1354
ag1355
ag1356
ag1357
ag1358
ag1359
ag1360
ag1361
ag1362
ag1363
ag1364
ag1365
ag1366
aVdisturb
p3149
ag1367
ag1368
ag1369
ag1370
ag1371
ag1372
aVtrouble
p3150
ag1373
ag1374
ag1375
aVdebate
p3151
aVdeliberate
p3152
ag1376
ag1377
ag1378
ag1188
ag1379
ag1380
ag1381
ag1382
ag1383
ag1384
ag1385
ag1267
ag1386
ag1387
ag1388
ag1389
ag1390
ag1391
ag1392
ag1393
ag1394
ag1395
ag1396
ag1397
ag1398
ag1399
ag199
ag200
ag201
ag202
ag1400
ag1401
ag1402
ag1403
ag1404
ag1405
ag1406
ag1407
ag1408
aVengage
p3153
ag1255
ag1256
ag1261
ag1262
ag1263
ag1264
ag1265
ag1409
ag1410
ag2046
ag1411
ag1412
ag1413
ag1414
ag1415
ag1416
ag1417
ag1751
ag1643
ag1644
ag2030
ag2031
ag704
ag705
ag706
ag2039
ag2029
ag1553
ag1947
ag564
ag1005
ag1740
ag1741
ag2032
aVsubmit
p3154
ag735
ag737
aVdemonstrate
p3155
ag1767
ag2353
aVpain
p3156
ag2354
aVafflict
p3157
ag1464
aVwear
p3158
ag2355
ag1575
ag1576
ag599
ag600
ag601
ag603
ag607
ag608
ag610
aVassort
p3159
ag612
ag614
ag615
ag617
ag1918
ag1580
ag1581
ag1582
ag1583
ag1584
ag1585
ag1586
ag563
ag570
ag571
ag572
ag573
ag574
ag575
ag576
ag577
aVrealize
p3160
aVrealise
p3161
ag1855
ag1856
ag1857
ag1858
ag1859
ag1860
ag633
ag634
ag593
ag1726
ag1459
ag1460
ag1461
ag1462
ag1463
ag910
ag911
ag912
ag914
ag916
ag918
ag919
ag996
ag998
ag999
ag947
ag949
ag950
ag951
ag1001
ag1003
ag990
ag991
ag1006
ag3081
ag1007
ag2061
ag1456
ag1457
ag1458
aVconclude
p3162
aVresolve
p3163
ag740
ag741
ag742
ag714
ag716
ag1226
ag2540
ag1227
ag1228
ag1229
ag1230
ag1231
ag761
ag762
ag489
ag763
ag764
ag765
ag2063
ag1853
ag1418
ag1234
ag1235
ag1630
ag1631
ag1861
ag1862
ag515
ag516
ag517
ag518
ag519
ag1613
ag1614
ag1615
ag1616
ag1503
aVextend
p3164
aVintroduce
p3165
aVpursue
p3166
ag1863
ag1864
ag1865
ag1866
ag1867
ag1868
ag1869
ag1870
ag1871
ag1872
ag1873
ag1874
ag2041
ag1875
ag2064
ag1876
ag1877
ag1698
ag1699
ag619
ag620
ag621
ag622
ag623
ag624
ag625
ag626
ag1481
ag720
ag721
ag722
ag723
ag724
ag2895
ag726
ag2205
ag1700
ag1701
ag1702
ag2206
ag798
ag979
ag980
ag981
ag982
ag983
ag984
ag985
ag2242
ag2243
ag2244
ag531
ag2065
ag2306
aVclimb
p3167
aVmount
p3168
ag1956
ag2307
ag2308
aVshuffle
p3169
ag2309
ag2310
ag493
ag1214
ag1215
ag1217
ag863
ag864
ag865
ag1713
ag1714
ag1715
ag1717
ag2034
ag1672
ag1673
ag1674
ag2607
aVtestify
p3170
aVevidence
p3171
ag1568
ag1569
ag524
ag525
ag526
ag681
ag682
ag1237
ag1239
ag1240
ag1241
ag1242
ag1243
ag1244
ag1266
ag1155
ag1156
ag1157
ag1158
ag176
ag178
ag183
ag191
ag3045
ag2087
ag2357
ag1599
ag1600
ag547
ag548
ag1236
ag1469
ag639
ag1493
ag1494
ag1495
ag1496
ag1497
ag1498
ag1499
ag1500
ag1501
ag1502
ag1554
ag822
ag823
ag1711
ag1177
ag1178
ag1179
ag1180
ag1181
ag1182
ag1183
ag1184
ag1185
ag1186
ag1190
ag792
ag793
ag1191
ag402
ag403
ag404
ag405
ag412
ag413
ag415
ag416
ag417
ag418
ag420
ag421
ag422
ag423
ag425
ag426
ag427
ag428
ag429
ag434
ag435
ag441
ag442
ag443
ag447
ag448
ag474
ag491
ag492
ag545
ag546
ag550
ag555
ag556
ag558
ag559
ag560
ag578
ag580
ag581
ag586
ag589
ag590
ag591
ag596
ag640
ag641
ag642
ag643
ag644
ag645
ag646
ag647
ag648
ag649
ag650
ag651
ag652
ag653
ag654
ag656
ag658
ag1419
ag1420
ag1440
ag702
ag683
ag684
ag685
ag1949
ag3058
ag3059
ag2088
ag2089
ag2090
ag2091
ag1483
ag1484
ag1485
ag1486
ag1487
ag1488
ag1489
ag1491
ag1492
ag2092
ag1518
ag1520
ag2093
ag2094
ag1218
ag1219
ag2095
ag2097
ag2098
ag2099
ag2100
ag2101
ag2102
ag2561
ag931
ag2103
ag2104
ag2105
ag2106
ag1168
ag1169
ag1170
ag2107
ag2049
ag2050
ag2051
ag2052
ag2053
ag2054
ag2055
ag2056
ag2057
ag2058
ag1835
ag1836
ag1816
ag937
ag939
ag942
ag946
ag1837
ag1557
aVpress
p3172
ag1558
ag1559
ag1560
ag1561
ag1562
ag1563
ag1564
ag1565
ag1566
ag1567
ag2170
ag2171
ag2172
ag2173
ag1525
ag1220
ag1221
ag965
ag966
ag1606
ag1607
ag1608
ag1609
ag1611
ag1783
ag1598
ag1815
aVaffix
p3173
ag1817
ag2116
ag2117
ag1828
ag1829
ag1830
ag1831
ag1832
ag1833
ag1834
ag2118
ag2119
ag3075
aVreturn
p3174
ag2120
ag1781
ag2121
ag2122
ag2123
ag2124
ag2125
ag1978
ag1979
ag2564
ag709
ag710
ag904
ag905
ag921
ag923
ag926
ag928
ag929
ag930
ag935
ag1939
ag1940
ag1822
ag1823
ag1824
ag1825
ag1733
ag1734
ag1735
ag1222
ag1223
ag1224
ag1225
ag2127
ag2128
ag2129
ag2130
ag2131
ag2132
ag2133
ag2134
ag2135
ag2136
ag2137
ag2138
ag2139
ag2140
ag1010
ag2141
ag2142
ag2143
ag1470
ag871
ag872
ag732
ag1026
ag1027
ag1028
ag1030
ag1034
ag1036
ag1037
ag1038
ag1040
ag1041
ag1423
ag1424
ag1426
ag1427
ag1428
ag1429
ag1430
ag1431
ag1432
ag1433
ag1434
ag1435
ag1437
ag1438
ag1439
ag1193
ag1194
ag1200
ag1202
ag1204
ag1205
ag1206
ag1207
ag1210
ag1211
ag1212
ag1213
ag1444
ag1249
ag1250
ag1232
ag1233
ag1465
ag1466
ag1467
ag1468
ag1482
ag1504
ag2546
ag1505
ag1506
ag1507
ag1508
ag1509
ag1511
ag1512
ag1513
ag1521
ag1522
ag1523
ag1524
ag1552
ag1555
ag1252
ag1253
ag1254
ag1570
ag1571
ag1994
ag1572
ag1573
ag1574
ag1577
ag1578
ag1579
ag1587
ag1588
ag1589
ag1590
ag1591
ag1592
ag1593
ag1594
ag1595
ag1596
ag1601
ag1603
ag1604
ag1605
ag1610
ag1617
ag1618
ag1619
ag1620
ag1621
ag1622
ag1625
ag1626
ag1627
ag826
ag827
ag829
ag830
ag831
ag1629
ag1633
ag1634
ag1635
ag1636
ag1640
ag1641
ag1642
ag1645
ag1646
ag1648
ag1649
ag1650
ag1651
ag1652
ag1653
ag1655
ag1656
ag1657
ag1660
ag1662
ag1663
ag1664
ag1667
ag1668
ag1669
ag1670
ag873
ag1671
ag1675
ag1676
ag1677
ag1678
ag1679
ag1680
ag1681
ag1682
ag2553
ag2554
ag1684
ag1685
ag1686
ag1687
ag1689
ag1690
ag1691
ag1692
ag1693
ag1694
ag1695
ag796
ag1696
ag1697
ag1703
ag1704
ag2282
ag1728
ag1729
ag1878
ag1879
ag2276
ag2277
ag2278
ag2279
ag2588
ag2280
ag2164
ag2165
ag753
ag754
ag751
ag752
ag758
ag2035
ag2037
ag2038
ag2043
ag1820
ag2044
ag1718
ag1719
ag1720
ag2419
ag2420
ag2421
ag2422
ag2615
ag2177
ag2407
ag2408
ag2409
aVcircumvent
p3175
ag2410
ag2616
ag2411
ag2412
ag2413
ag2414
ag795
ag1763
ag1764
ag2048
ag2505
aVsurround
p3176
ag2385
ag2386
ag2388
ag1950
ag1951
ag1739
ag1839
ag1840
ag2636
aVdepart
p3177
ag2299
ag2300
ag2301
ag2322
ag2231
ag2232
ag2604
ag1811
ag2323
ag2324
ag2325
ag1165
ag1980
ag1981
ag2489
ag1778
ag2637
ag2144
ag2145
ag2146
ag2147
ag2148
ag2149
ag2150
aVflow
p3178
ag2638
ag2639
ag2640
aVfling
p3179
ag2382
ag2903
ag1845
ag1846
ag1847
ag1838
ag1841
ag1842
ag2619
ag2620
ag745
ag746
ag747
ag748
ag749
ag696
ag1742
ag1743
ag1744
ag1745
ag1746
ag1747
ag1748
ag1749
ag1750
ag1999
ag2108
ag2109
ag2110
ag2111
ag2641
ag2642
ag2643
ag2644
aVomit
p3180
ag2645
ag2646
aVadhere
p3181
ag2348
aVstick
p3182
ag1968
ag1970
ag1973
ag1974
ag1975
ag1976
ag1977
ag1779
ag1983
ag1984
ag1985
ag1986
ag1988
ag1991
ag1992
ag1993
ag2358
ag2187
ag2359
ag2360
ag2361
ag2112
ag2113
ag2114
ag2115
ag2647
ag2238
ag2239
ag2401
ag2402
ag2406
ag2370
ag2371
ag2068
ag2069
ag2070
ag2071
ag2072
ag2073
ag2074
ag2075
ag2076
ag2077
ag2078
ag2374
ag2375
ag2376
ag2184
ag759
ag814
ag819
ag2151
ag2152
ag2153
ag2326
ag2327
ag2328
ag2555
ag2329
ag2330
ag2331
ag2160
ag778
ag779
ag2332
ag2333
ag2334
ag2335
ag2336
ag2311
ag2312
ag2313
ag2648
ag2483
ag2484
ag2485
ag2226
ag2227
ag2228
ag2486
ag2487
ag2488
ag2490
ag2491
ag1794
ag2251
ag2252
ag2253
ag2254
ag2649
ag2080
ag2082
ag2083
ag2241
aVrear
p3183
ag2389
ag2650
ag2651
ag2594
ag1721
ag1722
ag1723
ag1724
ag1725
ag1785
ag1786
ag1787
ag1788
ag1789
ag1948
ag1957
ag1960
ag1961
ag1962
ag2652
ag2365
ag2366
ag2260
ag2262
ag2176
ag2571
ag2572
ag2005
ag2006
ag2007
ag2008
ag2266
ag2193
ag2194
ag2195
ag2196
ag2197
ag2198
ag2199
ag2200
ag2201
ag2202
ag2204
ag2267
ag2268
ag2269
ag2270
ag2271
ag2272
ag2273
ag1801
ag2274
ag2275
ag2653
ag3090
ag727
ag728
ag729
ag730
ag1159
ag1160
ag1161
ag1162
ag1163
ag1164
ag1171
ag1172
ag1173
ag1174
ag1175
ag1176
ag731
ag780
ag781
ag782
ag783
ag784
ag786
ag787
ag788
ag789
ag2154
ag2155
ag2156
ag2157
ag2568
ag2569
ag2570
ag2158
ag2159
ag2161
ag2162
ag2163
ag2654
ag2655
ag2656
ag2657
ag2658
ag2659
ag2660
ag2661
ag2662
ag2663
ag2459
ag2664
ag2665
ag884
ag885
ag954
ag2666
ag2667
ag2668
ag2669
ag2670
ag2671
ag2066
ag2084
ag2085
ag2190
ag2191
ag2192
ag1782
ag2596
ag2597
ag2440
ag2441
ag2672
aVforget
p3184
ag2673
ag2591
ag2592
ag2593
ag2245
ag2246
ag2247
ag2249
ag2250
ag2674
ag2622
ag2623
ag2624
ag2625
ag2626
ag2627
ag2628
ag2629
ag2630
ag2631
ag2169
ag1768
ag1770
ag1771
ag1772
ag1773
ag1774
ag1775
ag1776
ag1777
ag2589
ag2590
ag2446
ag2447
ag2448
ag2449
ag2434
ag2399
ag2444
ag2445
aVcast
p3185
ag2255
ag2601
ag2602
ag2603
ag2369
ag2377
ag2563
ag2378
ag2379
ag2380
ag2381
ag2383
ag2384
ag2180
ag2181
ag2182
ag2183
ag2185
ag2186
ag2675
ag2314
ag2281
ag1880
ag1881
ag1852
ag2188
ag2189
ag2218
ag2356
ag2621
ag2504
ag2391
ag2392
ag2393
ag2340
ag2213
ag2214
ag2215
ag2216
ag2217
ag1712
ag1752
ag1753
ag1754
ag1755
ag1756
ag1757
ag1761
ag1765
ag1766
ag1790
ag1791
ag1792
ag1793
ag1795
ag1796
ag1797
ag1798
ag1799
ag1800
ag1803
ag1804
ag1805
ag1808
ag1809
ag1810
ag1812
ag1814
ag1818
ag1819
ag1821
ag1843
ag1844
ag1850
ag2294
ag2676
ag2677
ag2338
ag2339
ag2341
ag2342
ag2343
ag2344
ag2345
ag2346
ag2347
ag2585
ag2225
ag2229
ag2230
ag2233
ag2234
ag2235
ag2350
ag2351
ag2349
ag2565
ag2403
ag2481
ag2390
ag2404
ag2405
ag2285
ag2286
ag2292
ag2293
ag2212
ag2174
ag2175
ag2236
ag2256
ag2257
ag2259
ag2263
ag2264
ag2265
ag2178
ag2283
ag2284
ag2287
ag2288
ag2289
ag2290
ag2295
ag2296
ag2298
ag2302
ag2303
ag2304
ag2305
ag2352
ag2362
ag2363
ag2367
ag2368
ag2394
ag2395
ag2396
ag2397
ag2400
ag2423
ag2424
ag2681
ag2682
ag2678
ag2679
ag2683
ag2684
ag2450
ag2451
ag2452
ag2453
ag2685
ag2686
ag2687
ag2688
ag3091
ag2689
ag2690
ag2608
ag2609
ag2610
ag2691
ag2692
ag2693
ag2694
ag2695
ag2696
ag2697
ag2494
ag2495
ag2496
ag2497
ag2499
ag2500
ag2501
ag2502
ag2503
ag2493
ag2698
ag3092
ag2699
ag2700
ag2701
ag2702
ag2632
ag2633
ag2634
ag2635
ag2703
ag2704
ag2458
ag2705
ag2706
ag2707
ag2708
ag2709
ag2435
ag2436
ag2710
ag2711
ag2712
ag2713
ag2714
ag2715
ag2716
ag2717
ag2476
ag2478
ag2479
ag2463
ag2464
ag2465
ag2466
ag2467
ag2468
ag2469
ag2470
ag2471
ag2718
ag2482
ag2680
ag2426
ag2427
ag2428
ag2429
ag2430
ag2431
ag2432
ag2719
ag2720
ag2721
ag2722
ag2723
ag2724
ag2725
ag2726
ag2727
ag2728
ag2425
ag2574
ag2575
ag2576
ag2577
ag2578
ag2579
ag2580
ag2581
ag2582
ag2584
ag2729
ag2730
ag2731
ag2732
ag2733
ag2734
ag2735
ag2736
ag2737
ag2738
ag2739
ag2740
ag2741
ag2742
ag2743
ag2744
ag2745
ag2746
ag2747
ag2748
ag2749
ag2750
ag2751
ag2752
ag2753
ag2754
ag2755
ag2756
ag2757
ag2758
ag2759
ag2760
ag2761
ag2762
ag2763
ag2764
ag2765
ag2766
ag2767
ag2768
ag2769
ag2586
ag2587
ag2770
ag2771
ag2772
ag2773
ag2774
ag2775
ag2460
ag2461
ag2462
ag2492
ag2776
ag2777
ag2778
ag2779
ag2780
ag2932
ag2933
ag2934
ag2935
ag2936
ag3093
ag2943
ag2957
ag2791
ag2958
ag2959
ag2960
ag2829
ag2830
ag2961
ag2922
ag2923
ag2962
ag2824
ag2825
ag2963
ag2930
ag2931
ag2952
ag2953
ag2954
ag2964
ag2965
ag2966
ag2967
ag2831
ag2418
ag2437
ag2438
ag2439
ag2442
ag2443
ag2454
ag2455
ag2456
ag2457
ag2944
ag2945
ag2946
ag2947
ag2948
ag2949
ag2950
ag2781
ag2782
ag2951
ag2968
ag2821
ag2798
ag2799
ag2800
ag2801
ag2802
ag2803
ag2804
ag2805
ag2807
ag2808
ag2809
ag2810
ag2811
ag2812
ag2813
ag2969
ag2970
ag2971
ag2826
ag2827
ag2828
ag2924
ag2925
ag2926
ag2927
ag2928
ag2929
ag2920
ag2921
ag2785
ag2786
ag2787
ag2783
ag2784
ag2972
ag2973
ag2974
ag2975
ag2976
ag2977
ag2978
ag2979
ag2980
ag2981
ag2982
ag2983
ag2937
ag2938
ag2939
ag2940
ag2941
ag2942
ag2984
ag2433
ag2955
ag2956
ag2917
ag2918
ag2919
ag2985
ag2986
ag2987
ag2988
ag2989
ag2990
ag2991
ag3094
ag2992
ag2993
ag2994
ag2796
ag2797
ag2475
ag2472
ag2473
ag2998
ag3097
ag3110
ag2818
ag2819
ag2820
ag2792
ag2793
ag2794
ag2795
ag2788
ag2789
ag2790
ag3009
ag2995
ag2996
ag3101
ag3102
ag3103
ag3098
ag3099
ag3100
ag3104
ag2814
ag2815
ag2816
ag2817
ag3095
ag3096
ag3105
ag2997
ag2999
ag3000
ag3001
ag3002
ag3003
ag3004
ag3005
ag3006
ag3007
ag3106
ag3008
ag3107
ag3108
ag3109
ag3111
ag3112
aVexult
p3186
aVknead
p3187
ag1883
ag216
ag217
ag26
ag218
ag219
ag220
ag221
ag2506
ag222
ag2507
ag223
ag224
ag225
ag226
ag227
ag228
ag229
ag230
ag231
ag232
ag233
ag234
ag235
ag236
ag237
ag238
ag54
ag55
ag239
ag240
ag2508
ag241
ag242
ag243
ag244
ag245
ag246
ag876
ag32
ag247
ag248
ag249
ag250
ag2509
ag141
ag29
ag30
ag31
ag2510
ag251
ag252
ag253
ag1
ag254
ag255
ag22
ag132
ag133
ag134
ag2511
ag256
ag257
ag258
ag259
ag260
ag261
ag262
ag263
ag264
ag265
ag266
ag267
ag268
ag269
ag270
ag165
ag166
ag167
ag5
ag6
ag7
ag9
ag10
ag11
ag12
ag13
ag14
ag15
ag16
ag27
ag813
ag774
ag775
ag776
ag2869
ag2520
ag3010
ag1151
ag1152
ag1153
ag1154
ag1272
ag1273
ag1274
ag1275
ag1276
ag1277
ag3011
ag1278
ag3012
ag2521
ag3013
ag3014
ag503
ag988
ag1279
ag1280
ag3015
ag1884
ag337
ag338
ag1903
ag3016
ag494
ag3017
ag436
ag437
ag44
ag495
ag496
ag497
ag498
ag879
ag880
ag3018
ag499
ag500
ag3019
ag501
ag502
ag504
ag161
ag3020
ag3021
ag58
ag59
ag60
ag64
ag295
ag1705
ag1706
ag1707
ag1708
ag1709
ag1710
ag128
ag898
ag407
ag408
ag409
ag680
ag1042
ag135
ag136
ag707
ag708
ag2518
ag2519
ag2834
ag459
ag460
ag56
ag57
ag1043
ag2837
ag1044
ag1045
ag1046
ag1047
ag1941
ag1942
ag488
ag3022
ag679
ag3023
ag1295
ag1296
ag1297
ag1298
ag1931
ag1299
ag2523
ag1300
ag520
ag1471
ag1472
ag3024
ag1473
ag1474
ag1475
ag1476
ag1477
ag1478
ag1479
ag1480
ag33
ag34
ag35
ag36
ag37
ag38
ag39
ag40
ag271
ag45
ag47
ag48
ag49
ag50
ag51
ag52
ag17
ag341
ag67
ag68
ag69
ag342
ag343
ag344
ag345
ag1885
ag346
ag1015
ag347
ag348
ag3025
ag349
ag350
ag351
ag352
ag354
ag355
ag356
ag357
ag358
ag359
ag360
ag361
ag362
ag363
ag364
ag365
ag366
ag367
ag368
ag369
ag181
ag182
ag370
ag371
ag372
ag1888
ag373
ag374
ag375
ag376
ag377
ag378
ag1889
ag379
ag380
ag381
ag382
ag2086
ag3026
ag592
ag986
ag1917
ag487
ag1542
ag1543
ag1544
ag3027
ag1545
ag3028
ag3029
ag3030
ag3031
ag3032
ag3033
ag562
ag3034
ag164
ag3035
ag1019
ag717
ag718
ag3036
ag467
ag468
ag469
ag1020
ag1021
ag1022
ag450
ag842
ag1023
ag2878
ag843
ag1024
ag844
ag845
ag846
ag1025
ag847
ag848
ag719
ag849
ag851
ag852
ag853
ag854
ag855
ag856
ag857
ag858
ag565
ag566
ag567
ag568
ag569
ag972
ag859
ag860
ag861
ag862
ag3037
ag669
ag670
ag2844
ag2845
ag335
ag1268
ag3038
ag1269
ag1270
ag1450
ag3039
ag1325
ag1326
ag1327
ag1451
ag1452
ag309
ag973
ag974
ag975
ag2013
ag2014
ag2015
ag3040
ag3041
ag2899
ag3042
ag1906
ag332
ag333
ag334
ag1907
ag514
ag18
ag20
ag1050
ag1051
ag1052
ag1053
ag1054
ag1055
ag1056
ag1057
ag1554
ag3043
ag1900
ag461
ag3044
ag1236
ag473
ag1048
ag1049
ag694
ag695
ag285
ag286
ag287
ag288
ag289
ag290
ag291
ag292
ag293
ag294
ag61
ag62
ag63
ag65
ag66
ag70
ag71
ag73
ag74
ag76
ag79
ag80
ag81
ag82
ag83
ag84
ag85
ag86
ag88
ag89
ag90
ag91
ag95
ag96
ag98
ag99
ag100
ag101
ag102
ag103
ag104
ag105
ag106
ag383
ag384
ag585
ag1058
ag1059
ag1060
ag410
ag411
ag1061
ag1062
ag1063
ag1064
ag1065
ag1066
ag1067
ag1068
ag1069
ag451
ag1898
ag1070
ag1071
ag110
ag111
ag112
ag2849
ag1072
ag1073
ag1074
ag1075
ag1076
ag1077
ag1078
ag868
ag2851
ag1079
ag1080
ag1081
ag1082
ag1083
ag1084
ag1085
ag1901
ag769
ag770
ag771
ag772
ag1086
ag1915
ag1087
ag816
ag817
ag187
ag188
ag189
ag190
ag1088
ag756
ag757
ag3045
ag2087
ag822
ag823
ag515
ag516
ag517
ag518
ag519
ag156
ag157
ag158
ag1711
ag3046
ag1177
ag1178
ag1179
ag1180
ag1181
ag1182
ag1183
ag1184
ag1185
ag1186
ag2002
ag2003
ag1187
ag1188
ag3047
ag1189
ag3048
ag964
ag326
ag1190
ag734
ag735
ag736
ag737
ag2887
ag761
ag762
ag489
ag490
ag763
ag2888
ag764
ag765
ag2890
ag766
ag597
ag598
ag792
ag793
ag794
ag1191
ag1099
ag1100
ag1101
ag3049
ag1929
ag1102
ag1103
ag1104
ag1105
ag1106
ag2859
ag1107
ag2860
ag1108
ag1109
ag799
ag3050
ag899
ag800
ag801
ag802
ag803
ag804
ag805
ag806
ag807
ag808
ag809
ag810
ag811
ag812
ag277
ag278
ag279
ag1098
ag1110
ag2530
ag537
ag906
ag1111
ag1112
ag1113
ag1114
ag1115
ag1116
ag2864
ag1117
ag1930
ag1118
ag1119
ag1120
ag2866
ag1121
ag1122
ag533
ag824
ag825
ag385
ag1017
ag386
ag387
ag388
ag389
ag390
ag391
ag392
ag393
ag394
ag397
ag398
ag399
ag400
ag207
ag208
ag209
ag212
ag213
ag214
ag215
ag296
ag401
ag138
ag402
ag403
ag404
ag405
ag406
ag297
ag298
ag299
ag300
ag301
ag302
ag303
ag304
ag306
ag307
ag308
ag412
ag413
ag414
ag415
ag416
ag417
ag418
ag420
ag421
ag422
ag423
ag424
ag425
ag426
ag427
ag428
ag429
ag313
ag430
ag431
ag432
ag433
ag434
ag435
ag441
ag442
ag443
ag445
ag446
ag447
ag448
ag1897
ag449
ag452
ag453
ag454
ag455
ag456
ag457
ag458
ag462
ag463
ag464
ag465
ag470
ag474
ag475
ag476
ag477
ag478
ag479
ag480
ag481
ag482
ag483
ag484
ag485
ag491
ag492
ag493
ag505
ag506
ag507
ag508
ag509
ag511
ag512
ag513
ag318
ag319
ag321
ag324
ag327
ag328
ag329
ag331
ag521
ag523
ag524
ag525
ag526
ag527
ag528
ag530
ag531
ag532
ag534
ag535
ag536
ag539
ag540
ag542
ag543
ag545
ag546
ag547
ag548
ag550
ag551
ag552
ag553
ag555
ag556
ag557
ag558
ag559
ag560
ag563
ag564
ag570
ag571
ag572
ag573
ag574
ag575
ag576
ag577
ag160
ag578
ag579
ag580
ag581
ag582
ag583
ag584
ag586
ag587
ag588
ag589
ag590
ag591
ag593
ag594
ag595
ag596
ag599
ag600
ag601
ag602
ag604
ag605
ag606
ag607
ag608
ag609
ag610
ag611
ag612
ag613
ag614
ag615
ag617
ag618
ag619
ag620
ag621
ag622
ag623
ag624
ag625
ag626
ag627
ag174
ag628
ag629
ag631
ag632
ag633
ag634
ag635
ag636
ag637
ag638
ag639
ag640
ag641
ag642
ag643
ag644
ag645
ag646
ag647
ag648
ag649
ag650
ag651
ag652
ag653
ag654
ag147
ag148
ag656
ag657
ag658
ag659
ag660
ag661
ag662
ag663
ag664
ag665
ag666
ag667
ag668
ag671
ag672
ag673
ag674
ag676
ag677
ag678
ag1418
ag1419
ag1420
ag171
ag1698
ag1699
ag1637
ag1638
ag1639
ag1481
ag958
ag959
ag720
ag721
ag722
ag723
ag724
ag725
ag726
ag3051
ag3052
ag1440
ag1148
ag1149
ag3053
ag3054
ag2009
ag2010
ag3055
ag1146
ag1147
ag967
ag704
ag705
ag706
ag978
ag979
ag980
ag981
ag982
ag983
ag984
ag985
ag987
ag990
ag991
ag699
ag700
ag701
ag702
ag681
ag682
ag683
ag684
ag685
ag686
ag687
ag689
ag690
ag691
ag692
ag863
ag864
ag865
ag1713
ag1714
ag1715
ag1716
ag1717
ag2034
ag1672
ag1673
ag1674
ag1863
ag1864
ag998
ag999
ag1865
ag1866
ag1867
ag3056
ag1868
ag2040
ag1869
ag1870
ag1871
ag1872
ag1873
ag1874
ag2041
ag199
ag200
ag201
ag202
ag3057
ag1949
ag152
ag2537
ag3058
ag3059
ag2088
ag2089
ag2090
ag3060
ag2091
ag3061
ag820
ag2542
ag1483
ag1484
ag3062
ag1485
ag3063
ag1996
ag1486
ag1487
ag1488
ag1489
ag173
ag1490
ag1271
ag1491
ag1492
ag2092
ag1247
ag1248
ag2914
ag1129
ag1518
ag1520
ag2093
ag2094
ag1218
ag1219
ag2095
ag1127
ag183
ag2096
ag2097
ag2098
ag2099
ag2100
ag2101
ag2102
ag145
ag146
ag2561
ag2562
ag931
ag1137
ag1138
ag2103
ag2104
ag2105
ag2106
ag2884
ag1168
ag1169
ag1170
ag2107
ag2049
ag2050
ag2051
ag2052
ag2053
ag2054
ag2055
ag2056
ag2057
ag2058
ag114
ag115
ag743
ag744
ag1835
ag1836
ag1816
ag1412
ag937
ag939
ag942
ag943
ag944
ag946
ag1089
ag1090
ag1091
ag2108
ag2109
ag3064
ag1222
ag1223
ag1224
ag1225
ag3065
ag2110
ag3066
ag3067
ag2111
ag1579
ag3068
ag2112
ag2113
ag2114
ag3069
ag2115
ag1642
ag3070
ag1150
ag1575
ag1576
ag1671
ag1918
ag1919
ag1580
ag1920
ag1581
ag1582
ag1583
ag1921
ag1584
ag1922
ag1585
ag1923
ag1586
ag3071
ag129
ag131
ag3072
ag1555
ag1736
ag2047
ag2883
ag1928
ag316
ag3073
ag1493
ag1494
ag1495
ag196
ag3074
ag1496
ag1497
ag1498
ag1499
ag1500
ag1501
ag1502
ag1166
ag1007
ag1453
ag1454
ag2116
ag2117
ag1828
ag1829
ag1830
ag1831
ag1832
ag1833
ag1834
ag2118
ag2119
ag3075
ag2120
ag1599
ag3076
ag1600
ag3077
ag1781
ag716
ag117
ag118
ag119
ag120
ag121
ag3078
ag2121
ag1598
ag2122
ag2123
ag2124
ag2125
ag1978
ag1979
ag2564
ag709
ag710
ag711
ag712
ag713
ag1383
ag1123
ag1732
ag1733
ag2059
ag1734
ag1735
ag1456
ag1457
ag1458
ag904
ag905
ag910
ag911
ag912
ag914
ag915
ag916
ag918
ag919
ag921
ag922
ag923
ag924
ag926
ag928
ag929
ag930
ag935
ag2126
ag2127
ag2128
ag2129
ag2130
ag2131
ag2132
ag2133
ag2134
ag3079
ag2135
ag2136
ag3080
ag2137
ag2138
ag2139
ag2140
ag1010
ag1011
ag1012
ag994
ag996
ag997
ag947
ag949
ag950
ag951
ag1001
ag1003
ag1005
ag1006
ag3081
ag1403
ag1404
ag1406
ag1407
ag1408
ag1255
ag1256
ag1257
ag1258
ag1259
ag1260
ag1261
ag1262
ag1263
ag1264
ag1265
ag1409
ag1410
ag2046
ag1411
ag1340
ag1341
ag1342
ag1343
ag1344
ag1345
ag1346
ag1347
ag1348
ag1349
ag2141
ag2142
ag2143
ag1470
ag2012
ag1731
ag272
ag275
ag280
ag281
ag283
ag284
ag1245
ag42
ag43
ag125
ag139
ag140
ag142
ag143
ag144
ag151
ag153
ag154
ag956
ag957
ag760
ag1130
ag1131
ag1132
ag1133
ag1134
ag1135
ag1136
ag1139
ag1141
ag1142
ag1143
ag1144
ag1145
ag1125
ag1126
ag814
ag2144
ag2145
ag2146
ag2147
ag2148
ag2149
ag2150
ag176
ag178
ag191
ag193
ag194
ag195
ag1422
ag2151
ag2152
ag2153
ag1026
ag1027
ag1028
ag1029
ag1030
ag1031
ag1034
ag1036
ag1037
ag1038
ag1040
ag1041
ag1640
ag1641
ag1249
ag1250
ag866
ag1251
ag1252
ag1253
ag1254
ag1237
ag1238
ag1239
ag1240
ag1241
ag1242
ag1243
ag1244
ag2022
ag1267
ag1155
ag1156
ag1157
ag1158
ag758
ag1980
ag1981
ag2154
ag2155
ag2156
ag2157
ag2568
ag2569
ag2570
ag1384
ag1385
ag3082
ag2158
ag2159
ag1611
ag1323
ag1324
ag1935
ag1328
ag1329
ag1330
ag1331
ag1332
ag1333
ag1334
ag1335
ag1336
ag1337
ag1338
ag1283
ag2160
ag1563
ag1564
ag2161
ag2162
ag2163
ag2068
ag2069
ag2070
ag2071
ag2072
ag2073
ag2074
ag2075
ag2076
ag2077
ag2078
ag1165
ag1968
ag1969
ag1970
ag1972
ag1973
ag1974
ag1975
ag1977
ag1779
ag1780
ag1983
ag1984
ag1985
ag1986
ag1987
ag1988
ag1394
ag1751
ag1990
ag1400
ag1401
ag1402
ag1991
ag1992
ag1993
ag1577
ag1578
ag1587
ag1588
ag1589
ag1590
ag1591
ag1592
ag1593
ag1594
ag1595
ag1226
ag1227
ag1228
ag1229
ag1230
ag1231
ag1220
ag1221
ag2164
ag2165
ag1459
ag1460
ag1461
ag1462
ag1463
ag1464
ag1315
ag2061
ag1726
ag1415
ag1416
ag1417
ag740
ag742
ag2063
ag1853
ag1234
ag1235
ag1630
ag1631
ag1854
ag1855
ag1856
ag1546
ag1547
ag1548
ag1549
ag1550
ag1551
ag1857
ag1858
ag1859
ag1860
ag1861
ag1862
ag1350
ag1305
ag1612
ag1613
ag1615
ag1421
ag1616
ag1503
ag1875
ag2064
ag1876
ag1877
ag1284
ag1285
ag1286
ag1287
ag1288
ag696
ag697
ag698
ag703
ag727
ag728
ag729
ag730
ag731
ag732
ag745
ag746
ag747
ag748
ag749
ag750
ag751
ag752
ag753
ag759
ag777
ag778
ag779
ag780
ag781
ag782
ag783
ag784
ag786
ag787
ag788
ag789
ag790
ag791
ag795
ag796
ag798
ag819
ag826
ag827
ag829
ag830
ag831
ag834
ag836
ag837
ag838
ag839
ag840
ag841
ag871
ag872
ag873
ag1092
ag1093
ag1095
ag1096
ag1097
ag1514
ag1515
ag1517
ag2583
ag2482
ag1192
ag1193
ag1194
ag1195
ag1196
ag1197
ag1199
ag1292
ag1293
ag1294
ag1301
ag1302
ag1303
ag1304
ag1307
ag1308
ag1309
ag1310
ag1311
ag1312
ag1313
ag1314
ag1380
ag1381
ag1289
ag1290
ag1291
ag2166
ag2167
ag2168
ag1838
ag1703
ag1704
ag1839
ag1840
ag1841
ag1842
ag1526
ag1527
ag1534
ag1535
ag1536
ag2207
ag3114
ag1455
ag1528
ag1529
ag1530
ag1531
ag1532
ag1533
ag1537
ag1538
ag1539
ag1541
ag1956
ag1513
ag2421
ag2422
ag1728
ag1729
ag1785
ag1786
ag1787
ag1788
ag1789
ag1447
ag1448
ag1449
ag2299
ag2300
ag2301
ag2302
ag2303
ag2304
ag2305
ag1553
ag1505
ag1506
ag1507
ag1508
ag1509
ag1511
ag1512
ag2423
ag2424
ag2208
ag2606
ag2209
ag2210
ag2211
ag2030
ag2031
ag2039
ag2029
ag1741
ag2032
ag1643
ag1644
ag3155
ag1767
ag2353
ag3156
ag2354
ag3157
ag2355
ag2311
ag2312
ag2313
ag1718
ag1719
ag1720
ag1697
ag2681
ag3172
ag1353
ag1354
ag1355
ag1552
ag1737
ag1738
ag1635
ag1636
ag1646
ag1648
ag2205
ag1700
ag1701
ag1702
ag2206
ag2242
ag2243
ag2244
ag2065
ag1351
ag1352
ag2306
ag2307
ag2308
ag2309
ag2310
ag2350
ag2351
ag2349
ag1217
ag1200
ag1202
ag1203
ag1204
ag1205
ag1206
ag1207
ag1210
ag1211
ag1212
ag1213
ag2176
ag2566
aVwiden
p3188
ag1570
ag1571
ag2218
ag2356
ag1659
ag1281
ag1940
ag1822
ag1823
ag1824
ag1825
ag1677
ag1678
ag1679
ag2897
ag1680
ag1681
ag1682
ag1214
ag1215
ag1216
ag2571
ag2572
ag1606
ag1607
ag1608
ag1609
ag2585
ag1959
ag2778
ag2779
ag2780
ag1742
ag1743
ag1744
ag1745
ag1746
ag1747
ag1748
aVhook
p3189
ag1749
ag1750
ag1431
ag1826
ag1827
ag2416
ag2417
ag1316
ag2219
ag2220
ag2221
ag2222
ag2223
ag2224
ag2017
ag2018
ag2020
ag2021
ag2315
ag2316
ag2317
ag3140
ag2318
ag2319
ag2320
ag2321
ag1317
ag1318
ag1319
ag1320
ag1321
ag1339
ag1356
ag1357
ag1359
ag1360
ag1361
ag1362
ag1363
ag1364
ag1365
ag1366
ag1367
ag1368
ag1369
ag1370
ag1371
ag1372
ag1373
ag1374
ag1375
ag1376
ag1377
ag1378
ag1379
ag1386
ag1387
ag1388
ag1389
ag1390
ag1391
ag1392
ag1393
ag1395
ag1396
ag1398
ag1399
ag2607
ag3170
ag3171
ag1568
ag1569
ag2565
ag2685
ag2686
ag2687
ag1565
ag1566
aVblow
p3190
ag2688
ag3091
ag2689
ag2690
ag2598
ag3185
ag2599
ag2255
ag2601
ag2589
ag2590
ag2602
ag1811
ag1685
ag1686
aVunify
p3191
ag1687
ag2177
ag1649
ag1603
ag1605
ag1650
ag1651
ag1652
ag1653
ag1655
ag1656
ag1657
ag1504
ag2608
ag2609
ag2610
ag3181
ag2348
ag3182
ag1794
ag2734
ag2735
ag2736
ag2737
ag2738
ag2739
ag2664
ag2665
ag2173
ag1525
ag2740
ag2446
ag2447
ag2448
ag2449
ag3087
ag3088
ag2294
ag2741
ag1159
ag1160
ag1161
ag1162
ag1163
ag1164
ag1171
ag1172
ag1173
ag1174
ag1175
ag1176
ag1232
ag1469
ag1482
ag2212
ag2174
ag2175
ag2901
ag2213
ag2214
ag2215
ag2216
ag2217
ag1645
ag1432
ag1433
ag1434
ag1438
ag1439
ag1521
ag1522
ag1523
ag1524
ag2225
ag2226
ag2227
ag2228
ag2229
ag2230
ag1428
ag1633
ag1634
ag1572
ag1573
ag2232
ag2604
ag2233
ag2234
ag2235
ag1845
ag1846
ag1847
ag1850
ag1852
ag2236
ag2237
ag2904
ag2238
ag2239
ag2241
ag2080
ag2081
ag2082
ag2083
ag2245
ag2246
ag2247
ag2249
ag2250
ag2066
ag2067
ag1723
ag1724
ag1725
aVremark
p3192
ag2251
ag2252
ag2253
ag2254
ag1429
ag1430
ag2256
ag1796
ag1797
ag2259
ag1763
ag1764
ag2260
ag2261
ag2262
ag2263
ag2264
ag2265
ag2190
ag2191
ag2266
ag2193
ag2194
ag2195
ag2196
ag2197
ag2198
ag2199
ag2200
ag2201
ag2202
ag2204
ag2267
ag2268
ag2269
ag2270
ag2271
ag2272
ag2273
ag1807
ag2910
ag1801
ag2274
ag2275
ag1878
ag1879
ag2276
ag2277
aVcertify
p3193
ag2278
ag2279
ag2280
ag2186
ag2281
ag2397
ag2398
ag2178
ag2285
ag2286
ag2425
ag2037
aVattest
p3194
ag1664
ag1692
ag1693
ag1660
ag2370
ag2371
ag2372
ag2373
ag2374
ag2375
ag2376
ag2184
ag1617
ag1618
ag1619
ag1620
ag1621
ag1622
ag1625
ag1626
ag1627
ag1675
ag2314
ag1948
ag1950
ag1951
ag2048
ag1427
ag2005
ag2006
ag2007
ag2008
ag1820
ag1696
ag1739
ag2180
ag2181
ag2182
ag2183
ag1957
ag2185
ag1783
ag1880
ag1881
ag2188
ag2189
ag2382
ag2621
ag2504
ag1557
ag1558
ag1559
ag1560
ag1561
ag1562
ag2391
ag2392
ag2393
ag1574
ag2505
ag2385
ag2386
ag2387
ag2388
aVintegrate
p3195
ag2340
ag1667
ag1668
ag1669
ag1670
ag1821
ag2035
ag2038
ag2729
ag2730
ag2419
ag2420
ag2615
ag2407
ag2408
ag2409
ag2410
ag2411
ag2412
ag2413
ag2414
ag884
ag885
ag952
ag954
ag2389
ag2326
ag2327
ag2328
ag2329
ag2330
ag2331
ag2332
ag2333
ag2334
ag2335
ag2336
ag2337
ag2357
ag1837
ag2170
ag2171
ag2172
ag1815
ag1423
ag1424
ag1426
ag1444
ag1465
ag1466
ag1467
ag1468
ag1601
ag1610
ag1684
ag1689
ag1690
ag1691
ag1694
ag2282
ag2636
ag2322
ag2323
ag2324
ag2325
ag2489
ag2637
ag2638
ag2639
ag2640
ag2619
ag2620
ag1999
ag2362
ag2287
ag2288
ag2289
ag2290
ag2363
ag2364
ag2365
ag2366
ag2367
ag2368
ag2648
ag2483
ag2484
ag2485
ag2486
ag2487
ag2488
ag2490
ag2491
ag2649
ag2358
ag2187
ag2359
ag2360
ag2361
ag2650
ag2651
ag2594
ag1721
ag1722
ag1960
ag1961
ag1962
ag2403
ag2481
ag2652
ag2653
ag2084
ag2085
ag2283
ag2284
ag2292
ag2293
ag2295
ag2296
ag1765
ag1766
ag2298
ag2338
ag1782
ag2557
ag2339
ag2341
ag2342
ag2343
ag2344
ag2345
ag2346
ag2347
ag2369
ag2377
ag2378
ag2379
ag2380
ag2381
ag2383
ag2384
ag2390
ag2394
ag2395
ag2396
ag2399
ag2400
ag2605
ag1800
ag1843
ag1844
ag2401
ag2402
ag2404
ag2405
ag2406
ag1818
ag1819
ag2675
ag1768
ag1770
ag1771
ag1772
ag1773
ag1774
ag1775
ag1776
ag1777
ag2476
ag2478
ag2479
ag2480
ag2575
ag2576
ag2577
ag2578
ag2579
ag2783
ag2784
ag2680
ag2776
ag2777
ag2642
ag2643
ag1804
ag1805
ag2829
ag2830
ag2831
ag2922
ag2923
ag2580
ag2581
ag2582
ag2584
aVdivert
p3196
ag2450
ag2451
ag2452
ag2453
ag2742
ag2743
ag2744
ag2745
ag2746
ag2747
ag2748
ag2749
ag2750
ag2751
ag2752
ag2753
ag2754
ag2755
ag2756
ag2596
ag2597
ag2440
ag2441
ag2444
ag2445
ag2932
ag2933
ag2934
ag2935
ag2936
ag3093
ag2654
ag2655
ag2656
ag2657
ag2658
ag2659
ag2660
ag2661
ag2662
ag2663
ag2459
ag1790
ag1791
ag1792
ag2494
ag2495
ag2496
ag2497
ag2498
ag2499
ag2500
ag2501
ag2502
ag2503
ag2493
ag1752
ag1753
ag1754
ag1755
ag1756
ag1757
ag1761
ag2426
ag2427
ag2428
ag2429
ag2430
ag2431
ag2432
ag2641
ag2644
ag2645
ag2646
ag2937
ag2938
ag2939
ag2940
ag2941
ag2942
ag2435
ag2436
ag2767
ag2591
ag2592
ag2593
ag2434
ag2603
ag2647
ag2698
ag2699
ag2700
ag2770
ag2771
ag2622
ag2623
ag2624
ag2625
ag2626
ag2627
ag2629
ag2630
ag2631
ag2666
ag2667
ag2668
ag2669
ag2670
ag2671
ag1793
ag2757
ag2731
ag2732
ag2726
ag2727
ag2728
ag2733
ag2691
ag2692
ag2693
ag2694
ag2695
ag2696
ag2697
ag2704
ag2632
ag2633
ag2634
ag2635
ag2701
ag2702
ag2921
ag2574
ag2586
ag2587
ag2710
ag2711
ag2712
ag2713
ag2714
ag2715
ag2716
ag2717
ag2463
ag2464
ag2465
ag2466
ag2467
ag2468
ag2469
ag2470
ag2471
ag2943
ag1795
ag1799
ag1803
ag1808
ag1809
ag1810
ag1812
ag1814
ag2672
ag2673
ag2674
ag2944
ag2945
ag2946
ag2947
ag2948
ag2949
ag2950
ag2781
ag2782
ag2951
ag2952
ag2953
ag2954
ag2955
ag2956
ag2920
ag2703
ag2924
ag2925
ag2926
ag2927
ag2928
ag2929
ag2824
ag2825
ag2676
ag2677
ag2437
ag2438
ag2439
ag2442
ag2443
ag2772
ag2773
ag2774
ag2718
ag2826
ag2827
ag2828
ag2775
ag2683
ag2684
ag2418
ag2433
ag2454
ag2455
ag2456
ag2457
ag2458
ag2460
ag2461
ag2462
ag2472
ag2473
ag2474
ag2475
ag2492
ag2758
ag2759
ag2760
ag2761
ag2762
ag2763
ag2764
ag2765
ag2766
ag2682
ag2678
ag2679
ag2705
ag2706
ag2707
ag2708
ag2709
ag2719
ag2720
ag2721
ag2722
ag2723
ag2724
ag2725
ag2768
ag2769
ag2957
ag2791
ag2958
ag2959
ag2960
ag2961
ag2962
ag2963
ag2930
ag2931
ag2964
ag2965
ag2966
ag2967
ag2968
ag2821
ag2798
ag2799
ag2800
ag2801
ag2802
ag2803
ag2804
ag2805
ag2807
ag2808
ag2809
ag2810
ag2811
ag2812
ag2813
ag2969
ag2970
ag2971
ag2785
ag2786
ag2787
ag2972
ag2973
ag2974
ag2975
ag2976
ag2977
ag2978
ag2979
ag2980
ag2981
ag2982
ag2983
ag2984
ag2917
ag2918
ag2919
ag2985
ag2986
ag2987
ag2988
ag2989
ag2990
ag2991
ag2992
ag2993
ag2994
ag2796
ag2797
ag3097
ag3101
ag3102
ag3103
ag3009
ag3104
ag3095
ag3096
ag2788
ag2789
ag2790
ag2792
ag2793
ag2794
ag2795
ag3098
ag3099
ag3100
ag3105
ag2997
ag2998
ag2999
ag3000
ag3001
ag3002
ag3003
ag3004
ag3005
ag3006
ag2818
ag2819
ag2820
ag3007
ag3106
ag2995
ag2996
ag3107
ag3108
ag3109
ag3110
ag2814
ag2815
ag2816
ag2817
ag3008
ag3186
ag3111
ag3112
ag3187
ag26
ag27
ag28
ag29
ag30
ag1882
ag31
ag1883
ag407
ag408
ag409
ag141
ag1884
ag337
ag338
ag339
ag340
ag680
ag2832
ag1042
ag135
ag136
ag707
ag708
ag2518
ag2519
ag2833
ag2834
ag459
ag460
ag876
ag32
ag2835
ag2836
ag56
ag57
ag1043
ag2837
ag2838
ag436
ag2839
ag437
ag1044
ag1045
ag1046
ag1047
ag1941
ag1942
ag2840
ag2841
ag1
ag1048
ag1049
ag2842
ag217
ag218
ag219
ag220
ag221
ag2506
ag222
ag2507
ag223
ag224
ag225
ag226
ag227
ag228
ag229
ag230
ag231
ag232
ag233
ag234
ag235
ag236
ag237
ag238
ag54
ag55
ag1050
ag1051
ag1052
ag1053
ag1054
ag1055
ag1056
ag1057
ag694
ag695
ag285
ag286
ag287
ag288
ag289
ag290
ag165
ag167
ag291
ag292
ag293
ag2513
ag294
ag896
ag295
ag1909
ag242
ag244
ag245
ag246
ag44
ag6
ag59
ag60
ag877
ag61
ag878
ag62
ag63
ag64
ag880
ag20
ag65
ag66
ag67
ag68
ag69
ag70
ag71
ag72
ag73
ag74
ag76
ag77
ag78
ag79
ag80
ag81
ag882
ag82
ag83
ag84
ag85
ag86
ag87
ag88
ag89
ag90
ag91
ag92
ag93
ag94
ag95
ag96
ag97
ag98
ag99
ag100
ag101
ag102
ag103
ag104
ag105
ag106
ag107
ag383
ag384
ag335
ag669
ag670
ag2843
ag585
ag2844
ag2845
ag1058
ag1059
ag1060
ag410
ag1892
ag411
ag1061
ag1062
ag1063
ag1064
ag1065
ag1066
ag1067
ag1068
ag2846
ag2847
ag1069
ag2848
ag451
ag1898
ag1070
ag1071
ag109
ag110
ag111
ag112
ag113
ag973
ag974
ag975
ag989
ag2849
ag1072
ag2850
ag1073
ag1074
ag1075
ag1076
ag1077
ag1078
ag868
ag2851
ag1079
ag1080
ag1081
ag1082
ag1083
ag1084
ag1085
ag1901
ag769
ag770
ag771
ag772
ag1086
ag1915
ag487
ag897
ag128
ag1087
ag816
ag817
ag187
ag188
ag189
ag190
ag1088
ag756
ag757
ag336
ag17
ag2852
ag239
ag240
ag1089
ag1090
ag1091
ag535
ag536
ag1092
ag1093
ag1094
ag2853
ag628
ag629
ag2854
ag631
ag632
ag2855
ag510
ag511
ag512
ag513
ag1095
ag2856
ag347
ag1096
ag1097
ag276
ag277
ag278
ag279
ag467
ag468
ag469
ag2857
ag472
ag473
ag1098
ag1099
ag1100
ag1101
ag1929
ag1102
ag1103
ag2858
ag1104
ag1105
ag1106
ag2859
ag1107
ag2860
ag2861
ag1108
ag1109
ag247
ag248
ag249
ag250
ag326
ag1110
ag2530
ag537
ag444
ag381
ag382
ag906
ag2862
ag1111
ag1112
ag1113
ag1114
ag2863
ag1115
ag1116
ag2864
ag1117
ag1930
ag1118
ag2865
ag372
ag1888
ag373
ag374
ag375
ag376
ag377
ag378
ag1119
ag1120
ag2866
ag1121
ag1122
ag533
ag824
ag825
ag33
ag34
ag35
ag36
ag37
ag38
ag39
ag40
ag271
ag171
ag2867
ag161
ag2868
ag1123
ag5
ag11
ag12
ag13
ag14
ag15
ag16
ag774
ag775
ag776
ag2869
ag252
ag253
ag254
ag255
ag132
ag133
ag134
ag256
ag257
ag259
ag261
ag262
ag263
ag264
ag265
ag266
ag270
ag251
ag1124
ag2870
ag2871
ag1125
ag1126
ag1127
ag18
ag23
ag24
ag956
ag957
ag943
ag944
ag2524
ag470
ag2872
ag2873
ag1128
ag207
ag208
ag209
ag212
ag213
ag214
ag215
ag760
ag319
ag320
ag321
ag955
ag323
ag324
ag325
ag327
ag328
ag329
ag331
ag1906
ag332
ag333
ag334
ag1907
ag1129
ag1130
ag1131
ag1132
ag2874
ag514
ag1945
ag1133
ag1134
ag1135
ag1136
ag1137
ag1138
ag1922
ag2875
ag1139
ag1140
ag1141
ag1142
ag1143
ag1144
ag2876
ag2877
ag1145
ag539
ag540
ag542
ag543
ag618
ag1926
ag1146
ag385
ag1147
ag310
ag1148
ag1149
ag445
ag446
ag1150
ag1020
ag717
ag718
ag1889
ag379
ag1022
ag450
ag341
ag1023
ag2878
ag843
ag1024
ag844
ag845
ag846
ag1025
ag847
ag848
ag719
ag350
ag351
ag849
ag850
ag851
ag852
ag853
ag854
ag855
ag856
ag857
ag858
ag565
ag971
ag566
ag567
ag568
ag569
ag972
ag859
ag860
ag862
ag345
ag42
ag43
ag47
ag48
ag49
ag50
ag51
ag114
ag115
ag117
ag118
ag119
ag120
ag121
ag125
ag126
ag129
ag130
ag131
ag138
ag139
ag140
ag142
ag143
ag144
ag145
ag146
ag147
ag148
ag152
ag153
ag154
ag155
ag157
ag158
ag160
ag162
ag163
ag164
ag170
ag172
ag173
ag174
ag241
ag1826
ag3113
ag1827
ag297
ag348
ag349
ag553
ag554
ag866
ag346
ag2520
ag1637
ag1151
ag1152
ag1153
ag1154
ag2166
ag2167
ag2168
ag2573
ag2884
ag2207
ag3114
ag3115
ag2567
ag1272
ag1273
ag988
ag494
ag3017
ag495
ag498
ag499
ag500
ag501
ag502
ag504
ag3116
ag922
ag2900
ag3117
ag3118
ag3119
ag1446
ag1447
ag1448
ag1449
ag507
ag508
ag509
ag478
ag1737
ag1738
ag1279
ag1280
ag986
ag1917
ag592
ag1542
ag1543
ag1544
ag1545
ag3032
ag1453
ag1454
ag1455
ag699
ag700
ag3120
ag701
ag2879
ag662
ag663
ag664
ag665
ag666
ag667
ag668
ag2208
ag2606
ag2209
ag2210
ag2211
ag1441
ag1442
ag505
ag506
ag1274
ag1275
ag1276
ag1277
ag2521
ag1271
ag3121
ag1246
ag1247
ag1248
ag386
ag387
ag388
ag1422
ag2892
ag1528
ag1529
ag1530
ag3083
ag1531
ag1532
ag1421
ag1911
ag1912
ag1268
ag3038
ag1269
ag1270
ag1450
ag1325
ag1326
ag1327
ag1451
ag1452
ag1533
ag2537
ag1534
ag1535
ag193
ag194
ag195
ag1526
ag1527
ag1536
ag298
ag299
ag300
ag301
ag302
ag303
ag304
ag296
ag181
ag182
ag306
ag307
ag308
ag1537
ag1208
ag1209
ag3122
ag1538
ag1539
ag2000
ag1540
ag3123
ag2001
ag1541
ag521
ag661
ag1546
ag3124
ag1547
ag1548
ag1549
ag1550
ag1551
ag659
ag660
ag799
ag800
ag900
ag801
ag802
ag803
ag804
ag805
ag806
ag807
ag808
ag809
ag810
ag811
ag812
ag2514
ag635
ag636
ag637
ag638
ag309
ag1946
ag389
ag390
ag392
ag393
ag394
ag397
ag398
ag399
ag400
ag3125
ag1959
ag2416
ag3126
ag3127
ag2417
ag3128
ag1612
ag3129
ag2562
ag743
ag744
ag3130
ag597
ag598
ag582
ag583
ag584
ag687
ag1900
ag461
ag689
ag690
ag691
ag692
ag813
ag3021
ag1705
ag1706
ag1707
ag1709
ag1710
ag679
ag3023
ag1295
ag1296
ag1297
ag1298
ag1931
ag1299
ag2523
ag1300
ag520
ag1471
ag1472
ag3024
ag1473
ag1474
ag1475
ag1476
ag1477
ag1478
ag1479
ag1480
ag342
ag343
ag344
ag352
ag354
ag355
ag357
ag358
ag359
ag360
ag361
ag362
ag363
ag364
ag365
ag366
ag367
ag371
ag2086
ag3026
ag2013
ag2014
ag2015
ag3040
ag2899
ag671
ag672
ag673
ag674
ag676
ag1316
ag3131
ag1257
ag1258
ag1259
ag1260
ag1659
ag2219
ag2220
ag3132
ag3133
ag2221
ag2222
ag2902
ag2223
ag2224
ag3134
ag2009
ag2010
ag2011
ag3135
ag594
ag595
ag2012
ag1731
ag3136
ag1638
ag1639
ag2017
ag2018
ag2019
ag2020
ag2021
ag1514
ag1515
ag3137
ag1516
ag3138
ag1517
ag2315
ag3048
ag964
ag2316
ag2317
ag3139
ag3140
ag820
ag703
ag2318
ag3141
ag3142
ag2319
ag2320
ag3143
ag2321
ag272
ag273
ag275
ag280
ag281
ag283
ag284
ag463
ag464
ag465
ag311
ag312
ag313
ag316
ag449
ag452
ag453
ag454
ag455
ag456
ag457
ag458
ag401
ag462
ag3144
ag1281
ag1282
ag1195
ag1196
ag1197
ag1198
ag1199
ag1283
ag1284
ag1285
ag1166
ag1167
ag1286
ag1287
ag1288
ag1251
ag1289
ag1290
ag1291
ag3145
ag833
ag834
ag835
ag3146
ag3147
ag479
ag480
ag481
ag482
ag483
ag484
ag485
ag1301
ag1302
ag1303
ag1304
ag3148
ag1305
ag1306
ag1307
ag1308
ag1309
ag1310
ag1311
ag1312
ag1313
ag1314
ag1315
ag836
ag837
ag838
ag839
ag840
ag841
ag1317
ag1318
ag1319
ag967
ag1320
ag1321
ag1322
ag1323
ag1324
ag604
ag2890
ag1328
ag1330
ag1331
ag1333
ag1334
ag1335
ag1336
ag2525
ag2526
ag1337
ag1936
ag1338
ag1339
ag1340
ag1341
ag1342
ag1343
ag1344
ag1345
ag1346
ag1347
ag1348
ag1349
ag1350
ag1351
ag1352
ag711
ag712
ag713
ag1353
ag1354
ag1355
ag1356
ag1357
ag1358
ag1359
ag1360
ag1361
ag1362
ag1363
ag1364
ag1365
ag1366
ag3149
ag1367
ag1368
ag1369
ag1370
ag1371
ag1372
ag3150
ag1373
ag1374
ag1375
ag3151
ag3152
ag1376
ag1377
ag1378
ag1188
ag1379
ag1380
ag1381
ag1382
ag1383
ag1384
ag1385
ag1267
ag1386
ag1387
ag1388
ag1389
ag1390
ag1391
ag1392
ag1393
ag1394
ag1395
ag1396
ag1397
ag1398
ag1399
ag199
ag200
ag201
ag202
ag1400
ag1401
ag1402
ag1403
ag1404
ag1405
ag1406
ag1407
ag1408
ag3153
ag1255
ag1256
ag1261
ag1262
ag1263
ag1264
ag1265
ag1409
ag1410
ag2046
ag1411
ag1412
ag1413
ag1414
ag1415
ag1416
ag1417
ag1751
ag1643
ag1644
ag2030
ag2031
ag704
ag705
ag706
ag2039
ag2029
ag1553
ag1947
ag564
ag1005
ag1740
ag1741
ag2032
ag3154
ag735
ag737
ag3155
ag1767
ag2353
ag3156
ag2354
ag3157
ag1464
ag3158
ag2355
ag1575
ag1576
ag599
ag600
ag601
ag603
ag607
ag608
ag610
ag3159
ag612
ag614
ag615
ag617
ag1918
ag1580
ag1581
ag1582
ag1583
ag1584
ag1585
ag1586
ag563
ag570
ag571
ag572
ag573
ag574
ag575
ag576
ag577
ag3160
ag3161
ag1855
ag1856
ag1857
ag1858
ag1859
ag1860
ag633
ag634
ag593
ag1726
ag1459
ag1460
ag1461
ag1462
ag1463
ag910
ag911
ag912
ag914
ag916
ag918
ag919
ag996
ag998
ag999
ag947
ag949
ag950
ag951
ag1001
ag1003
ag990
ag991
ag1006
ag3081
ag1007
ag2061
ag1456
ag1457
ag1458
ag3162
ag3163
ag740
ag741
ag742
ag714
ag716
ag1226
ag2540
ag1227
ag1228
ag1229
ag1230
ag1231
ag761
ag762
ag489
ag763
ag764
ag765
ag2063
ag1853
ag1418
ag1234
ag1235
ag1630
ag1631
ag1861
ag1862
ag515
ag516
ag517
ag518
ag519
ag1613
ag1614
ag1615
ag1616
ag1503
ag3164
ag3165
ag3166
ag1863
ag1864
ag1865
ag1866
ag1867
ag1868
ag1869
ag1870
ag1871
ag1872
ag1873
ag1874
ag2041
ag1875
ag2064
ag1876
ag1877
ag1698
ag1699
ag619
ag620
ag621
ag622
ag623
ag624
ag625
ag626
ag1481
ag720
ag721
ag722
ag723
ag724
ag2895
ag726
ag2205
ag1700
ag1701
ag1702
ag2206
ag798
ag979
ag980
ag981
ag982
ag983
ag984
ag985
ag2242
ag2243
ag2244
ag531
ag2065
ag2306
ag3167
ag3168
ag1956
ag2307
ag2308
ag3169
ag2309
ag2310
ag493
ag1214
ag1215
ag1217
ag863
ag864
ag865
ag1713
ag1714
ag1715
ag1717
ag2034
ag1672
ag1673
ag1674
ag2607
ag3170
ag3171
ag1568
ag1569
ag524
ag525
ag526
ag681
ag682
ag1237
ag1239
ag1240
ag1241
ag1242
ag1243
ag1244
ag1266
ag1155
ag1156
ag1157
ag1158
ag176
ag178
ag183
ag191
ag3045
ag2087
ag2357
ag1599
ag1600
ag547
ag548
ag1236
ag1469
ag639
ag1493
ag1494
ag1495
ag1496
ag1497
ag1498
ag1499
ag1500
ag1501
ag1502
ag1554
ag822
ag823
ag1711
ag1177
ag1178
ag1179
ag1180
ag1181
ag1182
ag1183
ag1184
ag1185
ag1186
ag1190
ag792
ag793
ag1191
ag402
ag403
ag404
ag405
ag412
ag413
ag415
ag416
ag417
ag418
ag420
ag421
ag422
ag423
ag425
ag426
ag427
ag428
ag429
ag434
ag435
ag441
ag442
ag443
ag447
ag448
ag474
ag491
ag492
ag545
ag546
ag550
ag555
ag556
ag558
ag559
ag560
ag578
ag580
ag581
ag586
ag589
ag590
ag591
ag596
ag640
ag641
ag642
ag643
ag644
ag645
ag646
ag647
ag648
ag649
ag650
ag651
ag652
ag653
ag654
ag656
ag658
ag1419
ag1420
ag1440
ag702
ag683
ag684
ag685
ag1949
ag3058
ag3059
ag2088
ag2089
ag2090
ag2091
ag1483
ag1484
ag1485
ag1486
ag1487
ag1488
ag1489
ag1491
ag1492
ag2092
ag1518
ag1520
ag2093
ag2094
ag1218
ag1219
ag2095
ag2097
ag2098
ag2099
ag2100
ag2101
ag2102
ag2561
ag931
ag2103
ag2104
ag2105
ag2106
ag1168
ag1169
ag1170
ag2107
ag2049
ag2050
ag2051
ag2052
ag2053
ag2054
ag2055
ag2056
ag2057
ag2058
ag1835
ag1836
ag1816
ag937
ag939
ag942
ag946
ag1837
ag1557
ag3172
ag1558
ag1559
ag1560
ag1561
ag1562
ag1563
ag1564
ag1565
ag1566
ag1567
ag2170
ag2171
ag2172
ag2173
ag1525
ag1220
ag1221
ag965
ag966
ag1606
ag1607
ag1608
ag1609
ag1611
ag1783
ag1598
ag1815
ag3173
ag1817
ag2116
ag2117
ag1828
ag1829
ag1830
ag1831
ag1832
ag1833
ag1834
ag2118
ag2119
ag3075
ag3174
ag2120
ag1781
ag2121
ag2122
ag2123
ag2124
ag2125
ag1978
ag1979
ag2564
ag709
ag710
ag904
ag905
ag921
ag923
ag926
ag928
ag929
ag930
ag935
ag1939
ag1940
ag1822
ag1823
ag1824
ag1825
ag1733
ag1734
ag1735
ag1222
ag1223
ag1224
ag1225
ag2127
ag2128
ag2129
ag2130
ag2131
ag2132
ag2133
ag2134
ag2135
ag2136
ag2137
ag2138
ag2139
ag2140
ag1010
ag2141
ag2142
ag2143
ag1470
ag871
ag872
ag732
ag1026
ag1027
ag1028
ag1030
ag1034
ag1036
ag1037
ag1038
ag1040
ag1041
ag1423
ag1424
ag1426
ag1427
ag1428
ag1429
ag1430
ag1431
ag1432
ag1433
ag1434
ag1435
ag1437
ag1438
ag1439
ag1193
ag1194
ag1200
ag1202
ag1204
ag1205
ag1206
ag1207
ag1210
ag1211
ag1212
ag1213
ag1444
ag1249
ag1250
ag1232
ag1233
ag1465
ag1466
ag1467
ag1468
ag1482
ag1504
ag2546
ag1505
ag1506
ag1507
ag1508
ag1509
ag1511
ag1512
ag1513
ag1521
ag1522
ag1523
ag1524
ag1552
ag1555
ag1252
ag1253
ag1254
ag1570
ag1571
ag1994
ag1572
ag1573
ag1574
ag1577
ag1578
ag1579
ag1587
ag1588
ag1589
ag1590
ag1591
ag1592
ag1593
ag1594
ag1595
ag1596
ag1601
ag1603
ag1604
ag1605
ag1610
ag1617
ag1618
ag1619
ag1620
ag1621
ag1622
ag1625
ag1626
ag1627
ag826
ag827
ag829
ag830
ag831
ag1629
ag1633
ag1634
ag1635
ag1636
ag1640
ag1641
ag1642
ag1645
ag1646
ag1648
ag1649
ag1650
ag1651
ag1652
ag1653
ag1655
ag1656
ag1657
ag1660
ag1662
ag1663
ag1664
ag1667
ag1668
ag1669
ag1670
ag873
ag1671
ag1675
ag1676
ag1677
ag1678
ag1679
ag1680
ag1681
ag1682
ag2553
ag2554
ag1684
ag1685
ag1686
ag1687
ag1689
ag1690
ag1691
ag1692
ag1693
ag1694
ag1695
ag796
ag1696
ag1697
ag1703
ag1704
ag2282
ag1728
ag1729
ag1878
ag1879
ag2276
ag2277
ag2278
ag2279
ag2588
ag2280
ag2164
ag2165
ag753
ag754
ag751
ag752
ag758
ag2035
ag2037
ag2038
ag2043
ag1820
ag2044
ag1718
ag1719
ag1720
ag2419
ag2420
ag2421
ag2422
ag2615
ag2177
ag2407
ag2408
ag2409
ag3175
ag2410
ag2616
ag2411
ag2412
ag2413
ag2414
ag795
ag1763
ag1764
ag2048
ag2505
ag3176
ag2385
ag2386
ag2388
ag1950
ag1951
ag1739
ag1839
ag1840
ag2636
ag3177
ag2299
ag2300
ag2301
ag2322
ag2231
ag2232
ag2604
ag1811
ag2323
ag2324
ag2325
ag1165
ag1980
ag1981
ag2489
ag1778
ag2637
ag2144
ag2145
ag2146
ag2147
ag2148
ag2149
ag2150
ag3178
ag2638
ag2639
ag2640
ag3179
ag2382
ag2903
ag1845
ag1846
ag1847
ag1838
ag1841
ag1842
ag2619
ag2620
ag745
ag746
ag747
ag748
ag749
ag696
ag1742
ag1743
ag1744
ag1745
ag1746
ag1747
ag1748
ag1749
ag1750
ag1999
ag2108
ag2109
ag2110
ag2111
ag2641
ag2642
ag2643
ag2644
ag3180
ag2645
ag2646
ag3181
ag2348
ag3182
ag1968
ag1970
ag1973
ag1974
ag1975
ag1976
ag1977
ag1779
ag1983
ag1984
ag1985
ag1986
ag1988
ag1991
ag1992
ag1993
ag2358
ag2187
ag2359
ag2360
ag2361
ag2112
ag2113
ag2114
ag2115
ag2647
ag2238
ag2239
ag2401
ag2402
ag2406
ag2370
ag2371
ag2068
ag2069
ag2070
ag2071
ag2072
ag2073
ag2074
ag2075
ag2076
ag2077
ag2078
ag2374
ag2375
ag2376
ag2184
ag759
ag814
ag819
ag2151
ag2152
ag2153
ag2326
ag2327
ag2328
ag2555
ag2329
ag2330
ag2331
ag2160
ag778
ag779
ag2332
ag2333
ag2334
ag2335
ag2336
ag2311
ag2312
ag2313
ag2648
ag2483
ag2484
ag2485
ag2226
ag2227
ag2228
ag2486
ag2487
ag2488
ag2490
ag2491
ag1794
ag2251
ag2252
ag2253
ag2254
ag2649
ag2080
ag2082
ag2083
ag2241
ag3183
ag2389
ag2650
ag2651
ag2594
ag1721
ag1722
ag1723
ag1724
ag1725
ag1785
ag1786
ag1787
ag1788
ag1789
ag1948
ag1957
ag1960
ag1961
ag1962
ag2652
ag2365
ag2366
ag2260
ag2262
ag2176
ag2571
ag2572
ag2005
ag2006
ag2007
ag2008
ag2266
ag2193
ag2194
ag2195
ag2196
ag2197
ag2198
ag2199
ag2200
ag2201
ag2202
ag2204
ag2267
ag2268
ag2269
ag2270
ag2271
ag2272
ag2273
ag1801
ag2274
ag2275
ag2653
ag3090
ag727
ag728
ag729
ag730
ag1159
ag1160
ag1161
ag1162
ag1163
ag1164
ag1171
ag1172
ag1173
ag1174
ag1175
ag1176
ag731
ag780
ag781
ag782
ag783
ag784
ag786
ag787
ag788
ag789
ag2154
ag2155
ag2156
ag2157
ag2568
ag2569
ag2570
ag2158
ag2159
ag2161
ag2162
ag2163
ag2654
ag2655
ag2656
ag2657
ag2658
ag2659
ag2660
ag2661
ag2662
ag2663
ag2459
ag2664
ag2665
ag884
ag885
ag954
ag2666
ag2667
ag2668
ag2669
ag2670
ag2671
ag2066
ag2084
ag2085
ag2190
ag2191
ag2192
ag1782
ag2596
ag2597
ag2440
ag2441
ag2672
ag3184
ag2673
ag2591
ag2592
ag2593
ag2245
ag2246
ag2247
ag2249
ag2250
ag2674
ag2622
ag2623
ag2624
ag2625
ag2626
ag2627
ag2628
ag2629
ag2630
ag2631
ag2169
ag1768
ag1770
ag1771
ag1772
ag1773
ag1774
ag1775
ag1776
ag1777
ag2589
ag2590
ag2446
ag2447
ag2448
ag2449
ag2434
ag2399
ag2444
ag2445
ag3185
ag2255
ag2601
ag2602
ag2603
ag2369
ag2377
ag2563
ag2378
ag2379
ag2380
ag2381
ag2383
ag2384
ag2180
ag2181
ag2182
ag2183
ag2185
ag2186
ag2675
ag2314
ag2281
ag1880
ag1881
ag1852
ag2188
ag2189
ag2218
ag2356
ag2621
ag2504
ag2391
ag2392
ag2393
ag2340
ag2213
ag2214
ag2215
ag2216
ag2217
ag1712
ag1752
ag1753
ag1754
ag1755
ag1756
ag1757
ag1761
ag1765
ag1766
ag1790
ag1791
ag1792
ag1793
ag1795
ag1796
ag1797
ag1798
ag1799
ag1800
ag1803
ag1804
ag1805
ag1808
ag1809
ag1810
ag1812
ag1814
ag1818
ag1819
ag1821
ag1843
ag1844
ag1850
ag2174
ag2175
ag2225
ag2229
ag2230
ag2233
ag2234
ag2235
ag2349
ag2350
ag2351
ag2352
ag2450
ag2451
ag2452
ag2453
ag2302
ag2303
ag2304
ag2305
ag2701
ag2338
ag2339
ag2341
ag2342
ag2343
ag2344
ag2345
ag2346
ag2347
ag2681
ag2397
ag2178
ag2285
ag2286
ag2425
ag2731
ag2732
ag2726
ag2727
ag2728
ag2733
ag2287
ag2288
ag2289
ag2290
ag2423
ag2424
ag2729
ag2730
ag2494
ag2495
ag2496
ag2497
ag2499
ag2500
ag2501
ag2502
ag2503
ag2565
ag2403
ag2481
ag2294
ag2585
ag2426
ag2427
ag2428
ag2429
ag2430
ag2431
ag2432
ag2212
ag2292
ag2293
ag2482
ag2778
ag2779
ag2780
ag2685
ag2686
ag2687
ag3190
ag2688
ag3091
ag2689
ag2690
ag2608
ag2609
ag2610
ag2734
ag2735
ag2736
ag2737
ag2738
ag2739
ag2740
ag2741
ag2236
ag2256
ag2259
ag2263
ag2264
ag2265
ag2958
ag2959
ag2960
ag2367
ag2368
ag2705
ag2706
ag2707
ag2708
ag2709
ag2829
ag2830
ag2961
ag2922
ag2923
ag2680
ag2390
ag2404
ag2405
ag2435
ag2436
ag2767
ag2975
ag2976
ag2977
ag2978
ag2979
ag2980
ag2781
ag2782
ag2951
ag2682
ag2678
ag2679
ag2683
ag2684
ag2295
ag2296
ag2691
ag2692
ag2693
ag2694
ag2695
ag2696
ag2697
ag2493
ag2698
ag3092
ag2699
ag2700
ag2702
ag2632
ag2633
ag2634
ag2635
ag2703
ag2704
ag2458
ag2710
ag2711
ag2712
ag2713
ag2714
ag2715
ag2716
ag2717
ag2476
ag2478
ag2479
ag2463
ag2464
ag2465
ag2466
ag2467
ag2468
ag2469
ag2470
ag2471
ag2718
ag2770
ag2771
ag2394
ag2395
ag2396
ag2400
ag2574
ag2575
ag2576
ag2577
ag2578
ag2579
ag2580
ag2581
ag2582
ag2584
ag2826
ag2827
ag2828
ag2362
ag2363
ag2775
ag2831
ag2783
ag2784
ag2776
ag2777
ag2757
ag2283
ag2284
ag2298
ag2742
ag2743
ag2744
ag2745
ag2746
ag2747
ag2748
ag2749
ag2750
ag2751
ag2752
ag2753
ag2754
ag2755
ag2756
ag2932
ag2933
ag2934
ag2935
ag2936
ag3093
ag2768
ag2769
ag2921
ag2586
ag2587
ag2943
ag2719
ag2720
ag2721
ag2722
ag2723
ag2724
ag2725
ag2676
ag2677
ag2758
ag2759
ag2760
ag2761
ag2762
ag2763
ag2764
ag2765
ag2766
ag2772
ag2773
ag2774
ag2460
ag2461
ag2462
ag2492
ag2437
ag2438
ag2439
ag2442
ag2443
ag2821
ag2824
ag2825
ag2937
ag2938
ag2939
ag2474
ag2475
ag3009
ag2418
ag2791
ag2981
ag2982
ag2983
aVjumble
p3197
ag3097
ag2944
ag2945
ag2946
ag2947
ag2948
ag2949
ag2950
ag2454
ag2455
ag2456
ag2457
ag2433
ag2785
ag2786
ag2787
ag2940
ag2941
ag2942
ag2984
ag2920
ag2985
ag2986
ag2987
ag2988
ag2924
ag2925
ag2926
ag2927
ag2928
ag2929
ag2952
ag2953
ag2954
ag2972
ag2973
ag2974
ag2962
ag2930
ag2931
ag2963
ag2917
ag2918
ag2919
ag2968
ag2798
ag2799
ag2800
ag2801
ag2802
ag2803
ag2804
ag2805
ag2807
ag2808
ag2809
ag2810
ag2811
ag2812
ag2472
ag2473
ag2955
ag2956
ag3098
ag3099
ag3100
ag2964
ag2965
ag2966
ag2967
ag2998
ag2788
ag2789
ag2790
ag2989
ag2990
ag2991
ag2992
ag2993
ag2994
ag2969
ag2970
ag2971
ag2957
ag2792
ag2793
ag2794
ag2795
ag2796
ag2797
ag2814
ag2815
ag2816
ag2817
ag2818
ag2819
ag2820
ag3101
ag3102
ag3103
ag3104
ag3095
ag3096
ag3105
ag2997
ag2999
ag3000
ag3001
ag3002
ag3003
ag3004
ag3005
ag3006
ag3007
ag3106
ag2995
ag2996
ag3107
ag3108
ag3109
ag3110
ag3186
ag3111
ag3112
ag3008
ag3187
a.